ARM GAS  /cygdrive/c/DOCUME~1/ANDERS~1/LOKALA~1/Temp/ccE9Z8JS.s 			page 1


   1              		.code	16
   2              		.file	"count_sem.c"
   3              		.section	.debug_abbrev,"",%progbits
   4              	.Ldebug_abbrev0:
   5              		.section	.debug_info,"",%progbits
   6              	.Ldebug_info0:
   7              		.section	.debug_line,"",%progbits
   8              	.Ldebug_line0:
   9 0000 D5000000 		.text
   9      02007B00 
   9      00000201 
   9      FB0E0A00 
   9      01010101 
  10              	.Ltext0:
  11              		.align	2
  12              		.global	osSemInit
  13              		.code 16
  14              		.thumb_func
  15              		.type	osSemInit, %function
  16              	osSemInit:
  17              	.LFB2:
  18              		.file 1 "core/count_sem.c"
   1:core/count_sem.c **** /******************************************************************************
   2:core/count_sem.c ****  *
   3:core/count_sem.c ****  * Copyright:
   4:core/count_sem.c ****  *    (C) 2000 - 2005 Embedded Artists AB
   5:core/count_sem.c ****  *
   6:core/count_sem.c ****  * Description:
   7:core/count_sem.c ****  *
   8:core/count_sem.c ****  * ESIC:
   9:core/count_sem.c ****  *    pre_emptive_os
  10:core/count_sem.c ****  *
  11:core/count_sem.c ****  * Version:
  12:core/count_sem.c ****  *    1.4.0
  13:core/count_sem.c ****  *
  14:core/count_sem.c ****  * Generate date:
  15:core/count_sem.c ****  *    2005-03-15 at 20:27:15
  16:core/count_sem.c ****  *
  17:core/count_sem.c ****  * NOTE:
  18:core/count_sem.c ****  *    DO NOT EDIT THIS FILE. IT IS AUTO GENERATED.
  19:core/count_sem.c ****  *    CHANGES TO THIS FILE WILL BE LOST IF THE FILE IS RE-GENERATED
  20:core/count_sem.c ****  *
  21:core/count_sem.c ****  * Signature:
  22:core/count_sem.c ****  *   7072655F656D70746976655F6F73,312E342E302E30,020235
  23:core/count_sem.c ****  *   ,35,10104021013134373435363030,07323838,3732,01013
  24:core/count_sem.c ****  *   830,0101013138303030303030,3135,33,3135,0232323530
  25:core/count_sem.c ****  *   ,01020130,0231343734353539,3238313831,020101100302
  26:core/count_sem.c ****  *   103030310010133,0163130,3230,3330,3430,3530,3630,3
  27:core/count_sem.c ****  *   730,3830,3930,313030,313130,313230,313330,313430,3
  28:core/count_sem.c ****  *   13530,313630,,35,35,35,35,35,35,35,35,35,35,35,35,
  29:core/count_sem.c ****  *   35,35,35,35,,,,1001001100011000000000]484152445741
  30:core/count_sem.c ****  *   5245,4C5043323130365F32,545538,756E7369676E6564206
  31:core/count_sem.c ****  *   3686172,414C49474E4D454E54,34,54424F4F4C,756E73696
  32:core/count_sem.c ****  *   76E65642063686172,54553332,756E7369676E656420696E7
  33:core/count_sem.c ****  *   4,544D505F46494C4553,2A2E656C663B2A2E6C73743B2A2E6
  34:core/count_sem.c ****  *   D61703B2A2E6F3B2A2E6F626A3B2A2E64,454E4449414E,4C4
  35:core/count_sem.c ****  *   954544C45,54533332,7369676E656420696E74,545338,736
ARM GAS  /cygdrive/c/DOCUME~1/ANDERS~1/LOKALA~1/Temp/ccE9Z8JS.s 			page 2


  36:core/count_sem.c ****  *   9676E65642063686172,54553136,756E7369676E656420736
  37:core/count_sem.c ****  *   86F7274,54533136,7369676E65642073686F7274,44455343
  38:core/count_sem.c ****  *   52495054494F4E,,44454255475F4C4556454C,30,434F4445
  39:core/count_sem.c ****  *   5F524F4F54,,47454E5F52554C4553,,4C494E455F5445524D
  40:core/count_sem.c ****  *   ,43524C46,4252414345,,43524541544F52,416E646572732
  41:core/count_sem.c ****  *   0526F7376616C6C,4352454154494F4E5F44415445,3230303
  42:core/count_sem.c ****  *   52D30332D31352032303A31373A3432,524F4F54,433A2F446
  43:core/count_sem.c ****  *   F63756D656E747320616E642053657474696E67732F416E646
  44:core/count_sem.c ****  *   5727320526F7376616C6C2F4D696E6120646F6B756D656E742
  45:core/count_sem.c ****  *   F456D62656464656420417274697374732F50726F647563747
  46:core/count_sem.c ****  *   32F4C50433231303620525332333220517569636B537461727
  47:core/count_sem.c ****  *   420426F6172642F72746F732F]505245464958,,4445425547
  48:core/count_sem.c ****  *   5F4C4556454C,30,555345525F434F4D4D454E54,]64656661
  49:core/count_sem.c ****  *   756C74,
  50:core/count_sem.c ****  *
  51:core/count_sem.c ****  * Checksum:
  52:core/count_sem.c ****  *    340161
  53:core/count_sem.c ****  *
  54:core/count_sem.c ****  *****************************************************************************/
  55:core/count_sem.c **** 
  56:core/count_sem.c **** 
  57:core/count_sem.c **** /******************************************************************************
  58:core/count_sem.c ****  * Includes
  59:core/count_sem.c ****  *****************************************************************************/
  60:core/count_sem.c **** 
  61:core/count_sem.c **** #include "../api/general.h"
  62:core/count_sem.c **** #include "event.h"
  63:core/count_sem.c **** #include "count_sem.h"
  64:core/count_sem.c **** #include "hal.h"
  65:core/count_sem.c **** #include "kernel.h"
  66:core/count_sem.c **** #include "error.h"
  67:core/count_sem.c **** #include "../stub/osstub.h"
  68:core/count_sem.c **** 
  69:core/count_sem.c **** /******************************************************************************
  70:core/count_sem.c ****  * Implementation of public functions
  71:core/count_sem.c ****  *****************************************************************************/
  72:core/count_sem.c **** 
  73:core/count_sem.c **** 
  74:core/count_sem.c **** /*****************************************************************************
  75:core/count_sem.c ****  *
  76:core/count_sem.c ****  * Description:
  77:core/count_sem.c ****  *    This function initializes a counting semaphore and must be called before 
  78:core/count_sem.c ****  *    any other function is used on the semaphore. 
  79:core/count_sem.c ****  *
  80:core/count_sem.c ****  * Params:
  81:core/count_sem.c ****  *    [in] pSem    - A pointer to an allocated counting semaphore structure. 
  82:core/count_sem.c ****  *    [in] initial - The initial counter value. 
  83:core/count_sem.c ****  *
  84:core/count_sem.c ****  ****************************************************************************/
  85:core/count_sem.c **** void
  86:core/count_sem.c **** osSemInit(tCntSem* pSem,
  87:core/count_sem.c ****           tU16     initial)
  88:core/count_sem.c **** {
  19              		.loc 1 88 0
  20 0000 30B5     		push	{r4, r5, lr}
  21              	.LCFI0:
  22              		.loc 1 88 0
ARM GAS  /cygdrive/c/DOCUME~1/ANDERS~1/LOKALA~1/Temp/ccE9Z8JS.s 			page 3


  23 0002 051C     		mov	r5, r0
  24 0004 0C04     		lsl	r4, r1, #16
  89:core/count_sem.c ****   eventInit((tOSEvent*)pSem);
  25              		.loc 1 89 0
  26 0006 FFF7FEFF 		bl	eventInit
  27              		.loc 1 88 0
  28 000a 240C     		lsr	r4, r4, #16
  90:core/count_sem.c ****   pSem->cnt = initial;
  29              		.loc 1 90 0
  30 000c 2C83     		strh	r4, [r5, #24]
  31              		@ sp needed for prologue
  32 000e 30BC     		pop	{r4, r5}
  33 0010 01BC     		pop	{r0}
  34 0012 0047     		bx	r0
  35              	.LFE2:
  36              		.size	osSemInit, .-osSemInit
  37              		.align	2
  38              		.global	osSemTake
  39              		.code 16
  40              		.thumb_func
  41              		.type	osSemTake, %function
  42              	osSemTake:
  43              	.LFB3:
  91:core/count_sem.c **** }
  92:core/count_sem.c **** 
  93:core/count_sem.c **** 
  94:core/count_sem.c **** /*****************************************************************************
  95:core/count_sem.c ****  *
  96:core/count_sem.c ****  * Description:
  97:core/count_sem.c ****  *    This function takes a counting semaphore, i.e. decreasing the semaphore 
  98:core/count_sem.c ****  *    counting. If the semaphore counter is zero the function will block until 
  99:core/count_sem.c ****  *    another process or an ISR gives the semaphore or a timeout occurs. 
 100:core/count_sem.c ****  *
 101:core/count_sem.c ****  * Params:
 102:core/count_sem.c ****  *    [in]  pSem    - A pointer to an initialized semaphore structure. 
 103:core/count_sem.c ****  *    [in]  timeout - After timeout ticks the operation will timeout. A 
 104:core/count_sem.c ****  *                    timeout of zero means no timeout at all. 
 105:core/count_sem.c ****  *    [out] pError  - The return status of the function. 
 106:core/count_sem.c ****  *
 107:core/count_sem.c ****  * Returns:
 108:core/count_sem.c ****  *    TRUE if semaphore was taken and FALSE if timeout or error. 
 109:core/count_sem.c ****  *
 110:core/count_sem.c ****  * Error codes:
 111:core/count_sem.c ****  *    OS_OK         - The function completed successfully. 
 112:core/count_sem.c ****  *    OS_ERROR_ISR  - The function was called from an interrupt service 
 113:core/count_sem.c ****  *                    routine. 
 114:core/count_sem.c ****  *    OS_ERROR_NULL - A NULL pointer was supplied to the function where it was 
 115:core/count_sem.c ****  *                    not allowed. 
 116:core/count_sem.c ****  *
 117:core/count_sem.c ****  ****************************************************************************/
 118:core/count_sem.c **** tBool
 119:core/count_sem.c **** osSemTake(tCntSem* pSem,
 120:core/count_sem.c ****           tU32     timeout,
 121:core/count_sem.c ****           tU8*     pError)
 122:core/count_sem.c **** {
  44              		.loc 1 122 0
  45 0014 70B5     		push	{r4, r5, r6, lr}
ARM GAS  /cygdrive/c/DOCUME~1/ANDERS~1/LOKALA~1/Temp/ccE9Z8JS.s 			page 4


  46              	.LCFI1:
 123:core/count_sem.c ****   tU8 ret;
 124:core/count_sem.c ****   volatile tSR localSR;  /* declare temporary local space for status word */
 125:core/count_sem.c **** 
 126:core/count_sem.c ****   *pError = OS_OK;
  47              		.loc 1 126 0
  48 0016 0023     		mov	r3, #0
  49              		.loc 1 122 0
  50 0018 81B0     		sub	sp, sp, #4
  51              	.LCFI2:
  52              		.loc 1 122 0
  53 001a 0E1C     		mov	r6, r1
  54 001c 151C     		mov	r5, r2
  55              		.loc 1 126 0
  56 001e 1370     		strb	r3, [r2]
 127:core/count_sem.c ****   if(pSem == NULL)
  57              		.loc 1 127 0
  58 0020 041E     		sub	r4, r0, #0
  59 0022 01D1     		bne	.L3
 128:core/count_sem.c ****   {
 129:core/count_sem.c ****     *pError = OS_ERROR_NULL;
  60              		.loc 1 129 0
  61 0024 0123     		mov	r3, #1
  62 0026 0CE0     		b	.L9
  63              	.L3:
 130:core/count_sem.c **** 
 131:core/count_sem.c ****     return FALSE;
 132:core/count_sem.c ****   }
 133:core/count_sem.c **** 
 134:core/count_sem.c ****   m_os_dis_int();
  64              		.loc 1 134 0
  65 0028 FFF7FEFF 		bl	halDisableInterrupts_oshal
  66 002c 0090     		str	r0, [sp]
  67 002e C046     		 nop
 135:core/count_sem.c ****   
 136:core/count_sem.c ****   if(isrNesting > 0)
  68              		.loc 1 136 0
  69              		.code	16
  70 0030 1A4B     		ldr	r3, .L10
  71 0032 1B78     		ldrb	r3, [r3]
  72 0034 002B     		cmp	r3, #0
  73 0036 06D0     		beq	.L4
 137:core/count_sem.c ****   {
 138:core/count_sem.c ****     m_os_ena_int();
  74              		.loc 1 138 0
  75 0038 0098     		ldr	r0, [sp]
  76 003a FFF7FEFF 		bl	halRestoreInterrupts_oshal
  77 003e C046     		 nop
 139:core/count_sem.c ****     *pError = OS_ERROR_ISR;
  78              		.loc 1 139 0
  79              		.code	16
  80 0040 0223     		mov	r3, #2
  81              	.L9:
  82 0042 2B70     		strb	r3, [r5]
  83 0044 1EE0     		b	.L8
  84              	.L4:
 140:core/count_sem.c **** 
ARM GAS  /cygdrive/c/DOCUME~1/ANDERS~1/LOKALA~1/Temp/ccE9Z8JS.s 			page 5


 141:core/count_sem.c ****     return FALSE;
 142:core/count_sem.c ****   }
 143:core/count_sem.c **** 
 144:core/count_sem.c ****   if(pSem->cnt > 0)
  85              		.loc 1 144 0
  86 0046 228B     		ldrh	r2, [r4, #24]
  87 0048 002A     		cmp	r2, #0
  88 004a 02D0     		beq	.L5
 145:core/count_sem.c ****   {
 146:core/count_sem.c ****     pSem->cnt--;
  89              		.loc 1 146 0
  90 004c 531E     		sub	r3, r2, #1
  91 004e 2383     		strh	r3, [r4, #24]
  92 0050 1AE0     		b	.L6
  93              	.L5:
 147:core/count_sem.c ****   }
 148:core/count_sem.c ****   else
 149:core/count_sem.c ****   {
 150:core/count_sem.c ****     eventWait((tOSEvent*)pSem, timeout);
  94              		.loc 1 150 0
  95 0052 201C     		mov	r0, r4
  96 0054 311C     		mov	r1, r6
  97 0056 FFF7FEFF 		bl	eventWait
 151:core/count_sem.c ****     m_os_ena_int();
  98              		.loc 1 151 0
  99 005a 0098     		ldr	r0, [sp]
 100 005c FFF7FEFF 		bl	halRestoreInterrupts_oshal
 101 0060 C046     		 nop
 152:core/count_sem.c ****     schedule();
 102              		.loc 1 152 0
 103              		.code	16
 104 0062 FFF7FEFF 		bl	schedule
 153:core/count_sem.c ****     m_os_dis_int();
 105              		.loc 1 153 0
 106 0066 FFF7FEFF 		bl	halDisableInterrupts_oshal
 107 006a 0090     		str	r0, [sp]
 108 006c C046     		 nop
 154:core/count_sem.c ****     ret = eventWaitReturn((tOSEvent*)pSem);
 109              		.loc 1 154 0
 110              		.code	16
 111 006e 201C     		mov	r0, r4
 112 0070 FFF7FEFF 		bl	eventWaitReturn
 113 0074 0006     		lsl	r0, r0, #24
 114 0076 000E     		lsr	r0, r0, #24
 155:core/count_sem.c ****     if(ret == OS_ERROR_TIMEOUT){
 115              		.loc 1 155 0
 116 0078 0828     		cmp	r0, #8
 117 007a 05D1     		bne	.L6
 156:core/count_sem.c ****       m_os_ena_int();
 118              		.loc 1 156 0
 119 007c 0098     		ldr	r0, [sp]
 120 007e FFF7FEFF 		bl	halRestoreInterrupts_oshal
 121 0082 C046     		 nop
 122              		.code	16
 123              	.L8:
 157:core/count_sem.c ****       return FALSE;
 124              		.loc 1 157 0
ARM GAS  /cygdrive/c/DOCUME~1/ANDERS~1/LOKALA~1/Temp/ccE9Z8JS.s 			page 6


 125 0084 0020     		mov	r0, #0
 126 0086 04E0     		b	.L2
 127              	.L6:
 158:core/count_sem.c ****     }
 159:core/count_sem.c ****   }
 160:core/count_sem.c **** 
 161:core/count_sem.c ****   m_os_ena_int();
 128              		.loc 1 161 0
 129 0088 0098     		ldr	r0, [sp]
 130 008a FFF7FEFF 		bl	halRestoreInterrupts_oshal
 131 008e C046     		 nop
 162:core/count_sem.c ****   return TRUE;
 132              		.loc 1 162 0
 133              		.code	16
 134 0090 0120     		mov	r0, #1
 135              	.L2:
 163:core/count_sem.c **** }
 136              		.loc 1 163 0
 137 0092 01B0     		add	sp, sp, #4
 138              		@ sp needed for prologue
 139 0094 70BC     		pop	{r4, r5, r6}
 140 0096 02BC     		pop	{r1}
 141 0098 0847     		bx	r1
 142              	.L11:
 143 009a 0000     		.align	2
 144              	.L10:
 145 009c 00000000 		.word	isrNesting
 146              	.LFE3:
 147              		.size	osSemTake, .-osSemTake
 148              		.align	2
 149              		.global	osSemGive
 150              		.code 16
 151              		.thumb_func
 152              		.type	osSemGive, %function
 153              	osSemGive:
 154              	.LFB4:
 164:core/count_sem.c **** 
 165:core/count_sem.c **** 
 166:core/count_sem.c **** /*****************************************************************************
 167:core/count_sem.c ****  *
 168:core/count_sem.c ****  * Description:
 169:core/count_sem.c ****  *    This function gives a counting semaphore, i.e. increases the semaphore 
 170:core/count_sem.c ****  *    counter. If there are one or more processes waiting for the semaphore 
 171:core/count_sem.c ****  *    the process with highest priority is made ready to run. 
 172:core/count_sem.c ****  *
 173:core/count_sem.c ****  * Params:
 174:core/count_sem.c ****  *    [in]  pSem   - A pointer to an initialized semaphore structure. 
 175:core/count_sem.c ****  *    [out] pError - The return status of the function. 
 176:core/count_sem.c ****  *
 177:core/count_sem.c ****  * Error codes:
 178:core/count_sem.c ****  *    OS_OK         - The function completed successfully. 
 179:core/count_sem.c ****  *    OS_ERROR_NULL - A NULL pointer was supplied to the function where it was 
 180:core/count_sem.c ****  *                    not allowed. 
 181:core/count_sem.c ****  *
 182:core/count_sem.c ****  ****************************************************************************/
 183:core/count_sem.c **** void
 184:core/count_sem.c **** osSemGive(tCntSem* pSem,
ARM GAS  /cygdrive/c/DOCUME~1/ANDERS~1/LOKALA~1/Temp/ccE9Z8JS.s 			page 7


 185:core/count_sem.c ****           tU8*     pError)
 186:core/count_sem.c **** {
 155              		.loc 1 186 0
 156 00a0 10B5     		push	{r4, lr}
 157              	.LCFI3:
 187:core/count_sem.c ****   volatile tSR localSR;  /* declare temporary local space for status word */
 188:core/count_sem.c **** 
 189:core/count_sem.c ****   *pError = OS_OK;
 158              		.loc 1 189 0
 159 00a2 0023     		mov	r3, #0
 160              		.loc 1 186 0
 161 00a4 81B0     		sub	sp, sp, #4
 162              	.LCFI4:
 163              		.loc 1 189 0
 164 00a6 0B70     		strb	r3, [r1]
 190:core/count_sem.c ****   if(pSem == NULL)
 165              		.loc 1 190 0
 166 00a8 041E     		sub	r4, r0, #0
 167 00aa 02D1     		bne	.L13
 191:core/count_sem.c ****   {
 192:core/count_sem.c ****     *pError = OS_ERROR_NULL;
 168              		.loc 1 192 0
 169 00ac 0123     		mov	r3, #1
 170 00ae 0B70     		strb	r3, [r1]
 193:core/count_sem.c **** 
 194:core/count_sem.c ****     return;
 171              		.loc 1 194 0
 172 00b0 22E0     		b	.L12
 173              	.L13:
 195:core/count_sem.c ****   }
 196:core/count_sem.c **** 
 197:core/count_sem.c ****   m_os_dis_int();
 174              		.loc 1 197 0
 175 00b2 FFF7FEFF 		bl	halDisableInterrupts_oshal
 176 00b6 0090     		str	r0, [sp]
 177 00b8 C046     		 nop
 198:core/count_sem.c **** 
 199:core/count_sem.c ****   if(eventIsEmpty((tOSEvent*)pSem) == FALSE)
 178              		.loc 1 199 0
 179              		.code	16
 180 00ba 201C     		mov	r0, r4
 181 00bc FFF7FEFF 		bl	eventIsEmpty
 182 00c0 0006     		lsl	r0, r0, #24
 183 00c2 0028     		cmp	r0, #0
 184 00c4 11D1     		bne	.L14
 200:core/count_sem.c ****   {
 201:core/count_sem.c ****     eventSignal((tOSEvent*)pSem);
 185              		.loc 1 201 0
 186 00c6 201C     		mov	r0, r4
 187 00c8 FFF7FEFF 		bl	eventSignal
 202:core/count_sem.c ****     if(isrNesting == 0)
 188              		.loc 1 202 0
 189 00cc 0C4B     		ldr	r3, .L17
 190 00ce 1B78     		ldrb	r3, [r3]
 191 00d0 002B     		cmp	r3, #0
 192 00d2 0DD1     		bne	.L16
 203:core/count_sem.c ****     {
ARM GAS  /cygdrive/c/DOCUME~1/ANDERS~1/LOKALA~1/Temp/ccE9Z8JS.s 			page 8


 204:core/count_sem.c ****       m_os_ena_int();
 193              		.loc 1 204 0
 194 00d4 0098     		ldr	r0, [sp]
 195 00d6 FFF7FEFF 		bl	halRestoreInterrupts_oshal
 196 00da C046     		 nop
 205:core/count_sem.c ****       schedule();
 197              		.loc 1 205 0
 198              		.code	16
 199 00dc FFF7FEFF 		bl	schedule
 206:core/count_sem.c ****       m_os_dis_int();
 200              		.loc 1 206 0
 201 00e0 FFF7FEFF 		bl	halDisableInterrupts_oshal
 202 00e4 0090     		str	r0, [sp]
 203 00e6 C046     		 nop
 204              		.code	16
 205 00e8 02E0     		b	.L16
 206              	.L14:
 207:core/count_sem.c ****     }
 208:core/count_sem.c ****   }
 209:core/count_sem.c ****   else
 210:core/count_sem.c ****   {
 211:core/count_sem.c ****     pSem->cnt++;
 207              		.loc 1 211 0
 208 00ea 238B     		ldrh	r3, [r4, #24]
 209 00ec 0133     		add	r3, r3, #1
 210 00ee 2383     		strh	r3, [r4, #24]
 211              	.L16:
 212:core/count_sem.c ****   }
 213:core/count_sem.c ****   m_os_ena_int();
 212              		.loc 1 213 0
 213 00f0 0098     		ldr	r0, [sp]
 214 00f2 FFF7FEFF 		bl	halRestoreInterrupts_oshal
 215 00f6 C046     		 nop
 216              		.code	16
 217              	.L12:
 214:core/count_sem.c **** }
 218              		.loc 1 214 0
 219 00f8 01B0     		add	sp, sp, #4
 220              		@ sp needed for prologue
 221 00fa 10BC     		pop	{r4}
 222 00fc 01BC     		pop	{r0}
 223 00fe 0047     		bx	r0
 224              	.L18:
 225              		.align	2
 226              	.L17:
 227 0100 00000000 		.word	isrNesting
 228              	.LFE4:
 229              		.size	osSemGive, .-osSemGive
 230              		.align	2
 231              		.global	osSemTryTake
 232              		.code 16
 233              		.thumb_func
 234              		.type	osSemTryTake, %function
 235              	osSemTryTake:
 236              	.LFB5:
 215:core/count_sem.c **** 
 216:core/count_sem.c **** 
ARM GAS  /cygdrive/c/DOCUME~1/ANDERS~1/LOKALA~1/Temp/ccE9Z8JS.s 			page 9


 217:core/count_sem.c **** /*****************************************************************************
 218:core/count_sem.c ****  *
 219:core/count_sem.c ****  * Description:
 220:core/count_sem.c ****  *    This function tries to take a counting semaphore. If the semaphore 
 221:core/count_sem.c ****  *    cannot be taken the function immediately returns instead of blocking. 
 222:core/count_sem.c ****  *    This function can be used from an ISR (interrupt service routine). 
 223:core/count_sem.c ****  *
 224:core/count_sem.c ****  * Params:
 225:core/count_sem.c ****  *    [in]  pSem   - A pointer to an initialized semaphore structure. 
 226:core/count_sem.c ****  *    [out] pError - The return status of the function. 
 227:core/count_sem.c ****  *
 228:core/count_sem.c ****  * Returns:
 229:core/count_sem.c ****  *    0 if the semaphore was taken, else 1. 
 230:core/count_sem.c ****  *
 231:core/count_sem.c ****  * Error codes:
 232:core/count_sem.c ****  *    OS_OK         - The function completed successfully. 
 233:core/count_sem.c ****  *    OS_ERROR_NULL - A NULL pointer was supplied to the function where it was 
 234:core/count_sem.c ****  *                    not allowed. 
 235:core/count_sem.c ****  *
 236:core/count_sem.c ****  ****************************************************************************/
 237:core/count_sem.c **** tU8
 238:core/count_sem.c **** osSemTryTake(tCntSem* pSem,
 239:core/count_sem.c ****              tU8*     pError)
 240:core/count_sem.c **** {
 237              		.loc 1 240 0
 238 0104 10B5     		push	{r4, lr}
 239              	.LCFI5:
 241:core/count_sem.c ****   tU8 ret;
 242:core/count_sem.c ****   volatile tSR localSR;  /* declare temporary local space for status word */
 243:core/count_sem.c **** 
 244:core/count_sem.c ****   *pError = OS_OK;
 240              		.loc 1 244 0
 241 0106 0023     		mov	r3, #0
 242              		.loc 1 240 0
 243 0108 81B0     		sub	sp, sp, #4
 244              	.LCFI6:
 245              		.loc 1 244 0
 246 010a 0B70     		strb	r3, [r1]
 245:core/count_sem.c ****   if(pSem == NULL)
 247              		.loc 1 245 0
 248 010c 041E     		sub	r4, r0, #0
 249 010e 03D1     		bne	.L20
 246:core/count_sem.c ****   {
 247:core/count_sem.c ****     *pError = OS_ERROR_NULL;
 250              		.loc 1 247 0
 251 0110 0123     		mov	r3, #1
 248:core/count_sem.c **** 
 249:core/count_sem.c ****     return 1;
 252              		.loc 1 249 0
 253 0112 0120     		mov	r0, #1
 254              		.loc 1 247 0
 255 0114 0B70     		strb	r3, [r1]
 256              		.loc 1 249 0
 257 0116 10E0     		b	.L19
 258              	.L20:
 250:core/count_sem.c ****   }
 251:core/count_sem.c **** 
ARM GAS  /cygdrive/c/DOCUME~1/ANDERS~1/LOKALA~1/Temp/ccE9Z8JS.s 			page 10


 252:core/count_sem.c ****   m_os_dis_int();
 259              		.loc 1 252 0
 260 0118 FFF7FEFF 		bl	halDisableInterrupts_oshal
 261 011c 0090     		str	r0, [sp]
 262 011e C046     		 nop
 253:core/count_sem.c ****   if(pSem->cnt > 0)
 263              		.loc 1 253 0
 264              		.code	16
 265 0120 228B     		ldrh	r2, [r4, #24]
 266 0122 002A     		cmp	r2, #0
 267 0124 03D0     		beq	.L21
 254:core/count_sem.c ****   {
 255:core/count_sem.c ****     pSem->cnt--;
 268              		.loc 1 255 0
 269 0126 531E     		sub	r3, r2, #1
 270 0128 2383     		strh	r3, [r4, #24]
 256:core/count_sem.c ****     ret = 0;
 271              		.loc 1 256 0
 272 012a 0024     		mov	r4, #0
 273 012c 00E0     		b	.L22
 274              	.L21:
 257:core/count_sem.c ****   }
 258:core/count_sem.c ****   else
 259:core/count_sem.c ****   {
 260:core/count_sem.c ****     ret = 1;
 275              		.loc 1 260 0
 276 012e 0124     		mov	r4, #1
 277              	.L22:
 261:core/count_sem.c ****   }
 262:core/count_sem.c ****   m_os_ena_int();
 278              		.loc 1 262 0
 279 0130 0098     		ldr	r0, [sp]
 280 0132 FFF7FEFF 		bl	halRestoreInterrupts_oshal
 281 0136 C046     		 nop
 263:core/count_sem.c ****   return ret;
 282              		.loc 1 263 0
 283              		.code	16
 284 0138 201C     		mov	r0, r4
 285              	.L19:
 264:core/count_sem.c **** }
 286              		.loc 1 264 0
 287 013a 01B0     		add	sp, sp, #4
 288              		@ sp needed for prologue
 289 013c 10BC     		pop	{r4}
 290 013e 02BC     		pop	{r1}
 291 0140 0847     		bx	r1
 292              	.LFE5:
 293              		.size	osSemTryTake, .-osSemTryTake
 294              		.section	.debug_frame,"",%progbits
 295              	.Lframe0:
 296 0000 0C000000 		.4byte	.LECIE0-.LSCIE0
 297              	.LSCIE0:
 298 0004 FFFFFFFF 		.4byte	0xffffffff
 299 0008 01       		.byte	0x1
 300 0009 00       		.ascii	"\000"
 301 000a 01       		.uleb128 0x1
 302 000b 7C       		.sleb128 -4
ARM GAS  /cygdrive/c/DOCUME~1/ANDERS~1/LOKALA~1/Temp/ccE9Z8JS.s 			page 11


 303 000c 0E       		.byte	0xe
 304 000d 0C       		.byte	0xc
 305 000e 0D       		.uleb128 0xd
 306 000f 00       		.uleb128 0x0
 307              		.align	2
 308              	.LECIE0:
 309              	.LSFDE0:
 310 0010 18000000 		.4byte	.LEFDE0-.LASFDE0
 311              	.LASFDE0:
 312 0014 00000000 		.4byte	.Lframe0
 313 0018 00000000 		.4byte	.LFB2
 314 001c 14000000 		.4byte	.LFE2-.LFB2
 315 0020 42       		.byte	0x4
 316              		.4byte	.LCFI0-.LFB2
 317 0021 0E       		.byte	0xe
 318 0022 0C       		.uleb128 0xc
 319 0023 84       		.byte	0x84
 320 0024 03       		.uleb128 0x3
 321 0025 85       		.byte	0x85
 322 0026 02       		.uleb128 0x2
 323 0027 8E       		.byte	0x8e
 324 0028 01       		.uleb128 0x1
 325 0029 000000   		.align	2
 326              	.LEFDE0:
 327              	.LSFDE2:
 328 002c 1C000000 		.4byte	.LEFDE2-.LASFDE2
 329              	.LASFDE2:
 330 0030 00000000 		.4byte	.Lframe0
 331 0034 14000000 		.4byte	.LFB3
 332 0038 8C000000 		.4byte	.LFE3-.LFB3
 333 003c 42       		.byte	0x4
 334              		.4byte	.LCFI1-.LFB3
 335 003d 0E       		.byte	0xe
 336 003e 10       		.uleb128 0x10
 337 003f 84       		.byte	0x84
 338 0040 04       		.uleb128 0x4
 339 0041 85       		.byte	0x85
 340 0042 03       		.uleb128 0x3
 341 0043 86       		.byte	0x86
 342 0044 02       		.uleb128 0x2
 343 0045 8E       		.byte	0x8e
 344 0046 01       		.uleb128 0x1
 345 0047 44       		.byte	0x4
 346              		.4byte	.LCFI2-.LCFI1
 347 0048 0E       		.byte	0xe
 348 0049 14       		.uleb128 0x14
 349 004a 0000     		.align	2
 350              	.LEFDE2:
 351              	.LSFDE4:
 352 004c 18000000 		.4byte	.LEFDE4-.LASFDE4
 353              	.LASFDE4:
 354 0050 00000000 		.4byte	.Lframe0
 355 0054 A0000000 		.4byte	.LFB4
 356 0058 64000000 		.4byte	.LFE4-.LFB4
 357 005c 42       		.byte	0x4
 358              		.4byte	.LCFI3-.LFB4
 359 005d 0E       		.byte	0xe
ARM GAS  /cygdrive/c/DOCUME~1/ANDERS~1/LOKALA~1/Temp/ccE9Z8JS.s 			page 12


 360 005e 08       		.uleb128 0x8
 361 005f 84       		.byte	0x84
 362 0060 02       		.uleb128 0x2
 363 0061 8E       		.byte	0x8e
 364 0062 01       		.uleb128 0x1
 365 0063 44       		.byte	0x4
 366              		.4byte	.LCFI4-.LCFI3
 367 0064 0E       		.byte	0xe
 368 0065 0C       		.uleb128 0xc
 369 0066 0000     		.align	2
 370              	.LEFDE4:
 371              	.LSFDE6:
 372 0068 18000000 		.4byte	.LEFDE6-.LASFDE6
 373              	.LASFDE6:
 374 006c 00000000 		.4byte	.Lframe0
 375 0070 04010000 		.4byte	.LFB5
 376 0074 3E000000 		.4byte	.LFE5-.LFB5
 377 0078 42       		.byte	0x4
 378              		.4byte	.LCFI5-.LFB5
 379 0079 0E       		.byte	0xe
 380 007a 08       		.uleb128 0x8
 381 007b 84       		.byte	0x84
 382 007c 02       		.uleb128 0x2
 383 007d 8E       		.byte	0x8e
 384 007e 01       		.uleb128 0x1
 385 007f 44       		.byte	0x4
 386              		.4byte	.LCFI6-.LCFI5
 387 0080 0E       		.byte	0xe
 388 0081 0C       		.uleb128 0xc
 389 0082 0000     		.align	2
 390              	.LEFDE6:
 391              		.file 2 "core/count_sem.h"
 392              		.file 3 "core/event.h"
 393              		.file 4 "core/prioqueue.h"
 394              		.file 5 "core/pcb.h"
 395              		.file 6 "core/../api/general.h"
 396              		.file 7 "core/kernel.h"
 397              		.text
 398              	.Letext0:
 399 0142 C046     		.section	.debug_info
 400 0000 27030000 		.4byte	0x327
 401 0004 0200     		.2byte	0x2
 402 0006 00000000 		.4byte	.Ldebug_abbrev0
 403 000a 04       		.byte	0x4
 404 000b 01       		.uleb128 0x1
 405 000c 00000000 		.4byte	.Ldebug_line0
 406 0010 42010000 		.4byte	.Letext0
 407 0014 00000000 		.4byte	.Ltext0
 408 0018 08000000 		.4byte	.LASF41
 409 001c 01       		.byte	0x1
 410 001d 5B000000 		.4byte	.LASF42
 411 0021 37010000 		.4byte	.LASF43
 412 0025 02       		.uleb128 0x2
 413 0026 74553800 		.ascii	"tU8\000"
 414 002a 06       		.byte	0x6
 415 002b 47       		.byte	0x47
 416 002c 30000000 		.4byte	0x30
ARM GAS  /cygdrive/c/DOCUME~1/ANDERS~1/LOKALA~1/Temp/ccE9Z8JS.s 			page 13


 417 0030 03       		.uleb128 0x3
 418 0031 3B000000 		.4byte	.LASF1
 419 0035 01       		.byte	0x1
 420 0036 08       		.byte	0x8
 421 0037 04       		.uleb128 0x4
 422 0038 F7010000 		.4byte	.LASF0
 423 003c 06       		.byte	0x6
 424 003d 48       		.byte	0x48
 425 003e 42000000 		.4byte	0x42
 426 0042 03       		.uleb128 0x3
 427 0043 7E000000 		.4byte	.LASF2
 428 0047 02       		.byte	0x2
 429 0048 07       		.byte	0x7
 430 0049 04       		.uleb128 0x4
 431 004a FC010000 		.4byte	.LASF3
 432 004e 06       		.byte	0x6
 433 004f 49       		.byte	0x49
 434 0050 54000000 		.4byte	0x54
 435 0054 03       		.uleb128 0x3
 436 0055 10010000 		.4byte	.LASF4
 437 0059 04       		.byte	0x4
 438 005a 07       		.byte	0x7
 439 005b 03       		.uleb128 0x3
 440 005c 43020000 		.4byte	.LASF5
 441 0060 01       		.byte	0x1
 442 0061 06       		.byte	0x6
 443 0062 03       		.uleb128 0x3
 444 0063 29000000 		.4byte	.LASF6
 445 0067 02       		.byte	0x2
 446 0068 05       		.byte	0x5
 447 0069 05       		.uleb128 0x5
 448 006a 696E7400 		.ascii	"int\000"
 449 006e 04       		.byte	0x4
 450 006f 05       		.byte	0x5
 451 0070 04       		.uleb128 0x4
 452 0071 55020000 		.4byte	.LASF7
 453 0075 06       		.byte	0x6
 454 0076 4D       		.byte	0x4d
 455 0077 30000000 		.4byte	0x30
 456 007b 06       		.uleb128 0x6
 457 007c 30010000 		.4byte	0x130
 458 0080 B9000000 		.4byte	.LASF20
 459 0084 28       		.byte	0x28
 460 0085 05       		.byte	0x5
 461 0086 4D       		.byte	0x4d
 462 0087 07       		.uleb128 0x7
 463 0088 EB000000 		.4byte	.LASF8
 464 008c 05       		.byte	0x5
 465 008d 4E       		.byte	0x4e
 466 008e 30010000 		.4byte	0x130
 467 0092 02       		.byte	0x2
 468 0093 23       		.byte	0x23
 469 0094 00       		.uleb128 0x0
 470 0095 07       		.uleb128 0x7
 471 0096 D7000000 		.4byte	.LASF9
 472 009a 05       		.byte	0x5
 473 009b 4F       		.byte	0x4f
ARM GAS  /cygdrive/c/DOCUME~1/ANDERS~1/LOKALA~1/Temp/ccE9Z8JS.s 			page 14


 474 009c 36010000 		.4byte	0x136
 475 00a0 02       		.byte	0x2
 476 00a1 23       		.byte	0x23
 477 00a2 04       		.uleb128 0x4
 478 00a3 07       		.uleb128 0x7
 479 00a4 91000000 		.4byte	.LASF10
 480 00a8 05       		.byte	0x5
 481 00a9 50       		.byte	0x50
 482 00aa 36010000 		.4byte	0x136
 483 00ae 02       		.byte	0x2
 484 00af 23       		.byte	0x23
 485 00b0 08       		.uleb128 0x8
 486 00b1 07       		.uleb128 0x7
 487 00b2 FC000000 		.4byte	.LASF11
 488 00b6 05       		.byte	0x5
 489 00b7 51       		.byte	0x51
 490 00b8 36010000 		.4byte	0x136
 491 00bc 02       		.byte	0x2
 492 00bd 23       		.byte	0x23
 493 00be 0C       		.uleb128 0xc
 494 00bf 07       		.uleb128 0x7
 495 00c0 C3000000 		.4byte	.LASF12
 496 00c4 05       		.byte	0x5
 497 00c5 52       		.byte	0x52
 498 00c6 36010000 		.4byte	0x136
 499 00ca 02       		.byte	0x2
 500 00cb 23       		.byte	0x23
 501 00cc 10       		.uleb128 0x10
 502 00cd 07       		.uleb128 0x7
 503 00ce 34020000 		.4byte	.LASF13
 504 00d2 05       		.byte	0x5
 505 00d3 53       		.byte	0x53
 506 00d4 36010000 		.4byte	0x136
 507 00d8 02       		.byte	0x2
 508 00d9 23       		.byte	0x23
 509 00da 14       		.uleb128 0x14
 510 00db 08       		.uleb128 0x8
 511 00dc 70696400 		.ascii	"pid\000"
 512 00e0 05       		.byte	0x5
 513 00e1 54       		.byte	0x54
 514 00e2 25000000 		.4byte	0x25
 515 00e6 02       		.byte	0x2
 516 00e7 23       		.byte	0x23
 517 00e8 18       		.uleb128 0x18
 518 00e9 07       		.uleb128 0x7
 519 00ea 2F020000 		.4byte	.LASF14
 520 00ee 05       		.byte	0x5
 521 00ef 55       		.byte	0x55
 522 00f0 25000000 		.4byte	0x25
 523 00f4 02       		.byte	0x2
 524 00f5 23       		.byte	0x23
 525 00f6 19       		.uleb128 0x19
 526 00f7 07       		.uleb128 0x7
 527 00f8 F0000000 		.4byte	.LASF15
 528 00fc 05       		.byte	0x5
 529 00fd 56       		.byte	0x56
 530 00fe 25000000 		.4byte	0x25
ARM GAS  /cygdrive/c/DOCUME~1/ANDERS~1/LOKALA~1/Temp/ccE9Z8JS.s 			page 15


 531 0102 02       		.byte	0x2
 532 0103 23       		.byte	0x23
 533 0104 1A       		.uleb128 0x1a
 534 0105 07       		.uleb128 0x7
 535 0106 4F020000 		.4byte	.LASF16
 536 010a 05       		.byte	0x5
 537 010b 57       		.byte	0x57
 538 010c 49000000 		.4byte	0x49
 539 0110 02       		.byte	0x2
 540 0111 23       		.byte	0x23
 541 0112 1C       		.uleb128 0x1c
 542 0113 07       		.uleb128 0x7
 543 0114 D7010000 		.4byte	.LASF17
 544 0118 05       		.byte	0x5
 545 0119 5A       		.byte	0x5a
 546 011a 30010000 		.4byte	0x130
 547 011e 02       		.byte	0x2
 548 011f 23       		.byte	0x23
 549 0120 20       		.uleb128 0x20
 550 0121 07       		.uleb128 0x7
 551 0122 1D010000 		.4byte	.LASF18
 552 0126 05       		.byte	0x5
 553 0127 5B       		.byte	0x5b
 554 0128 37000000 		.4byte	0x37
 555 012c 02       		.byte	0x2
 556 012d 23       		.byte	0x23
 557 012e 24       		.uleb128 0x24
 558 012f 00       		.byte	0x0
 559 0130 09       		.uleb128 0x9
 560 0131 04       		.byte	0x4
 561 0132 25000000 		.4byte	0x25
 562 0136 09       		.uleb128 0x9
 563 0137 04       		.byte	0x4
 564 0138 7B000000 		.4byte	0x7b
 565 013c 04       		.uleb128 0x4
 566 013d 49000000 		.4byte	.LASF19
 567 0141 05       		.byte	0x5
 568 0142 5D       		.byte	0x5d
 569 0143 7B000000 		.4byte	0x7b
 570 0147 06       		.uleb128 0x6
 571 0148 70010000 		.4byte	0x170
 572 014c EA010000 		.4byte	.LASF21
 573 0150 18       		.byte	0x18
 574 0151 04       		.byte	0x4
 575 0152 49       		.byte	0x49
 576 0153 07       		.uleb128 0x7
 577 0154 AF000000 		.4byte	.LASF22
 578 0158 04       		.byte	0x4
 579 0159 4A       		.byte	0x4a
 580 015a 70010000 		.4byte	0x170
 581 015e 02       		.byte	0x2
 582 015f 23       		.byte	0x23
 583 0160 00       		.uleb128 0x0
 584 0161 07       		.uleb128 0x7
 585 0162 1E000000 		.4byte	.LASF23
 586 0166 04       		.byte	0x4
 587 0167 4B       		.byte	0x4b
ARM GAS  /cygdrive/c/DOCUME~1/ANDERS~1/LOKALA~1/Temp/ccE9Z8JS.s 			page 16


 588 0168 87010000 		.4byte	0x187
 589 016c 02       		.byte	0x2
 590 016d 23       		.byte	0x23
 591 016e 14       		.uleb128 0x14
 592 016f 00       		.byte	0x0
 593 0170 0A       		.uleb128 0xa
 594 0171 80010000 		.4byte	0x180
 595 0175 87010000 		.4byte	0x187
 596 0179 0B       		.uleb128 0xb
 597 017a 80010000 		.4byte	0x180
 598 017e 04       		.byte	0x4
 599 017f 00       		.byte	0x0
 600 0180 03       		.uleb128 0x3
 601 0181 6C000000 		.4byte	.LASF24
 602 0185 04       		.byte	0x4
 603 0186 07       		.byte	0x7
 604 0187 09       		.uleb128 0x9
 605 0188 04       		.byte	0x4
 606 0189 3C010000 		.4byte	0x13c
 607 018d 04       		.uleb128 0x4
 608 018e 50000000 		.4byte	.LASF25
 609 0192 04       		.byte	0x4
 610 0193 4C       		.byte	0x4c
 611 0194 47010000 		.4byte	0x147
 612 0198 06       		.uleb128 0x6
 613 0199 B3010000 		.4byte	0x1b3
 614 019d 12020000 		.4byte	.LASF26
 615 01a1 18       		.byte	0x18
 616 01a2 03       		.byte	0x3
 617 01a3 46       		.byte	0x46
 618 01a4 07       		.uleb128 0x7
 619 01a5 31010000 		.4byte	.LASF27
 620 01a9 03       		.byte	0x3
 621 01aa 47       		.byte	0x47
 622 01ab 8D010000 		.4byte	0x18d
 623 01af 02       		.byte	0x2
 624 01b0 23       		.byte	0x23
 625 01b1 00       		.uleb128 0x0
 626 01b2 00       		.byte	0x0
 627 01b3 04       		.uleb128 0x4
 628 01b4 09020000 		.4byte	.LASF28
 629 01b8 03       		.byte	0x3
 630 01b9 48       		.byte	0x48
 631 01ba 98010000 		.4byte	0x198
 632 01be 06       		.uleb128 0x6
 633 01bf E6010000 		.4byte	0x1e6
 634 01c3 14000000 		.4byte	.LASF29
 635 01c7 1C       		.byte	0x1c
 636 01c8 02       		.byte	0x2
 637 01c9 45       		.byte	0x45
 638 01ca 08       		.uleb128 0x8
 639 01cb 657600   		.ascii	"ev\000"
 640 01ce 02       		.byte	0x2
 641 01cf 46       		.byte	0x46
 642 01d0 B3010000 		.4byte	0x1b3
 643 01d4 02       		.byte	0x2
 644 01d5 23       		.byte	0x23
ARM GAS  /cygdrive/c/DOCUME~1/ANDERS~1/LOKALA~1/Temp/ccE9Z8JS.s 			page 17


 645 01d6 00       		.uleb128 0x0
 646 01d7 08       		.uleb128 0x8
 647 01d8 636E7400 		.ascii	"cnt\000"
 648 01dc 02       		.byte	0x2
 649 01dd 47       		.byte	0x47
 650 01de 37000000 		.4byte	0x37
 651 01e2 02       		.byte	0x2
 652 01e3 23       		.byte	0x23
 653 01e4 18       		.uleb128 0x18
 654 01e5 00       		.byte	0x0
 655 01e6 04       		.uleb128 0x4
 656 01e7 00000000 		.4byte	.LASF30
 657 01eb 02       		.byte	0x2
 658 01ec 49       		.byte	0x49
 659 01ed BE010000 		.4byte	0x1be
 660 01f1 0C       		.uleb128 0xc
 661 01f2 23020000 		.4byte	0x223
 662 01f6 01       		.byte	0x1
 663 01f7 1D020000 		.4byte	.LASF33
 664 01fb 01       		.byte	0x1
 665 01fc 58       		.byte	0x58
 666 01fd 01       		.byte	0x1
 667 01fe 00000000 		.4byte	.LFB2
 668 0202 14000000 		.4byte	.LFE2
 669 0206 01       		.byte	0x1
 670 0207 5D       		.byte	0x5d
 671 0208 0D       		.uleb128 0xd
 672 0209 24000000 		.4byte	.LASF31
 673 020d 01       		.byte	0x1
 674 020e 56       		.byte	0x56
 675 020f 23020000 		.4byte	0x223
 676 0213 01       		.byte	0x1
 677 0214 55       		.byte	0x55
 678 0215 0D       		.uleb128 0xd
 679 0216 27020000 		.4byte	.LASF32
 680 021a 01       		.byte	0x1
 681 021b 57       		.byte	0x57
 682 021c 37000000 		.4byte	0x37
 683 0220 01       		.byte	0x1
 684 0221 54       		.byte	0x54
 685 0222 00       		.byte	0x0
 686 0223 09       		.uleb128 0x9
 687 0224 04       		.byte	0x4
 688 0225 E6010000 		.4byte	0x1e6
 689 0229 0E       		.uleb128 0xe
 690 022a 87020000 		.4byte	0x287
 691 022e 01       		.byte	0x1
 692 022f 27010000 		.4byte	.LASF34
 693 0233 01       		.byte	0x1
 694 0234 7A       		.byte	0x7a
 695 0235 01       		.byte	0x1
 696 0236 70000000 		.4byte	0x70
 697 023a 14000000 		.4byte	.LFB3
 698 023e A0000000 		.4byte	.LFE3
 699 0242 01       		.byte	0x1
 700 0243 5D       		.byte	0x5d
 701 0244 0D       		.uleb128 0xd
ARM GAS  /cygdrive/c/DOCUME~1/ANDERS~1/LOKALA~1/Temp/ccE9Z8JS.s 			page 18


 702 0245 24000000 		.4byte	.LASF31
 703 0249 01       		.byte	0x1
 704 024a 77       		.byte	0x77
 705 024b 23020000 		.4byte	0x223
 706 024f 01       		.byte	0x1
 707 0250 54       		.byte	0x54
 708 0251 0D       		.uleb128 0xd
 709 0252 01020000 		.4byte	.LASF35
 710 0256 01       		.byte	0x1
 711 0257 78       		.byte	0x78
 712 0258 49000000 		.4byte	0x49
 713 025c 01       		.byte	0x1
 714 025d 56       		.byte	0x56
 715 025e 0D       		.uleb128 0xd
 716 025f F5000000 		.4byte	.LASF36
 717 0263 01       		.byte	0x1
 718 0264 79       		.byte	0x79
 719 0265 30010000 		.4byte	0x130
 720 0269 01       		.byte	0x1
 721 026a 55       		.byte	0x55
 722 026b 0F       		.uleb128 0xf
 723 026c 72657400 		.ascii	"ret\000"
 724 0270 01       		.byte	0x1
 725 0271 7B       		.byte	0x7b
 726 0272 25000000 		.4byte	0x25
 727 0276 01       		.byte	0x1
 728 0277 50       		.byte	0x50
 729 0278 10       		.uleb128 0x10
 730 0279 33000000 		.4byte	.LASF37
 731 027d 01       		.byte	0x1
 732 027e 7C       		.byte	0x7c
 733 027f 87020000 		.4byte	0x287
 734 0283 02       		.byte	0x2
 735 0284 91       		.byte	0x91
 736 0285 00       		.sleb128 0
 737 0286 00       		.byte	0x0
 738 0287 11       		.uleb128 0x11
 739 0288 49000000 		.4byte	0x49
 740 028c 0C       		.uleb128 0xc
 741 028d CC020000 		.4byte	0x2cc
 742 0291 01       		.byte	0x1
 743 0292 A5000000 		.4byte	.LASF38
 744 0296 01       		.byte	0x1
 745 0297 BA       		.byte	0xba
 746 0298 01       		.byte	0x1
 747 0299 A0000000 		.4byte	.LFB4
 748 029d 04010000 		.4byte	.LFE4
 749 02a1 01       		.byte	0x1
 750 02a2 5D       		.byte	0x5d
 751 02a3 0D       		.uleb128 0xd
 752 02a4 24000000 		.4byte	.LASF31
 753 02a8 01       		.byte	0x1
 754 02a9 B8       		.byte	0xb8
 755 02aa 23020000 		.4byte	0x223
 756 02ae 01       		.byte	0x1
 757 02af 54       		.byte	0x54
 758 02b0 0D       		.uleb128 0xd
ARM GAS  /cygdrive/c/DOCUME~1/ANDERS~1/LOKALA~1/Temp/ccE9Z8JS.s 			page 19


 759 02b1 F5000000 		.4byte	.LASF36
 760 02b5 01       		.byte	0x1
 761 02b6 B9       		.byte	0xb9
 762 02b7 30010000 		.4byte	0x130
 763 02bb 01       		.byte	0x1
 764 02bc 51       		.byte	0x51
 765 02bd 10       		.uleb128 0x10
 766 02be 33000000 		.4byte	.LASF37
 767 02c2 01       		.byte	0x1
 768 02c3 BB       		.byte	0xbb
 769 02c4 87020000 		.4byte	0x287
 770 02c8 02       		.byte	0x2
 771 02c9 91       		.byte	0x91
 772 02ca 00       		.sleb128 0
 773 02cb 00       		.byte	0x0
 774 02cc 0E       		.uleb128 0xe
 775 02cd 1D030000 		.4byte	0x31d
 776 02d1 01       		.byte	0x1
 777 02d2 CA010000 		.4byte	.LASF39
 778 02d6 01       		.byte	0x1
 779 02d7 F0       		.byte	0xf0
 780 02d8 01       		.byte	0x1
 781 02d9 25000000 		.4byte	0x25
 782 02dd 04010000 		.4byte	.LFB5
 783 02e1 42010000 		.4byte	.LFE5
 784 02e5 01       		.byte	0x1
 785 02e6 5D       		.byte	0x5d
 786 02e7 0D       		.uleb128 0xd
 787 02e8 24000000 		.4byte	.LASF31
 788 02ec 01       		.byte	0x1
 789 02ed EE       		.byte	0xee
 790 02ee 23020000 		.4byte	0x223
 791 02f2 01       		.byte	0x1
 792 02f3 54       		.byte	0x54
 793 02f4 0D       		.uleb128 0xd
 794 02f5 F5000000 		.4byte	.LASF36
 795 02f9 01       		.byte	0x1
 796 02fa EF       		.byte	0xef
 797 02fb 30010000 		.4byte	0x130
 798 02ff 01       		.byte	0x1
 799 0300 51       		.byte	0x51
 800 0301 0F       		.uleb128 0xf
 801 0302 72657400 		.ascii	"ret\000"
 802 0306 01       		.byte	0x1
 803 0307 F1       		.byte	0xf1
 804 0308 25000000 		.4byte	0x25
 805 030c 01       		.byte	0x1
 806 030d 54       		.byte	0x54
 807 030e 10       		.uleb128 0x10
 808 030f 33000000 		.4byte	.LASF37
 809 0313 01       		.byte	0x1
 810 0314 F2       		.byte	0xf2
 811 0315 87020000 		.4byte	0x287
 812 0319 02       		.byte	0x2
 813 031a 91       		.byte	0x91
 814 031b 00       		.sleb128 0
 815 031c 00       		.byte	0x0
ARM GAS  /cygdrive/c/DOCUME~1/ANDERS~1/LOKALA~1/Temp/ccE9Z8JS.s 			page 20


 816 031d 12       		.uleb128 0x12
 817 031e DF010000 		.4byte	.LASF40
 818 0322 07       		.byte	0x7
 819 0323 4F       		.byte	0x4f
 820 0324 25000000 		.4byte	0x25
 821 0328 01       		.byte	0x1
 822 0329 01       		.byte	0x1
 823 032a 00       		.byte	0x0
 824              		.section	.debug_abbrev
 825 0000 01       		.uleb128 0x1
 826 0001 11       		.uleb128 0x11
 827 0002 01       		.byte	0x1
 828 0003 10       		.uleb128 0x10
 829 0004 06       		.uleb128 0x6
 830 0005 12       		.uleb128 0x12
 831 0006 01       		.uleb128 0x1
 832 0007 11       		.uleb128 0x11
 833 0008 01       		.uleb128 0x1
 834 0009 25       		.uleb128 0x25
 835 000a 0E       		.uleb128 0xe
 836 000b 13       		.uleb128 0x13
 837 000c 0B       		.uleb128 0xb
 838 000d 03       		.uleb128 0x3
 839 000e 0E       		.uleb128 0xe
 840 000f 1B       		.uleb128 0x1b
 841 0010 0E       		.uleb128 0xe
 842 0011 00       		.byte	0x0
 843 0012 00       		.byte	0x0
 844 0013 02       		.uleb128 0x2
 845 0014 16       		.uleb128 0x16
 846 0015 00       		.byte	0x0
 847 0016 03       		.uleb128 0x3
 848 0017 08       		.uleb128 0x8
 849 0018 3A       		.uleb128 0x3a
 850 0019 0B       		.uleb128 0xb
 851 001a 3B       		.uleb128 0x3b
 852 001b 0B       		.uleb128 0xb
 853 001c 49       		.uleb128 0x49
 854 001d 13       		.uleb128 0x13
 855 001e 00       		.byte	0x0
 856 001f 00       		.byte	0x0
 857 0020 03       		.uleb128 0x3
 858 0021 24       		.uleb128 0x24
 859 0022 00       		.byte	0x0
 860 0023 03       		.uleb128 0x3
 861 0024 0E       		.uleb128 0xe
 862 0025 0B       		.uleb128 0xb
 863 0026 0B       		.uleb128 0xb
 864 0027 3E       		.uleb128 0x3e
 865 0028 0B       		.uleb128 0xb
 866 0029 00       		.byte	0x0
 867 002a 00       		.byte	0x0
 868 002b 04       		.uleb128 0x4
 869 002c 16       		.uleb128 0x16
 870 002d 00       		.byte	0x0
 871 002e 03       		.uleb128 0x3
 872 002f 0E       		.uleb128 0xe
ARM GAS  /cygdrive/c/DOCUME~1/ANDERS~1/LOKALA~1/Temp/ccE9Z8JS.s 			page 21


 873 0030 3A       		.uleb128 0x3a
 874 0031 0B       		.uleb128 0xb
 875 0032 3B       		.uleb128 0x3b
 876 0033 0B       		.uleb128 0xb
 877 0034 49       		.uleb128 0x49
 878 0035 13       		.uleb128 0x13
 879 0036 00       		.byte	0x0
 880 0037 00       		.byte	0x0
 881 0038 05       		.uleb128 0x5
 882 0039 24       		.uleb128 0x24
 883 003a 00       		.byte	0x0
 884 003b 03       		.uleb128 0x3
 885 003c 08       		.uleb128 0x8
 886 003d 0B       		.uleb128 0xb
 887 003e 0B       		.uleb128 0xb
 888 003f 3E       		.uleb128 0x3e
 889 0040 0B       		.uleb128 0xb
 890 0041 00       		.byte	0x0
 891 0042 00       		.byte	0x0
 892 0043 06       		.uleb128 0x6
 893 0044 13       		.uleb128 0x13
 894 0045 01       		.byte	0x1
 895 0046 01       		.uleb128 0x1
 896 0047 13       		.uleb128 0x13
 897 0048 03       		.uleb128 0x3
 898 0049 0E       		.uleb128 0xe
 899 004a 0B       		.uleb128 0xb
 900 004b 0B       		.uleb128 0xb
 901 004c 3A       		.uleb128 0x3a
 902 004d 0B       		.uleb128 0xb
 903 004e 3B       		.uleb128 0x3b
 904 004f 0B       		.uleb128 0xb
 905 0050 00       		.byte	0x0
 906 0051 00       		.byte	0x0
 907 0052 07       		.uleb128 0x7
 908 0053 0D       		.uleb128 0xd
 909 0054 00       		.byte	0x0
 910 0055 03       		.uleb128 0x3
 911 0056 0E       		.uleb128 0xe
 912 0057 3A       		.uleb128 0x3a
 913 0058 0B       		.uleb128 0xb
 914 0059 3B       		.uleb128 0x3b
 915 005a 0B       		.uleb128 0xb
 916 005b 49       		.uleb128 0x49
 917 005c 13       		.uleb128 0x13
 918 005d 38       		.uleb128 0x38
 919 005e 0A       		.uleb128 0xa
 920 005f 00       		.byte	0x0
 921 0060 00       		.byte	0x0
 922 0061 08       		.uleb128 0x8
 923 0062 0D       		.uleb128 0xd
 924 0063 00       		.byte	0x0
 925 0064 03       		.uleb128 0x3
 926 0065 08       		.uleb128 0x8
 927 0066 3A       		.uleb128 0x3a
 928 0067 0B       		.uleb128 0xb
 929 0068 3B       		.uleb128 0x3b
ARM GAS  /cygdrive/c/DOCUME~1/ANDERS~1/LOKALA~1/Temp/ccE9Z8JS.s 			page 22


 930 0069 0B       		.uleb128 0xb
 931 006a 49       		.uleb128 0x49
 932 006b 13       		.uleb128 0x13
 933 006c 38       		.uleb128 0x38
 934 006d 0A       		.uleb128 0xa
 935 006e 00       		.byte	0x0
 936 006f 00       		.byte	0x0
 937 0070 09       		.uleb128 0x9
 938 0071 0F       		.uleb128 0xf
 939 0072 00       		.byte	0x0
 940 0073 0B       		.uleb128 0xb
 941 0074 0B       		.uleb128 0xb
 942 0075 49       		.uleb128 0x49
 943 0076 13       		.uleb128 0x13
 944 0077 00       		.byte	0x0
 945 0078 00       		.byte	0x0
 946 0079 0A       		.uleb128 0xa
 947 007a 01       		.uleb128 0x1
 948 007b 01       		.byte	0x1
 949 007c 01       		.uleb128 0x1
 950 007d 13       		.uleb128 0x13
 951 007e 49       		.uleb128 0x49
 952 007f 13       		.uleb128 0x13
 953 0080 00       		.byte	0x0
 954 0081 00       		.byte	0x0
 955 0082 0B       		.uleb128 0xb
 956 0083 21       		.uleb128 0x21
 957 0084 00       		.byte	0x0
 958 0085 49       		.uleb128 0x49
 959 0086 13       		.uleb128 0x13
 960 0087 2F       		.uleb128 0x2f
 961 0088 0B       		.uleb128 0xb
 962 0089 00       		.byte	0x0
 963 008a 00       		.byte	0x0
 964 008b 0C       		.uleb128 0xc
 965 008c 2E       		.uleb128 0x2e
 966 008d 01       		.byte	0x1
 967 008e 01       		.uleb128 0x1
 968 008f 13       		.uleb128 0x13
 969 0090 3F       		.uleb128 0x3f
 970 0091 0C       		.uleb128 0xc
 971 0092 03       		.uleb128 0x3
 972 0093 0E       		.uleb128 0xe
 973 0094 3A       		.uleb128 0x3a
 974 0095 0B       		.uleb128 0xb
 975 0096 3B       		.uleb128 0x3b
 976 0097 0B       		.uleb128 0xb
 977 0098 27       		.uleb128 0x27
 978 0099 0C       		.uleb128 0xc
 979 009a 11       		.uleb128 0x11
 980 009b 01       		.uleb128 0x1
 981 009c 12       		.uleb128 0x12
 982 009d 01       		.uleb128 0x1
 983 009e 40       		.uleb128 0x40
 984 009f 0A       		.uleb128 0xa
 985 00a0 00       		.byte	0x0
 986 00a1 00       		.byte	0x0
ARM GAS  /cygdrive/c/DOCUME~1/ANDERS~1/LOKALA~1/Temp/ccE9Z8JS.s 			page 23


 987 00a2 0D       		.uleb128 0xd
 988 00a3 05       		.uleb128 0x5
 989 00a4 00       		.byte	0x0
 990 00a5 03       		.uleb128 0x3
 991 00a6 0E       		.uleb128 0xe
 992 00a7 3A       		.uleb128 0x3a
 993 00a8 0B       		.uleb128 0xb
 994 00a9 3B       		.uleb128 0x3b
 995 00aa 0B       		.uleb128 0xb
 996 00ab 49       		.uleb128 0x49
 997 00ac 13       		.uleb128 0x13
 998 00ad 02       		.uleb128 0x2
 999 00ae 0A       		.uleb128 0xa
 1000 00af 00       		.byte	0x0
 1001 00b0 00       		.byte	0x0
 1002 00b1 0E       		.uleb128 0xe
 1003 00b2 2E       		.uleb128 0x2e
 1004 00b3 01       		.byte	0x1
 1005 00b4 01       		.uleb128 0x1
 1006 00b5 13       		.uleb128 0x13
 1007 00b6 3F       		.uleb128 0x3f
 1008 00b7 0C       		.uleb128 0xc
 1009 00b8 03       		.uleb128 0x3
 1010 00b9 0E       		.uleb128 0xe
 1011 00ba 3A       		.uleb128 0x3a
 1012 00bb 0B       		.uleb128 0xb
 1013 00bc 3B       		.uleb128 0x3b
 1014 00bd 0B       		.uleb128 0xb
 1015 00be 27       		.uleb128 0x27
 1016 00bf 0C       		.uleb128 0xc
 1017 00c0 49       		.uleb128 0x49
 1018 00c1 13       		.uleb128 0x13
 1019 00c2 11       		.uleb128 0x11
 1020 00c3 01       		.uleb128 0x1
 1021 00c4 12       		.uleb128 0x12
 1022 00c5 01       		.uleb128 0x1
 1023 00c6 40       		.uleb128 0x40
 1024 00c7 0A       		.uleb128 0xa
 1025 00c8 00       		.byte	0x0
 1026 00c9 00       		.byte	0x0
 1027 00ca 0F       		.uleb128 0xf
 1028 00cb 34       		.uleb128 0x34
 1029 00cc 00       		.byte	0x0
 1030 00cd 03       		.uleb128 0x3
 1031 00ce 08       		.uleb128 0x8
 1032 00cf 3A       		.uleb128 0x3a
 1033 00d0 0B       		.uleb128 0xb
 1034 00d1 3B       		.uleb128 0x3b
 1035 00d2 0B       		.uleb128 0xb
 1036 00d3 49       		.uleb128 0x49
 1037 00d4 13       		.uleb128 0x13
 1038 00d5 02       		.uleb128 0x2
 1039 00d6 0A       		.uleb128 0xa
 1040 00d7 00       		.byte	0x0
 1041 00d8 00       		.byte	0x0
 1042 00d9 10       		.uleb128 0x10
 1043 00da 34       		.uleb128 0x34
ARM GAS  /cygdrive/c/DOCUME~1/ANDERS~1/LOKALA~1/Temp/ccE9Z8JS.s 			page 24


 1044 00db 00       		.byte	0x0
 1045 00dc 03       		.uleb128 0x3
 1046 00dd 0E       		.uleb128 0xe
 1047 00de 3A       		.uleb128 0x3a
 1048 00df 0B       		.uleb128 0xb
 1049 00e0 3B       		.uleb128 0x3b
 1050 00e1 0B       		.uleb128 0xb
 1051 00e2 49       		.uleb128 0x49
 1052 00e3 13       		.uleb128 0x13
 1053 00e4 02       		.uleb128 0x2
 1054 00e5 0A       		.uleb128 0xa
 1055 00e6 00       		.byte	0x0
 1056 00e7 00       		.byte	0x0
 1057 00e8 11       		.uleb128 0x11
 1058 00e9 35       		.uleb128 0x35
 1059 00ea 00       		.byte	0x0
 1060 00eb 49       		.uleb128 0x49
 1061 00ec 13       		.uleb128 0x13
 1062 00ed 00       		.byte	0x0
 1063 00ee 00       		.byte	0x0
 1064 00ef 12       		.uleb128 0x12
 1065 00f0 34       		.uleb128 0x34
 1066 00f1 00       		.byte	0x0
 1067 00f2 03       		.uleb128 0x3
 1068 00f3 0E       		.uleb128 0xe
 1069 00f4 3A       		.uleb128 0x3a
 1070 00f5 0B       		.uleb128 0xb
 1071 00f6 3B       		.uleb128 0x3b
 1072 00f7 0B       		.uleb128 0xb
 1073 00f8 49       		.uleb128 0x49
 1074 00f9 13       		.uleb128 0x13
 1075 00fa 3F       		.uleb128 0x3f
 1076 00fb 0C       		.uleb128 0xc
 1077 00fc 3C       		.uleb128 0x3c
 1078 00fd 0C       		.uleb128 0xc
 1079 00fe 00       		.byte	0x0
 1080 00ff 00       		.byte	0x0
 1081 0100 00       		.byte	0x0
 1082              		.section	.debug_pubnames,"",%progbits
 1083 0000 49000000 		.4byte	0x49
 1084 0004 0200     		.2byte	0x2
 1085 0006 00000000 		.4byte	.Ldebug_info0
 1086 000a 2B030000 		.4byte	0x32b
 1087 000e F1010000 		.4byte	0x1f1
 1088 0012 6F735365 		.ascii	"osSemInit\000"
 1088      6D496E69 
 1088      7400
 1089 001c 29020000 		.4byte	0x229
 1090 0020 6F735365 		.ascii	"osSemTake\000"
 1090      6D54616B 
 1090      6500
 1091 002a 8C020000 		.4byte	0x28c
 1092 002e 6F735365 		.ascii	"osSemGive\000"
 1092      6D476976 
 1092      6500
 1093 0038 CC020000 		.4byte	0x2cc
 1094 003c 6F735365 		.ascii	"osSemTryTake\000"
ARM GAS  /cygdrive/c/DOCUME~1/ANDERS~1/LOKALA~1/Temp/ccE9Z8JS.s 			page 25


 1094      6D547279 
 1094      54616B65 
 1094      00
 1095 0049 00000000 		.4byte	0x0
 1096              		.section	.debug_aranges,"",%progbits
 1097 0000 1C000000 		.4byte	0x1c
 1098 0004 0200     		.2byte	0x2
 1099 0006 00000000 		.4byte	.Ldebug_info0
 1100 000a 04       		.byte	0x4
 1101 000b 00       		.byte	0x0
 1102 000c 0000     		.2byte	0x0
 1103 000e 0000     		.2byte	0x0
 1104 0010 00000000 		.4byte	.Ltext0
 1105 0014 42010000 		.4byte	.Letext0-.Ltext0
 1106 0018 00000000 		.4byte	0x0
 1107 001c 00000000 		.4byte	0x0
 1108              		.section	.debug_str,"MS",%progbits,1
 1109              	.LASF30:
 1110 0000 74436E74 		.ascii	"tCntSem\000"
 1110      53656D00 
 1111              	.LASF41:
 1112 0008 474E5520 		.ascii	"GNU C 3.4.3\000"
 1112      4320332E 
 1112      342E3300 
 1113              	.LASF29:
 1114 0014 5F74436E 		.ascii	"_tCntSem_\000"
 1114      7453656D 
 1114      5F00
 1115              	.LASF23:
 1116 001e 70504342 		.ascii	"pPCBs\000"
 1116      7300
 1117              	.LASF31:
 1118 0024 7053656D 		.ascii	"pSem\000"
 1118      00
 1119              	.LASF6:
 1120 0029 73686F72 		.ascii	"short int\000"
 1120      7420696E 
 1120      7400
 1121              	.LASF37:
 1122 0033 6C6F6361 		.ascii	"localSR\000"
 1122      6C535200 
 1123              	.LASF1:
 1124 003b 756E7369 		.ascii	"unsigned char\000"
 1124      676E6564 
 1124      20636861 
 1124      7200
 1125              	.LASF19:
 1126 0049 744F5350 		.ascii	"tOSPCB\000"
 1126      434200
 1127              	.LASF25:
 1128 0050 74507269 		.ascii	"tPrioQueue\000"
 1128      6F517565 
 1128      756500
 1129              	.LASF42:
 1130 005b 636F7265 		.ascii	"core/count_sem.c\000"
 1130      2F636F75 
 1130      6E745F73 
ARM GAS  /cygdrive/c/DOCUME~1/ANDERS~1/LOKALA~1/Temp/ccE9Z8JS.s 			page 26


 1130      656D2E63 
 1130      00
 1131              	.LASF24:
 1132 006c 6C6F6E67 		.ascii	"long unsigned int\000"
 1132      20756E73 
 1132      69676E65 
 1132      6420696E 
 1132      7400
 1133              	.LASF2:
 1134 007e 73686F72 		.ascii	"short unsigned int\000"
 1134      7420756E 
 1134      7369676E 
 1134      65642069 
 1134      6E7400
 1135              	.LASF10:
 1136 0091 70507265 		.ascii	"pPrevPrioQueueReady\000"
 1136      76507269 
 1136      6F517565 
 1136      75655265 
 1136      61647900 
 1137              	.LASF38:
 1138 00a5 6F735365 		.ascii	"osSemGive\000"
 1138      6D476976 
 1138      6500
 1139              	.LASF22:
 1140 00af 70507269 		.ascii	"pPrioList\000"
 1140      6F4C6973 
 1140      7400
 1141              	.LASF20:
 1142 00b9 5F744F53 		.ascii	"_tOSPCB__\000"
 1142      5043425F 
 1142      5F00
 1143              	.LASF12:
 1144 00c3 70507265 		.ascii	"pPrevPrioQueueEvent\000"
 1144      76507269 
 1144      6F517565 
 1144      75654576 
 1144      656E7400 
 1145              	.LASF9:
 1146 00d7 704E6578 		.ascii	"pNextPrioQueueReady\000"
 1146      74507269 
 1146      6F517565 
 1146      75655265 
 1146      61647900 
 1147              	.LASF8:
 1148 00eb 7053746B 		.ascii	"pStk\000"
 1148      00
 1149              	.LASF15:
 1150 00f0 666C6167 		.ascii	"flag\000"
 1150      00
 1151              	.LASF36:
 1152 00f5 70457272 		.ascii	"pError\000"
 1152      6F7200
 1153              	.LASF11:
 1154 00fc 704E6578 		.ascii	"pNextPrioQueueEvent\000"
 1154      74507269 
 1154      6F517565 
ARM GAS  /cygdrive/c/DOCUME~1/ANDERS~1/LOKALA~1/Temp/ccE9Z8JS.s 			page 27


 1154      75654576 
 1154      656E7400 
 1155              	.LASF4:
 1156 0110 756E7369 		.ascii	"unsigned int\000"
 1156      676E6564 
 1156      20696E74 
 1156      00
 1157              	.LASF18:
 1158 011d 73746163 		.ascii	"stackSize\000"
 1158      6B53697A 
 1158      6500
 1159              	.LASF34:
 1160 0127 6F735365 		.ascii	"osSemTake\000"
 1160      6D54616B 
 1160      6500
 1161              	.LASF27:
 1162 0131 77616974 		.ascii	"waitQ\000"
 1162      5100
 1163              	.LASF43:
 1164 0137 2F637967 		.ascii	"/cygdrive/c/Documents and Settings/Anders Rosvall/M"
 1164      64726976 
 1164      652F632F 
 1164      446F6375 
 1164      6D656E74 
 1165 016a 696E6120 		.ascii	"ina dokument/Embedded Artists/Products/LPC2148 Educ"
 1165      646F6B75 
 1165      6D656E74 
 1165      2F456D62 
 1165      65646465 
 1166 019d 6174696F 		.ascii	"ation Board/Test program/v1.2/pre_emptive_os\000"
 1166      6E20426F 
 1166      6172642F 
 1166      54657374 
 1166      2070726F 
 1167              	.LASF39:
 1168 01ca 6F735365 		.ascii	"osSemTryTake\000"
 1168      6D547279 
 1168      54616B65 
 1168      00
 1169              	.LASF17:
 1170 01d7 7053746B 		.ascii	"pStkOrg\000"
 1170      4F726700 
 1171              	.LASF40:
 1172 01df 6973724E 		.ascii	"isrNesting\000"
 1172      65737469 
 1172      6E6700
 1173              	.LASF21:
 1174 01ea 5F745072 		.ascii	"_tPrioQueue_\000"
 1174      696F5175 
 1174      6575655F 
 1174      00
 1175              	.LASF0:
 1176 01f7 74553136 		.ascii	"tU16\000"
 1176      00
 1177              	.LASF3:
 1178 01fc 74553332 		.ascii	"tU32\000"
 1178      00
ARM GAS  /cygdrive/c/DOCUME~1/ANDERS~1/LOKALA~1/Temp/ccE9Z8JS.s 			page 28


 1179              	.LASF35:
 1180 0201 74696D65 		.ascii	"timeout\000"
 1180      6F757400 
 1181              	.LASF28:
 1182 0209 744F5345 		.ascii	"tOSEvent\000"
 1182      76656E74 
 1182      00
 1183              	.LASF26:
 1184 0212 5F744F53 		.ascii	"_tOSEvent_\000"
 1184      4576656E 
 1184      745F00
 1185              	.LASF33:
 1186 021d 6F735365 		.ascii	"osSemInit\000"
 1186      6D496E69 
 1186      7400
 1187              	.LASF32:
 1188 0227 696E6974 		.ascii	"initial\000"
 1188      69616C00 
 1189              	.LASF14:
 1190 022f 7072696F 		.ascii	"prio\000"
 1190      00
 1191              	.LASF13:
 1192 0234 704E6578 		.ascii	"pNextTimeQueue\000"
 1192      7454696D 
 1192      65517565 
 1192      756500
 1193              	.LASF5:
 1194 0243 7369676E 		.ascii	"signed char\000"
 1194      65642063 
 1194      68617200 
 1195              	.LASF16:
 1196 024f 736C6565 		.ascii	"sleep\000"
 1196      7000
 1197              	.LASF7:
 1198 0255 74426F6F 		.ascii	"tBool\000"
 1198      6C00
 1199              		.ident	"GCC: (GNU) 3.4.3"
ARM GAS  /cygdrive/c/DOCUME~1/ANDERS~1/LOKALA~1/Temp/ccE9Z8JS.s 			page 29


DEFINED SYMBOLS
                            *ABS*:00000000 count_sem.c
/cygdrive/c/DOCUME~1/ANDERS~1/LOKALA~1/Temp/ccE9Z8JS.s:1      .text:00000000 $t
/cygdrive/c/DOCUME~1/ANDERS~1/LOKALA~1/Temp/ccE9Z8JS.s:16     .text:00000000 osSemInit
/cygdrive/c/DOCUME~1/ANDERS~1/LOKALA~1/Temp/ccE9Z8JS.s:42     .text:00000014 osSemTake
/cygdrive/c/DOCUME~1/ANDERS~1/LOKALA~1/Temp/ccE9Z8JS.s:145    .text:0000009c $d
/cygdrive/c/DOCUME~1/ANDERS~1/LOKALA~1/Temp/ccE9Z8JS.s:153    .text:000000a0 osSemGive
/cygdrive/c/DOCUME~1/ANDERS~1/LOKALA~1/Temp/ccE9Z8JS.s:150    .text:000000a0 $t
/cygdrive/c/DOCUME~1/ANDERS~1/LOKALA~1/Temp/ccE9Z8JS.s:227    .text:00000100 $d
/cygdrive/c/DOCUME~1/ANDERS~1/LOKALA~1/Temp/ccE9Z8JS.s:235    .text:00000104 osSemTryTake
/cygdrive/c/DOCUME~1/ANDERS~1/LOKALA~1/Temp/ccE9Z8JS.s:232    .text:00000104 $t

UNDEFINED SYMBOLS
eventInit
halDisableInterrupts_oshal
halRestoreInterrupts_oshal
eventWait
schedule
eventWaitReturn
isrNesting
eventIsEmpty
eventSignal
