ARM GAS  /cygdrive/c/DOCUME~1/ANDERS~1/LOKALA~1/Temp/cceAYvyG.s 			page 1


   1              		.code	16
   2              		.file	"event.c"
   3              		.section	.debug_abbrev,"",%progbits
   4              	.Ldebug_abbrev0:
   5              		.section	.debug_info,"",%progbits
   6              	.Ldebug_info0:
   7              		.section	.debug_line,"",%progbits
   8              	.Ldebug_line0:
   9 0000 AB000000 		.text
   9      02006800 
   9      00000201 
   9      FB0E0A00 
   9      01010101 
  10              	.Ltext0:
  11              		.align	2
  12              		.global	eventInit
  13              		.code 16
  14              		.thumb_func
  15              		.type	eventInit, %function
  16              	eventInit:
  17              	.LFB2:
  18              		.file 1 "core/event.c"
   1:core/event.c  **** /******************************************************************************
   2:core/event.c  ****  *
   3:core/event.c  ****  * Copyright:
   4:core/event.c  ****  *    (C) 2000 - 2005 Embedded Artists AB
   5:core/event.c  ****  *
   6:core/event.c  ****  * Description:
   7:core/event.c  ****  *
   8:core/event.c  ****  * ESIC:
   9:core/event.c  ****  *    pre_emptive_os
  10:core/event.c  ****  *
  11:core/event.c  ****  * Version:
  12:core/event.c  ****  *    1.4.0
  13:core/event.c  ****  *
  14:core/event.c  ****  * Generate date:
  15:core/event.c  ****  *    2005-03-15 at 20:27:15
  16:core/event.c  ****  *
  17:core/event.c  ****  * NOTE:
  18:core/event.c  ****  *    DO NOT EDIT THIS FILE. IT IS AUTO GENERATED.
  19:core/event.c  ****  *    CHANGES TO THIS FILE WILL BE LOST IF THE FILE IS RE-GENERATED
  20:core/event.c  ****  *
  21:core/event.c  ****  * Signature:
  22:core/event.c  ****  *   7072655F656D70746976655F6F73,312E342E302E30,020235
  23:core/event.c  ****  *   ,35,10104021013134373435363030,07323838,3732,01013
  24:core/event.c  ****  *   830,0101013138303030303030,3135,33,3135,0232323530
  25:core/event.c  ****  *   ,01020130,0231343734353539,3238313831,020101100302
  26:core/event.c  ****  *   103030310010133,0163130,3230,3330,3430,3530,3630,3
  27:core/event.c  ****  *   730,3830,3930,313030,313130,313230,313330,313430,3
  28:core/event.c  ****  *   13530,313630,,35,35,35,35,35,35,35,35,35,35,35,35,
  29:core/event.c  ****  *   35,35,35,35,,,,1001001100011000000000]484152445741
  30:core/event.c  ****  *   5245,4C5043323130365F32,545538,756E7369676E6564206
  31:core/event.c  ****  *   3686172,414C49474E4D454E54,34,54424F4F4C,756E73696
  32:core/event.c  ****  *   76E65642063686172,54553332,756E7369676E656420696E7
  33:core/event.c  ****  *   4,544D505F46494C4553,2A2E656C663B2A2E6C73743B2A2E6
  34:core/event.c  ****  *   D61703B2A2E6F3B2A2E6F626A3B2A2E64,454E4449414E,4C4
  35:core/event.c  ****  *   954544C45,54533332,7369676E656420696E74,545338,736
ARM GAS  /cygdrive/c/DOCUME~1/ANDERS~1/LOKALA~1/Temp/cceAYvyG.s 			page 2


  36:core/event.c  ****  *   9676E65642063686172,54553136,756E7369676E656420736
  37:core/event.c  ****  *   86F7274,54533136,7369676E65642073686F7274,44455343
  38:core/event.c  ****  *   52495054494F4E,,44454255475F4C4556454C,30,434F4445
  39:core/event.c  ****  *   5F524F4F54,,47454E5F52554C4553,,4C494E455F5445524D
  40:core/event.c  ****  *   ,43524C46,4252414345,,43524541544F52,416E646572732
  41:core/event.c  ****  *   0526F7376616C6C,4352454154494F4E5F44415445,3230303
  42:core/event.c  ****  *   52D30332D31352032303A31373A3432,524F4F54,433A2F446
  43:core/event.c  ****  *   F63756D656E747320616E642053657474696E67732F416E646
  44:core/event.c  ****  *   5727320526F7376616C6C2F4D696E6120646F6B756D656E742
  45:core/event.c  ****  *   F456D62656464656420417274697374732F50726F647563747
  46:core/event.c  ****  *   32F4C50433231303620525332333220517569636B537461727
  47:core/event.c  ****  *   420426F6172642F72746F732F]505245464958,,4445425547
  48:core/event.c  ****  *   5F4C4556454C,30,555345525F434F4D4D454E54,]64656661
  49:core/event.c  ****  *   756C74,
  50:core/event.c  ****  *
  51:core/event.c  ****  * Checksum:
  52:core/event.c  ****  *    278932
  53:core/event.c  ****  *
  54:core/event.c  ****  *****************************************************************************/
  55:core/event.c  **** 
  56:core/event.c  **** 
  57:core/event.c  **** /******************************************************************************
  58:core/event.c  ****  * Includes
  59:core/event.c  ****  *****************************************************************************/
  60:core/event.c  **** 
  61:core/event.c  **** #include "kernel.h"
  62:core/event.c  **** #include "event.h"
  63:core/event.c  **** #include "pcb.h"
  64:core/event.c  **** #include "hal.h"
  65:core/event.c  **** #include "error.h"
  66:core/event.c  **** #include "prioqueue.h"
  67:core/event.c  **** 
  68:core/event.c  **** /******************************************************************************
  69:core/event.c  ****  * Local functions
  70:core/event.c  ****  *****************************************************************************/
  71:core/event.c  **** 
  72:core/event.c  **** /******************************************************************************
  73:core/event.c  ****  * Implementation of public functions
  74:core/event.c  ****  *****************************************************************************/
  75:core/event.c  **** 
  76:core/event.c  **** 
  77:core/event.c  **** /*****************************************************************************
  78:core/event.c  ****  *
  79:core/event.c  ****  * Description:
  80:core/event.c  ****  *    Initializes an event structure. 
  81:core/event.c  ****  *
  82:core/event.c  ****  * Params:
  83:core/event.c  ****  *    [in] pEvent - A pointer to an allocated event structure. 
  84:core/event.c  ****  *
  85:core/event.c  ****  ****************************************************************************/
  86:core/event.c  **** void
  87:core/event.c  **** eventInit(tOSEvent* pEvent)
  88:core/event.c  **** {
  19              		.loc 1 88 0
  20 0000 00B5     		push	{lr}
  21              	.LCFI0:
  89:core/event.c  ****   initPrioQueue(&(pEvent->waitQ), processControlBlocks);
ARM GAS  /cygdrive/c/DOCUME~1/ANDERS~1/LOKALA~1/Temp/cceAYvyG.s 			page 3


  22              		.loc 1 89 0
  23 0002 0249     		ldr	r1, .L2
  24 0004 FFF7FEFF 		bl	initPrioQueue
  25              		@ sp needed for prologue
  26 0008 01BC     		pop	{r0}
  27 000a 0047     		bx	r0
  28              	.L3:
  29              		.align	2
  30              	.L2:
  31 000c 00000000 		.word	processControlBlocks
  32              	.LFE2:
  33              		.size	eventInit, .-eventInit
  34              		.align	2
  35              		.global	eventWait
  36              		.code 16
  37              		.thumb_func
  38              		.type	eventWait, %function
  39              	eventWait:
  40              	.LFB3:
  90:core/event.c  **** }
  91:core/event.c  **** 
  92:core/event.c  **** 
  93:core/event.c  **** 
  94:core/event.c  **** /*****************************************************************************
  95:core/event.c  ****  *
  96:core/event.c  ****  * Description:
  97:core/event.c  ****  *    This function moves the caller from the ready-list to the event queue. 
  98:core/event.c  ****  *    The event queue is sorted by priority. If a timeout greater than zero is 
  99:core/event.c  ****  *    specified the function will timeout after the specified time. The time 
 100:core/event.c  ****  *    is specified in system ticks. 
 101:core/event.c  ****  *
 102:core/event.c  ****  * Params:
 103:core/event.c  ****  *    [in] pEvent  - A pointer to an initialized event structure. 
 104:core/event.c  ****  *    [in] timeout - The timeout time in system ticks. 
 105:core/event.c  ****  *
 106:core/event.c  ****  ****************************************************************************/
 107:core/event.c  **** void
 108:core/event.c  **** eventWait(tOSEvent* pEvent,
 109:core/event.c  ****           tU32      timeout)
 110:core/event.c  **** {
  41              		.loc 1 110 0
  42 0010 70B5     		push	{r4, r5, r6, lr}
  43              	.LCFI1:
 111:core/event.c  ****   pRunProc->flag |= (tU8)PROC_EVENT_WAIT;
  44              		.loc 1 111 0
  45 0012 0C4D     		ldr	r5, .L6
  46              		.loc 1 110 0
  47 0014 0E1C     		mov	r6, r1
  48              		.loc 1 111 0
  49 0016 2968     		ldr	r1, [r5]
  50 0018 8B7E     		ldrb	r3, [r1, #26]
  51 001a 0822     		mov	r2, #8
  52 001c 1343     		orr	r3, r3, r2
  53              		.loc 1 110 0
  54 001e 041C     		mov	r4, r0
  55              		.loc 1 111 0
  56 0020 8B76     		strb	r3, [r1, #26]
ARM GAS  /cygdrive/c/DOCUME~1/ANDERS~1/LOKALA~1/Temp/cceAYvyG.s 			page 4


 112:core/event.c  ****   
 113:core/event.c  ****   rmvFromRdyList();
  57              		.loc 1 113 0
  58 0022 FFF7FEFF 		bl	rmvFromRdyList
 114:core/event.c  ****   addToPrioQueue(&(pEvent->waitQ), pRunProc, EVENT_QUEUE);
  59              		.loc 1 114 0
  60 0026 201C     		mov	r0, r4
  61 0028 2968     		ldr	r1, [r5]
  62 002a 0122     		mov	r2, #1
  63 002c FFF7FEFF 		bl	addToPrioQueue
 115:core/event.c  ****   
 116:core/event.c  ****   if(timeout > 0)
  64              		.loc 1 116 0
  65 0030 002E     		cmp	r6, #0
  66 0032 03D0     		beq	.L4
 117:core/event.c  ****   {
 118:core/event.c  ****     pRunProc->sleep = timeout;
  67              		.loc 1 118 0
  68 0034 2B68     		ldr	r3, [r5]
  69 0036 DE61     		str	r6, [r3, #28]
 119:core/event.c  ****     addToTimeList();
  70              		.loc 1 119 0
  71 0038 FFF7FEFF 		bl	addToTimeList
  72              	.L4:
 120:core/event.c  ****   } 
 121:core/event.c  **** }
  73              		.loc 1 121 0
  74              		@ sp needed for prologue
  75 003c 70BC     		pop	{r4, r5, r6}
  76 003e 01BC     		pop	{r0}
  77 0040 0047     		bx	r0
  78              	.L7:
  79 0042 0000     		.align	2
  80              	.L6:
  81 0044 00000000 		.word	pRunProc
  82              	.LFE3:
  83              		.size	eventWait, .-eventWait
  84              		.align	2
  85              		.global	eventWaitReturn
  86              		.code 16
  87              		.thumb_func
  88              		.type	eventWaitReturn, %function
  89              	eventWaitReturn:
  90              	.LFB4:
 122:core/event.c  **** 
 123:core/event.c  **** 
 124:core/event.c  **** /*****************************************************************************
 125:core/event.c  ****  *
 126:core/event.c  ****  * Description:
 127:core/event.c  ****  *    
 128:core/event.c  ****  *
 129:core/event.c  ****  * Params:
 130:core/event.c  ****  *    [in] pEvent - A pointer to an initialized event structure. 
 131:core/event.c  ****  *
 132:core/event.c  ****  * Returns:
 133:core/event.c  ****  *    The return status, see error codes below. 
 134:core/event.c  ****  *
ARM GAS  /cygdrive/c/DOCUME~1/ANDERS~1/LOKALA~1/Temp/cceAYvyG.s 			page 5


 135:core/event.c  ****  * Error codes:
 136:core/event.c  ****  *    OS_OK            - The function completed successfully. 
 137:core/event.c  ****  *    OS_ERROR_TIMEOUT - The function returned due to a timeout. 
 138:core/event.c  ****  *
 139:core/event.c  ****  ****************************************************************************/
 140:core/event.c  **** tU8
 141:core/event.c  **** eventWaitReturn(tOSEvent* pEvent)
 142:core/event.c  **** {
  91              		.loc 1 142 0
  92 0048 30B5     		push	{r4, r5, lr}
  93              	.LCFI2:
 143:core/event.c  ****   tU8 ret = OS_OK;
 144:core/event.c  ****   
 145:core/event.c  ****   /* We will return to this point when we aquire the event or 
 146:core/event.c  ****      we have timed out */
 147:core/event.c  ****   if((pRunProc->flag & PROC_EVENT_WAIT) != 0)
  94              		.loc 1 147 0
  95 004a 0A4D     		ldr	r5, .L10
  96 004c 2968     		ldr	r1, [r5]
  97 004e 8A7E     		ldrb	r2, [r1, #26]
  98              		.loc 1 142 0
  99 0050 041C     		mov	r4, r0
 100              		.loc 1 143 0
 101 0052 0020     		mov	r0, #0
 102              		.loc 1 147 0
 103 0054 1307     		lsl	r3, r2, #28
 104 0056 09D5     		bpl	.L9
 148:core/event.c  ****   {
 149:core/event.c  ****     pRunProc->flag &= ~(tU8)PROC_EVENT_WAIT;
 105              		.loc 1 149 0
 106 0058 0823     		mov	r3, #8
 107 005a 101C     		mov	r0, r2
 108 005c 9843     		bic	r0, r0, r3
 109 005e 8876     		strb	r0, [r1, #26]
 150:core/event.c  ****     rmvFromPrioQueue(&(pEvent->waitQ), pRunProc, EVENT_QUEUE);
 110              		.loc 1 150 0
 111 0060 0122     		mov	r2, #1
 112 0062 201C     		mov	r0, r4
 113 0064 2968     		ldr	r1, [r5]
 114 0066 FFF7FEFF 		bl	rmvFromPrioQueue
 151:core/event.c  ****     ret = OS_ERROR_TIMEOUT;
 115              		.loc 1 151 0
 116 006a 0820     		mov	r0, #8
 117              	.L9:
 152:core/event.c  ****   }
 153:core/event.c  ****     
 154:core/event.c  ****   return ret;
 155:core/event.c  **** }
 118              		.loc 1 155 0
 119              		@ sp needed for prologue
 120 006c 30BC     		pop	{r4, r5}
 121 006e 02BC     		pop	{r1}
 122 0070 0847     		bx	r1
 123              	.L11:
 124 0072 0000     		.align	2
 125              	.L10:
 126 0074 00000000 		.word	pRunProc
ARM GAS  /cygdrive/c/DOCUME~1/ANDERS~1/LOKALA~1/Temp/cceAYvyG.s 			page 6


 127              	.LFE4:
 128              		.size	eventWaitReturn, .-eventWaitReturn
 129              		.align	2
 130              		.global	eventIsEmpty
 131              		.code 16
 132              		.thumb_func
 133              		.type	eventIsEmpty, %function
 134              	eventIsEmpty:
 135              	.LFB6:
 156:core/event.c  **** 
 157:core/event.c  **** 
 158:core/event.c  **** /*****************************************************************************
 159:core/event.c  ****  *
 160:core/event.c  ****  * Description:
 161:core/event.c  ****  *    This function signals an event structure. When an event structure is 
 162:core/event.c  ****  *    signaled the first process in the event queue will be inserted in the 
 163:core/event.c  ****  *    ready-list. The event queue is sorted by priority. 
 164:core/event.c  ****  *
 165:core/event.c  ****  * Params:
 166:core/event.c  ****  *    [in] pEvent - A pointer to an initialized event structure. 
 167:core/event.c  ****  *
 168:core/event.c  ****  ****************************************************************************/
 169:core/event.c  **** void
 170:core/event.c  **** eventSignal(tOSEvent* pEvent)
 171:core/event.c  **** {
 172:core/event.c  ****   if(eventIsEmpty(pEvent) == FALSE)
 173:core/event.c  ****   {
 174:core/event.c  ****     tOSPCB * pPCB;
 175:core/event.c  **** 
 176:core/event.c  ****     /* remove highest prio process from wait queue */
 177:core/event.c  ****     pPCB = getHighPrioQueue(&(pEvent->waitQ), EVENT_QUEUE);
 178:core/event.c  ****     rmvFromPrioQueue(&(pEvent->waitQ), pPCB, EVENT_QUEUE);
 179:core/event.c  ****     pPCB->flag &= ~(tU8)PROC_EVENT_WAIT;
 180:core/event.c  **** 
 181:core/event.c  ****     /* process might be in time list, waiting for a timeout -> remove it */
 182:core/event.c  ****     if((pPCB->flag & PROC_SLEEP) != 0)
 183:core/event.c  ****       rmvFromTimeList(pPCB);
 184:core/event.c  **** 
 185:core/event.c  ****     /* insert process in ready list */
 186:core/event.c  ****     addToRdyList(pPCB);
 187:core/event.c  **** 
 188:core/event.c  ****     if(isrNesting == 0) /* do not rechedule when called from an ISR */
 189:core/event.c  ****     {
 190:core/event.c  ****       schedule();
 191:core/event.c  ****     }
 192:core/event.c  ****   }
 193:core/event.c  **** }
 194:core/event.c  **** 
 195:core/event.c  **** 
 196:core/event.c  **** /*****************************************************************************
 197:core/event.c  ****  *
 198:core/event.c  ****  * Description:
 199:core/event.c  ****  *    
 200:core/event.c  ****  *
 201:core/event.c  ****  * Params:
 202:core/event.c  ****  *    [in] pEvent - A pointer to an initialized event structure. 
 203:core/event.c  ****  *
ARM GAS  /cygdrive/c/DOCUME~1/ANDERS~1/LOKALA~1/Temp/cceAYvyG.s 			page 7


 204:core/event.c  ****  * Returns:
 205:core/event.c  ****  *    
 206:core/event.c  ****  *
 207:core/event.c  ****  ****************************************************************************/
 208:core/event.c  **** tBool
 209:core/event.c  **** eventIsEmpty(tOSEvent* pEvent)
 210:core/event.c  **** {
 136              		.loc 1 210 0
 137 0078 00B5     		push	{lr}
 138              	.LCFI3:
 211:core/event.c  ****   return isEmptyPrioQueue(&(pEvent->waitQ));
 139              		.loc 1 211 0
 140 007a FFF7FEFF 		bl	isEmptyPrioQueue
 141 007e 0006     		lsl	r0, r0, #24
 212:core/event.c  **** }
 142              		.loc 1 212 0
 143 0080 000E     		lsr	r0, r0, #24
 144              		@ sp needed for prologue
 145 0082 02BC     		pop	{r1}
 146 0084 0847     		bx	r1
 147              	.LFE6:
 148              		.size	eventIsEmpty, .-eventIsEmpty
 149 0086 0000     		.align	2
 150              		.global	eventSignal
 151              		.code 16
 152              		.thumb_func
 153              		.type	eventSignal, %function
 154              	eventSignal:
 155              	.LFB5:
 156              		.loc 1 171 0
 157 0088 30B5     		push	{r4, r5, lr}
 158              	.LCFI4:
 159              		.loc 1 171 0
 160 008a 051C     		mov	r5, r0
 161              		.loc 1 172 0
 162 008c FFF7FEFF 		bl	eventIsEmpty
 163 0090 0006     		lsl	r0, r0, #24
 164 0092 0028     		cmp	r0, #0
 165 0094 1BD1     		bne	.L13
 166              	.LBB2:
 167              		.loc 1 177 0
 168 0096 0121     		mov	r1, #1
 169 0098 281C     		mov	r0, r5
 170 009a FFF7FEFF 		bl	getHighPrioQueue
 171 009e 041C     		mov	r4, r0
 172              		.loc 1 178 0
 173 00a0 0122     		mov	r2, #1
 174 00a2 281C     		mov	r0, r5
 175 00a4 211C     		mov	r1, r4
 176 00a6 FFF7FEFF 		bl	rmvFromPrioQueue
 177              		.loc 1 179 0
 178 00aa A37E     		ldrb	r3, [r4, #26]
 179 00ac 0822     		mov	r2, #8
 180 00ae 9343     		bic	r3, r3, r2
 181 00b0 A376     		strb	r3, [r4, #26]
 182              		.loc 1 182 0
 183 00b2 5A07     		lsl	r2, r3, #29
ARM GAS  /cygdrive/c/DOCUME~1/ANDERS~1/LOKALA~1/Temp/cceAYvyG.s 			page 8


 184 00b4 02D5     		bpl	.L15
 185              		.loc 1 183 0
 186 00b6 201C     		mov	r0, r4
 187 00b8 FFF7FEFF 		bl	rmvFromTimeList
 188              	.L15:
 189              		.loc 1 186 0
 190 00bc 201C     		mov	r0, r4
 191 00be FFF7FEFF 		bl	addToRdyList
 192              		.loc 1 188 0
 193 00c2 044B     		ldr	r3, .L17
 194 00c4 1B78     		ldrb	r3, [r3]
 195 00c6 002B     		cmp	r3, #0
 196 00c8 01D1     		bne	.L13
 197              		.loc 1 190 0
 198 00ca FFF7FEFF 		bl	schedule
 199              	.L13:
 200              	.LBE2:
 201              		.loc 1 193 0
 202              		@ sp needed for prologue
 203 00ce 30BC     		pop	{r4, r5}
 204 00d0 01BC     		pop	{r0}
 205 00d2 0047     		bx	r0
 206              	.L18:
 207              		.align	2
 208              	.L17:
 209 00d4 00000000 		.word	isrNesting
 210              	.LFE5:
 211              		.size	eventSignal, .-eventSignal
 212              		.section	.debug_frame,"",%progbits
 213              	.Lframe0:
 214 0000 0C000000 		.4byte	.LECIE0-.LSCIE0
 215              	.LSCIE0:
 216 0004 FFFFFFFF 		.4byte	0xffffffff
 217 0008 01       		.byte	0x1
 218 0009 00       		.ascii	"\000"
 219 000a 01       		.uleb128 0x1
 220 000b 7C       		.sleb128 -4
 221 000c 0E       		.byte	0xe
 222 000d 0C       		.byte	0xc
 223 000e 0D       		.uleb128 0xd
 224 000f 00       		.uleb128 0x0
 225              		.align	2
 226              	.LECIE0:
 227              	.LSFDE0:
 228 0010 14000000 		.4byte	.LEFDE0-.LASFDE0
 229              	.LASFDE0:
 230 0014 00000000 		.4byte	.Lframe0
 231 0018 00000000 		.4byte	.LFB2
 232 001c 10000000 		.4byte	.LFE2-.LFB2
 233 0020 42       		.byte	0x4
 234              		.4byte	.LCFI0-.LFB2
 235 0021 0E       		.byte	0xe
 236 0022 04       		.uleb128 0x4
 237 0023 8E       		.byte	0x8e
 238 0024 01       		.uleb128 0x1
 239 0025 000000   		.align	2
 240              	.LEFDE0:
ARM GAS  /cygdrive/c/DOCUME~1/ANDERS~1/LOKALA~1/Temp/cceAYvyG.s 			page 9


 241              	.LSFDE2:
 242 0028 18000000 		.4byte	.LEFDE2-.LASFDE2
 243              	.LASFDE2:
 244 002c 00000000 		.4byte	.Lframe0
 245 0030 10000000 		.4byte	.LFB3
 246 0034 38000000 		.4byte	.LFE3-.LFB3
 247 0038 42       		.byte	0x4
 248              		.4byte	.LCFI1-.LFB3
 249 0039 0E       		.byte	0xe
 250 003a 10       		.uleb128 0x10
 251 003b 84       		.byte	0x84
 252 003c 04       		.uleb128 0x4
 253 003d 85       		.byte	0x85
 254 003e 03       		.uleb128 0x3
 255 003f 86       		.byte	0x86
 256 0040 02       		.uleb128 0x2
 257 0041 8E       		.byte	0x8e
 258 0042 01       		.uleb128 0x1
 259 0043 00       		.align	2
 260              	.LEFDE2:
 261              	.LSFDE4:
 262 0044 18000000 		.4byte	.LEFDE4-.LASFDE4
 263              	.LASFDE4:
 264 0048 00000000 		.4byte	.Lframe0
 265 004c 48000000 		.4byte	.LFB4
 266 0050 30000000 		.4byte	.LFE4-.LFB4
 267 0054 42       		.byte	0x4
 268              		.4byte	.LCFI2-.LFB4
 269 0055 0E       		.byte	0xe
 270 0056 0C       		.uleb128 0xc
 271 0057 84       		.byte	0x84
 272 0058 03       		.uleb128 0x3
 273 0059 85       		.byte	0x85
 274 005a 02       		.uleb128 0x2
 275 005b 8E       		.byte	0x8e
 276 005c 01       		.uleb128 0x1
 277 005d 000000   		.align	2
 278              	.LEFDE4:
 279              	.LSFDE6:
 280 0060 14000000 		.4byte	.LEFDE6-.LASFDE6
 281              	.LASFDE6:
 282 0064 00000000 		.4byte	.Lframe0
 283 0068 78000000 		.4byte	.LFB6
 284 006c 0E000000 		.4byte	.LFE6-.LFB6
 285 0070 42       		.byte	0x4
 286              		.4byte	.LCFI3-.LFB6
 287 0071 0E       		.byte	0xe
 288 0072 04       		.uleb128 0x4
 289 0073 8E       		.byte	0x8e
 290 0074 01       		.uleb128 0x1
 291 0075 000000   		.align	2
 292              	.LEFDE6:
 293              	.LSFDE8:
 294 0078 18000000 		.4byte	.LEFDE8-.LASFDE8
 295              	.LASFDE8:
 296 007c 00000000 		.4byte	.Lframe0
 297 0080 88000000 		.4byte	.LFB5
ARM GAS  /cygdrive/c/DOCUME~1/ANDERS~1/LOKALA~1/Temp/cceAYvyG.s 			page 10


 298 0084 50000000 		.4byte	.LFE5-.LFB5
 299 0088 42       		.byte	0x4
 300              		.4byte	.LCFI4-.LFB5
 301 0089 0E       		.byte	0xe
 302 008a 0C       		.uleb128 0xc
 303 008b 84       		.byte	0x84
 304 008c 03       		.uleb128 0x3
 305 008d 85       		.byte	0x85
 306 008e 02       		.uleb128 0x2
 307 008f 8E       		.byte	0x8e
 308 0090 01       		.uleb128 0x1
 309 0091 000000   		.align	2
 310              	.LEFDE8:
 311              		.file 2 "core/event.h"
 312              		.file 3 "core/prioqueue.h"
 313              		.file 4 "core/pcb.h"
 314              		.file 5 "core/../api/general.h"
 315              		.file 6 "core/kernel.h"
 316              		.text
 317              	.Letext0:
 318              		.section	.debug_info
 319 0000 EA020000 		.4byte	0x2ea
 320 0004 0200     		.2byte	0x2
 321 0006 00000000 		.4byte	.Ldebug_abbrev0
 322 000a 04       		.byte	0x4
 323 000b 01       		.uleb128 0x1
 324 000c 00000000 		.4byte	.Ldebug_line0
 325 0010 D8000000 		.4byte	.Letext0
 326 0014 00000000 		.4byte	.Ltext0
 327 0018 12000000 		.4byte	.LASF40
 328 001c 01       		.byte	0x1
 329 001d 3A010000 		.4byte	.LASF41
 330 0021 6C010000 		.4byte	.LASF42
 331 0025 02       		.uleb128 0x2
 332 0026 74553800 		.ascii	"tU8\000"
 333 002a 05       		.byte	0x5
 334 002b 47       		.byte	0x47
 335 002c 30000000 		.4byte	0x30
 336 0030 03       		.uleb128 0x3
 337 0031 5E000000 		.4byte	.LASF1
 338 0035 01       		.byte	0x1
 339 0036 08       		.byte	0x8
 340 0037 04       		.uleb128 0x4
 341 0038 67010000 		.4byte	.LASF0
 342 003c 05       		.byte	0x5
 343 003d 48       		.byte	0x48
 344 003e 42000000 		.4byte	0x42
 345 0042 03       		.uleb128 0x3
 346 0043 90000000 		.4byte	.LASF2
 347 0047 02       		.byte	0x2
 348 0048 07       		.byte	0x7
 349 0049 04       		.uleb128 0x4
 350 004a FF010000 		.4byte	.LASF3
 351 004e 05       		.byte	0x5
 352 004f 49       		.byte	0x49
 353 0050 54000000 		.4byte	0x54
 354 0054 03       		.uleb128 0x3
ARM GAS  /cygdrive/c/DOCUME~1/ANDERS~1/LOKALA~1/Temp/cceAYvyG.s 			page 11


 355 0055 1D010000 		.4byte	.LASF4
 356 0059 04       		.byte	0x4
 357 005a 07       		.byte	0x7
 358 005b 03       		.uleb128 0x3
 359 005c 48020000 		.4byte	.LASF5
 360 0060 01       		.byte	0x1
 361 0061 06       		.byte	0x6
 362 0062 03       		.uleb128 0x3
 363 0063 2A020000 		.4byte	.LASF6
 364 0067 02       		.byte	0x2
 365 0068 05       		.byte	0x5
 366 0069 05       		.uleb128 0x5
 367 006a 696E7400 		.ascii	"int\000"
 368 006e 04       		.byte	0x4
 369 006f 05       		.byte	0x5
 370 0070 04       		.uleb128 0x4
 371 0071 5A020000 		.4byte	.LASF7
 372 0075 05       		.byte	0x5
 373 0076 4D       		.byte	0x4d
 374 0077 30000000 		.4byte	0x30
 375 007b 06       		.uleb128 0x6
 376 007c 30010000 		.4byte	0x130
 377 0080 C8000000 		.4byte	.LASF20
 378 0084 28       		.byte	0x28
 379 0085 04       		.byte	0x4
 380 0086 4D       		.byte	0x4d
 381 0087 07       		.uleb128 0x7
 382 0088 60020000 		.4byte	.LASF8
 383 008c 04       		.byte	0x4
 384 008d 4E       		.byte	0x4e
 385 008e 30010000 		.4byte	0x130
 386 0092 02       		.byte	0x2
 387 0093 23       		.byte	0x23
 388 0094 00       		.uleb128 0x0
 389 0095 07       		.uleb128 0x7
 390 0096 E6000000 		.4byte	.LASF9
 391 009a 04       		.byte	0x4
 392 009b 4F       		.byte	0x4f
 393 009c 36010000 		.4byte	0x136
 394 00a0 02       		.byte	0x2
 395 00a1 23       		.byte	0x23
 396 00a2 04       		.uleb128 0x4
 397 00a3 07       		.uleb128 0x7
 398 00a4 AA000000 		.4byte	.LASF10
 399 00a8 04       		.byte	0x4
 400 00a9 50       		.byte	0x50
 401 00aa 36010000 		.4byte	0x136
 402 00ae 02       		.byte	0x2
 403 00af 23       		.byte	0x23
 404 00b0 08       		.uleb128 0x8
 405 00b1 07       		.uleb128 0x7
 406 00b2 FA000000 		.4byte	.LASF11
 407 00b6 04       		.byte	0x4
 408 00b7 51       		.byte	0x51
 409 00b8 36010000 		.4byte	0x136
 410 00bc 02       		.byte	0x2
 411 00bd 23       		.byte	0x23
ARM GAS  /cygdrive/c/DOCUME~1/ANDERS~1/LOKALA~1/Temp/cceAYvyG.s 			page 12


 412 00be 0C       		.uleb128 0xc
 413 00bf 07       		.uleb128 0x7
 414 00c0 D2000000 		.4byte	.LASF12
 415 00c4 04       		.byte	0x4
 416 00c5 52       		.byte	0x52
 417 00c6 36010000 		.4byte	0x136
 418 00ca 02       		.byte	0x2
 419 00cb 23       		.byte	0x23
 420 00cc 10       		.uleb128 0x10
 421 00cd 07       		.uleb128 0x7
 422 00ce 39020000 		.4byte	.LASF13
 423 00d2 04       		.byte	0x4
 424 00d3 53       		.byte	0x53
 425 00d4 36010000 		.4byte	0x136
 426 00d8 02       		.byte	0x2
 427 00d9 23       		.byte	0x23
 428 00da 14       		.uleb128 0x14
 429 00db 08       		.uleb128 0x8
 430 00dc 70696400 		.ascii	"pid\000"
 431 00e0 04       		.byte	0x4
 432 00e1 54       		.byte	0x54
 433 00e2 25000000 		.4byte	0x25
 434 00e6 02       		.byte	0x2
 435 00e7 23       		.byte	0x23
 436 00e8 18       		.uleb128 0x18
 437 00e9 07       		.uleb128 0x7
 438 00ea 00000000 		.4byte	.LASF14
 439 00ee 04       		.byte	0x4
 440 00ef 55       		.byte	0x55
 441 00f0 25000000 		.4byte	0x25
 442 00f4 02       		.byte	0x2
 443 00f5 23       		.byte	0x23
 444 00f6 19       		.uleb128 0x19
 445 00f7 07       		.uleb128 0x7
 446 00f8 0E010000 		.4byte	.LASF15
 447 00fc 04       		.byte	0x4
 448 00fd 56       		.byte	0x56
 449 00fe 25000000 		.4byte	0x25
 450 0102 02       		.byte	0x2
 451 0103 23       		.byte	0x23
 452 0104 1A       		.uleb128 0x1a
 453 0105 07       		.uleb128 0x7
 454 0106 54020000 		.4byte	.LASF16
 455 010a 04       		.byte	0x4
 456 010b 57       		.byte	0x57
 457 010c 49000000 		.4byte	0x49
 458 0110 02       		.byte	0x2
 459 0111 23       		.byte	0x23
 460 0112 1C       		.uleb128 0x1c
 461 0113 07       		.uleb128 0x7
 462 0114 47010000 		.4byte	.LASF17
 463 0118 04       		.byte	0x4
 464 0119 5A       		.byte	0x5a
 465 011a 30010000 		.4byte	0x130
 466 011e 02       		.byte	0x2
 467 011f 23       		.byte	0x23
 468 0120 20       		.uleb128 0x20
ARM GAS  /cygdrive/c/DOCUME~1/ANDERS~1/LOKALA~1/Temp/cceAYvyG.s 			page 13


 469 0121 07       		.uleb128 0x7
 470 0122 2A010000 		.4byte	.LASF18
 471 0126 04       		.byte	0x4
 472 0127 5B       		.byte	0x5b
 473 0128 37000000 		.4byte	0x37
 474 012c 02       		.byte	0x2
 475 012d 23       		.byte	0x23
 476 012e 24       		.uleb128 0x24
 477 012f 00       		.byte	0x0
 478 0130 09       		.uleb128 0x9
 479 0131 04       		.byte	0x4
 480 0132 25000000 		.4byte	0x25
 481 0136 09       		.uleb128 0x9
 482 0137 04       		.byte	0x4
 483 0138 7B000000 		.4byte	0x7b
 484 013c 04       		.uleb128 0x4
 485 013d 6C000000 		.4byte	.LASF19
 486 0141 04       		.byte	0x4
 487 0142 5D       		.byte	0x5d
 488 0143 7B000000 		.4byte	0x7b
 489 0147 06       		.uleb128 0x6
 490 0148 70010000 		.4byte	0x170
 491 014c 5A010000 		.4byte	.LASF21
 492 0150 18       		.byte	0x18
 493 0151 03       		.byte	0x3
 494 0152 49       		.byte	0x49
 495 0153 07       		.uleb128 0x7
 496 0154 BE000000 		.4byte	.LASF22
 497 0158 03       		.byte	0x3
 498 0159 4A       		.byte	0x4a
 499 015a 70010000 		.4byte	0x170
 500 015e 02       		.byte	0x2
 501 015f 23       		.byte	0x23
 502 0160 00       		.uleb128 0x0
 503 0161 07       		.uleb128 0x7
 504 0162 1E000000 		.4byte	.LASF23
 505 0166 03       		.byte	0x3
 506 0167 4B       		.byte	0x4b
 507 0168 87010000 		.4byte	0x187
 508 016c 02       		.byte	0x2
 509 016d 23       		.byte	0x23
 510 016e 14       		.uleb128 0x14
 511 016f 00       		.byte	0x0
 512 0170 0A       		.uleb128 0xa
 513 0171 80010000 		.4byte	0x180
 514 0175 87010000 		.4byte	0x187
 515 0179 0B       		.uleb128 0xb
 516 017a 80010000 		.4byte	0x180
 517 017e 04       		.byte	0x4
 518 017f 00       		.byte	0x0
 519 0180 03       		.uleb128 0x3
 520 0181 7E000000 		.4byte	.LASF24
 521 0185 04       		.byte	0x4
 522 0186 07       		.byte	0x7
 523 0187 09       		.uleb128 0x9
 524 0188 04       		.byte	0x4
 525 0189 3C010000 		.4byte	0x13c
ARM GAS  /cygdrive/c/DOCUME~1/ANDERS~1/LOKALA~1/Temp/cceAYvyG.s 			page 14


 526 018d 04       		.uleb128 0x4
 527 018e 73000000 		.4byte	.LASF25
 528 0192 03       		.byte	0x3
 529 0193 4C       		.byte	0x4c
 530 0194 47010000 		.4byte	0x147
 531 0198 06       		.uleb128 0x6
 532 0199 B3010000 		.4byte	0x1b3
 533 019d 15020000 		.4byte	.LASF26
 534 01a1 18       		.byte	0x18
 535 01a2 02       		.byte	0x2
 536 01a3 46       		.byte	0x46
 537 01a4 07       		.uleb128 0x7
 538 01a5 34010000 		.4byte	.LASF27
 539 01a9 02       		.byte	0x2
 540 01aa 47       		.byte	0x47
 541 01ab 8D010000 		.4byte	0x18d
 542 01af 02       		.byte	0x2
 543 01b0 23       		.byte	0x23
 544 01b1 00       		.uleb128 0x0
 545 01b2 00       		.byte	0x0
 546 01b3 04       		.uleb128 0x4
 547 01b4 0C020000 		.4byte	.LASF28
 548 01b8 02       		.byte	0x2
 549 01b9 48       		.byte	0x48
 550 01ba 98010000 		.4byte	0x198
 551 01be 0C       		.uleb128 0xc
 552 01bf E3010000 		.4byte	0x1e3
 553 01c3 01       		.byte	0x1
 554 01c4 13010000 		.4byte	.LASF29
 555 01c8 01       		.byte	0x1
 556 01c9 58       		.byte	0x58
 557 01ca 01       		.byte	0x1
 558 01cb 00000000 		.4byte	.LFB2
 559 01cf 10000000 		.4byte	.LFE2
 560 01d3 01       		.byte	0x1
 561 01d4 5D       		.byte	0x5d
 562 01d5 0D       		.uleb128 0xd
 563 01d6 A3000000 		.4byte	.LASF31
 564 01da 01       		.byte	0x1
 565 01db 57       		.byte	0x57
 566 01dc E3010000 		.4byte	0x1e3
 567 01e0 01       		.byte	0x1
 568 01e1 50       		.byte	0x50
 569 01e2 00       		.byte	0x0
 570 01e3 09       		.uleb128 0x9
 571 01e4 04       		.byte	0x4
 572 01e5 B3010000 		.4byte	0x1b3
 573 01e9 0C       		.uleb128 0xc
 574 01ea 1B020000 		.4byte	0x21b
 575 01ee 01       		.byte	0x1
 576 01ef 20020000 		.4byte	.LASF30
 577 01f3 01       		.byte	0x1
 578 01f4 6E       		.byte	0x6e
 579 01f5 01       		.byte	0x1
 580 01f6 10000000 		.4byte	.LFB3
 581 01fa 48000000 		.4byte	.LFE3
 582 01fe 01       		.byte	0x1
ARM GAS  /cygdrive/c/DOCUME~1/ANDERS~1/LOKALA~1/Temp/cceAYvyG.s 			page 15


 583 01ff 5D       		.byte	0x5d
 584 0200 0D       		.uleb128 0xd
 585 0201 A3000000 		.4byte	.LASF31
 586 0205 01       		.byte	0x1
 587 0206 6C       		.byte	0x6c
 588 0207 E3010000 		.4byte	0x1e3
 589 020b 01       		.byte	0x1
 590 020c 54       		.byte	0x54
 591 020d 0D       		.uleb128 0xd
 592 020e 04020000 		.4byte	.LASF32
 593 0212 01       		.byte	0x1
 594 0213 6D       		.byte	0x6d
 595 0214 49000000 		.4byte	0x49
 596 0218 01       		.byte	0x1
 597 0219 56       		.byte	0x56
 598 021a 00       		.byte	0x0
 599 021b 0E       		.uleb128 0xe
 600 021c 51020000 		.4byte	0x251
 601 0220 01       		.byte	0x1
 602 0221 4E000000 		.4byte	.LASF33
 603 0225 01       		.byte	0x1
 604 0226 8E       		.byte	0x8e
 605 0227 01       		.byte	0x1
 606 0228 25000000 		.4byte	0x25
 607 022c 48000000 		.4byte	.LFB4
 608 0230 78000000 		.4byte	.LFE4
 609 0234 01       		.byte	0x1
 610 0235 5D       		.byte	0x5d
 611 0236 0D       		.uleb128 0xd
 612 0237 A3000000 		.4byte	.LASF31
 613 023b 01       		.byte	0x1
 614 023c 8D       		.byte	0x8d
 615 023d E3010000 		.4byte	0x1e3
 616 0241 01       		.byte	0x1
 617 0242 54       		.byte	0x54
 618 0243 0F       		.uleb128 0xf
 619 0244 72657400 		.ascii	"ret\000"
 620 0248 01       		.byte	0x1
 621 0249 8F       		.byte	0x8f
 622 024a 25000000 		.4byte	0x25
 623 024e 01       		.byte	0x1
 624 024f 50       		.byte	0x50
 625 0250 00       		.byte	0x0
 626 0251 0E       		.uleb128 0xe
 627 0252 7A020000 		.4byte	0x27a
 628 0256 01       		.byte	0x1
 629 0257 05000000 		.4byte	.LASF34
 630 025b 01       		.byte	0x1
 631 025c D2       		.byte	0xd2
 632 025d 01       		.byte	0x1
 633 025e 70000000 		.4byte	0x70
 634 0262 78000000 		.4byte	.LFB6
 635 0266 86000000 		.4byte	.LFE6
 636 026a 01       		.byte	0x1
 637 026b 5D       		.byte	0x5d
 638 026c 0D       		.uleb128 0xd
 639 026d A3000000 		.4byte	.LASF31
ARM GAS  /cygdrive/c/DOCUME~1/ANDERS~1/LOKALA~1/Temp/cceAYvyG.s 			page 16


 640 0271 01       		.byte	0x1
 641 0272 D1       		.byte	0xd1
 642 0273 E3010000 		.4byte	0x1e3
 643 0277 01       		.byte	0x1
 644 0278 50       		.byte	0x50
 645 0279 00       		.byte	0x0
 646 027a 0C       		.uleb128 0xc
 647 027b B6020000 		.4byte	0x2b6
 648 027f 01       		.byte	0x1
 649 0280 24000000 		.4byte	.LASF35
 650 0284 01       		.byte	0x1
 651 0285 AB       		.byte	0xab
 652 0286 01       		.byte	0x1
 653 0287 88000000 		.4byte	.LFB5
 654 028b D8000000 		.4byte	.LFE5
 655 028f 01       		.byte	0x1
 656 0290 5D       		.byte	0x5d
 657 0291 0D       		.uleb128 0xd
 658 0292 A3000000 		.4byte	.LASF31
 659 0296 01       		.byte	0x1
 660 0297 AA       		.byte	0xaa
 661 0298 E3010000 		.4byte	0x1e3
 662 029c 01       		.byte	0x1
 663 029d 55       		.byte	0x55
 664 029e 10       		.uleb128 0x10
 665 029f 96000000 		.4byte	.LBB2
 666 02a3 CE000000 		.4byte	.LBE2
 667 02a7 11       		.uleb128 0x11
 668 02a8 34020000 		.4byte	.LASF36
 669 02ac 01       		.byte	0x1
 670 02ad AE       		.byte	0xae
 671 02ae 87010000 		.4byte	0x187
 672 02b2 01       		.byte	0x1
 673 02b3 54       		.byte	0x54
 674 02b4 00       		.byte	0x0
 675 02b5 00       		.byte	0x0
 676 02b6 12       		.uleb128 0x12
 677 02b7 30000000 		.4byte	.LASF37
 678 02bb 06       		.byte	0x6
 679 02bc 4D       		.byte	0x4d
 680 02bd 87010000 		.4byte	0x187
 681 02c1 01       		.byte	0x1
 682 02c2 01       		.byte	0x1
 683 02c3 12       		.uleb128 0x12
 684 02c4 4F010000 		.4byte	.LASF38
 685 02c8 06       		.byte	0x6
 686 02c9 4F       		.byte	0x4f
 687 02ca 25000000 		.4byte	0x25
 688 02ce 01       		.byte	0x1
 689 02cf 01       		.byte	0x1
 690 02d0 0A       		.uleb128 0xa
 691 02d1 E0020000 		.4byte	0x2e0
 692 02d5 3C010000 		.4byte	0x13c
 693 02d9 0B       		.uleb128 0xb
 694 02da 80010000 		.4byte	0x180
 695 02de 05       		.byte	0x5
 696 02df 00       		.byte	0x0
ARM GAS  /cygdrive/c/DOCUME~1/ANDERS~1/LOKALA~1/Temp/cceAYvyG.s 			page 17


 697 02e0 12       		.uleb128 0x12
 698 02e1 39000000 		.4byte	.LASF39
 699 02e5 06       		.byte	0x6
 700 02e6 51       		.byte	0x51
 701 02e7 D0020000 		.4byte	0x2d0
 702 02eb 01       		.byte	0x1
 703 02ec 01       		.byte	0x1
 704 02ed 00       		.byte	0x0
 705              		.section	.debug_abbrev
 706 0000 01       		.uleb128 0x1
 707 0001 11       		.uleb128 0x11
 708 0002 01       		.byte	0x1
 709 0003 10       		.uleb128 0x10
 710 0004 06       		.uleb128 0x6
 711 0005 12       		.uleb128 0x12
 712 0006 01       		.uleb128 0x1
 713 0007 11       		.uleb128 0x11
 714 0008 01       		.uleb128 0x1
 715 0009 25       		.uleb128 0x25
 716 000a 0E       		.uleb128 0xe
 717 000b 13       		.uleb128 0x13
 718 000c 0B       		.uleb128 0xb
 719 000d 03       		.uleb128 0x3
 720 000e 0E       		.uleb128 0xe
 721 000f 1B       		.uleb128 0x1b
 722 0010 0E       		.uleb128 0xe
 723 0011 00       		.byte	0x0
 724 0012 00       		.byte	0x0
 725 0013 02       		.uleb128 0x2
 726 0014 16       		.uleb128 0x16
 727 0015 00       		.byte	0x0
 728 0016 03       		.uleb128 0x3
 729 0017 08       		.uleb128 0x8
 730 0018 3A       		.uleb128 0x3a
 731 0019 0B       		.uleb128 0xb
 732 001a 3B       		.uleb128 0x3b
 733 001b 0B       		.uleb128 0xb
 734 001c 49       		.uleb128 0x49
 735 001d 13       		.uleb128 0x13
 736 001e 00       		.byte	0x0
 737 001f 00       		.byte	0x0
 738 0020 03       		.uleb128 0x3
 739 0021 24       		.uleb128 0x24
 740 0022 00       		.byte	0x0
 741 0023 03       		.uleb128 0x3
 742 0024 0E       		.uleb128 0xe
 743 0025 0B       		.uleb128 0xb
 744 0026 0B       		.uleb128 0xb
 745 0027 3E       		.uleb128 0x3e
 746 0028 0B       		.uleb128 0xb
 747 0029 00       		.byte	0x0
 748 002a 00       		.byte	0x0
 749 002b 04       		.uleb128 0x4
 750 002c 16       		.uleb128 0x16
 751 002d 00       		.byte	0x0
 752 002e 03       		.uleb128 0x3
 753 002f 0E       		.uleb128 0xe
ARM GAS  /cygdrive/c/DOCUME~1/ANDERS~1/LOKALA~1/Temp/cceAYvyG.s 			page 18


 754 0030 3A       		.uleb128 0x3a
 755 0031 0B       		.uleb128 0xb
 756 0032 3B       		.uleb128 0x3b
 757 0033 0B       		.uleb128 0xb
 758 0034 49       		.uleb128 0x49
 759 0035 13       		.uleb128 0x13
 760 0036 00       		.byte	0x0
 761 0037 00       		.byte	0x0
 762 0038 05       		.uleb128 0x5
 763 0039 24       		.uleb128 0x24
 764 003a 00       		.byte	0x0
 765 003b 03       		.uleb128 0x3
 766 003c 08       		.uleb128 0x8
 767 003d 0B       		.uleb128 0xb
 768 003e 0B       		.uleb128 0xb
 769 003f 3E       		.uleb128 0x3e
 770 0040 0B       		.uleb128 0xb
 771 0041 00       		.byte	0x0
 772 0042 00       		.byte	0x0
 773 0043 06       		.uleb128 0x6
 774 0044 13       		.uleb128 0x13
 775 0045 01       		.byte	0x1
 776 0046 01       		.uleb128 0x1
 777 0047 13       		.uleb128 0x13
 778 0048 03       		.uleb128 0x3
 779 0049 0E       		.uleb128 0xe
 780 004a 0B       		.uleb128 0xb
 781 004b 0B       		.uleb128 0xb
 782 004c 3A       		.uleb128 0x3a
 783 004d 0B       		.uleb128 0xb
 784 004e 3B       		.uleb128 0x3b
 785 004f 0B       		.uleb128 0xb
 786 0050 00       		.byte	0x0
 787 0051 00       		.byte	0x0
 788 0052 07       		.uleb128 0x7
 789 0053 0D       		.uleb128 0xd
 790 0054 00       		.byte	0x0
 791 0055 03       		.uleb128 0x3
 792 0056 0E       		.uleb128 0xe
 793 0057 3A       		.uleb128 0x3a
 794 0058 0B       		.uleb128 0xb
 795 0059 3B       		.uleb128 0x3b
 796 005a 0B       		.uleb128 0xb
 797 005b 49       		.uleb128 0x49
 798 005c 13       		.uleb128 0x13
 799 005d 38       		.uleb128 0x38
 800 005e 0A       		.uleb128 0xa
 801 005f 00       		.byte	0x0
 802 0060 00       		.byte	0x0
 803 0061 08       		.uleb128 0x8
 804 0062 0D       		.uleb128 0xd
 805 0063 00       		.byte	0x0
 806 0064 03       		.uleb128 0x3
 807 0065 08       		.uleb128 0x8
 808 0066 3A       		.uleb128 0x3a
 809 0067 0B       		.uleb128 0xb
 810 0068 3B       		.uleb128 0x3b
ARM GAS  /cygdrive/c/DOCUME~1/ANDERS~1/LOKALA~1/Temp/cceAYvyG.s 			page 19


 811 0069 0B       		.uleb128 0xb
 812 006a 49       		.uleb128 0x49
 813 006b 13       		.uleb128 0x13
 814 006c 38       		.uleb128 0x38
 815 006d 0A       		.uleb128 0xa
 816 006e 00       		.byte	0x0
 817 006f 00       		.byte	0x0
 818 0070 09       		.uleb128 0x9
 819 0071 0F       		.uleb128 0xf
 820 0072 00       		.byte	0x0
 821 0073 0B       		.uleb128 0xb
 822 0074 0B       		.uleb128 0xb
 823 0075 49       		.uleb128 0x49
 824 0076 13       		.uleb128 0x13
 825 0077 00       		.byte	0x0
 826 0078 00       		.byte	0x0
 827 0079 0A       		.uleb128 0xa
 828 007a 01       		.uleb128 0x1
 829 007b 01       		.byte	0x1
 830 007c 01       		.uleb128 0x1
 831 007d 13       		.uleb128 0x13
 832 007e 49       		.uleb128 0x49
 833 007f 13       		.uleb128 0x13
 834 0080 00       		.byte	0x0
 835 0081 00       		.byte	0x0
 836 0082 0B       		.uleb128 0xb
 837 0083 21       		.uleb128 0x21
 838 0084 00       		.byte	0x0
 839 0085 49       		.uleb128 0x49
 840 0086 13       		.uleb128 0x13
 841 0087 2F       		.uleb128 0x2f
 842 0088 0B       		.uleb128 0xb
 843 0089 00       		.byte	0x0
 844 008a 00       		.byte	0x0
 845 008b 0C       		.uleb128 0xc
 846 008c 2E       		.uleb128 0x2e
 847 008d 01       		.byte	0x1
 848 008e 01       		.uleb128 0x1
 849 008f 13       		.uleb128 0x13
 850 0090 3F       		.uleb128 0x3f
 851 0091 0C       		.uleb128 0xc
 852 0092 03       		.uleb128 0x3
 853 0093 0E       		.uleb128 0xe
 854 0094 3A       		.uleb128 0x3a
 855 0095 0B       		.uleb128 0xb
 856 0096 3B       		.uleb128 0x3b
 857 0097 0B       		.uleb128 0xb
 858 0098 27       		.uleb128 0x27
 859 0099 0C       		.uleb128 0xc
 860 009a 11       		.uleb128 0x11
 861 009b 01       		.uleb128 0x1
 862 009c 12       		.uleb128 0x12
 863 009d 01       		.uleb128 0x1
 864 009e 40       		.uleb128 0x40
 865 009f 0A       		.uleb128 0xa
 866 00a0 00       		.byte	0x0
 867 00a1 00       		.byte	0x0
ARM GAS  /cygdrive/c/DOCUME~1/ANDERS~1/LOKALA~1/Temp/cceAYvyG.s 			page 20


 868 00a2 0D       		.uleb128 0xd
 869 00a3 05       		.uleb128 0x5
 870 00a4 00       		.byte	0x0
 871 00a5 03       		.uleb128 0x3
 872 00a6 0E       		.uleb128 0xe
 873 00a7 3A       		.uleb128 0x3a
 874 00a8 0B       		.uleb128 0xb
 875 00a9 3B       		.uleb128 0x3b
 876 00aa 0B       		.uleb128 0xb
 877 00ab 49       		.uleb128 0x49
 878 00ac 13       		.uleb128 0x13
 879 00ad 02       		.uleb128 0x2
 880 00ae 0A       		.uleb128 0xa
 881 00af 00       		.byte	0x0
 882 00b0 00       		.byte	0x0
 883 00b1 0E       		.uleb128 0xe
 884 00b2 2E       		.uleb128 0x2e
 885 00b3 01       		.byte	0x1
 886 00b4 01       		.uleb128 0x1
 887 00b5 13       		.uleb128 0x13
 888 00b6 3F       		.uleb128 0x3f
 889 00b7 0C       		.uleb128 0xc
 890 00b8 03       		.uleb128 0x3
 891 00b9 0E       		.uleb128 0xe
 892 00ba 3A       		.uleb128 0x3a
 893 00bb 0B       		.uleb128 0xb
 894 00bc 3B       		.uleb128 0x3b
 895 00bd 0B       		.uleb128 0xb
 896 00be 27       		.uleb128 0x27
 897 00bf 0C       		.uleb128 0xc
 898 00c0 49       		.uleb128 0x49
 899 00c1 13       		.uleb128 0x13
 900 00c2 11       		.uleb128 0x11
 901 00c3 01       		.uleb128 0x1
 902 00c4 12       		.uleb128 0x12
 903 00c5 01       		.uleb128 0x1
 904 00c6 40       		.uleb128 0x40
 905 00c7 0A       		.uleb128 0xa
 906 00c8 00       		.byte	0x0
 907 00c9 00       		.byte	0x0
 908 00ca 0F       		.uleb128 0xf
 909 00cb 34       		.uleb128 0x34
 910 00cc 00       		.byte	0x0
 911 00cd 03       		.uleb128 0x3
 912 00ce 08       		.uleb128 0x8
 913 00cf 3A       		.uleb128 0x3a
 914 00d0 0B       		.uleb128 0xb
 915 00d1 3B       		.uleb128 0x3b
 916 00d2 0B       		.uleb128 0xb
 917 00d3 49       		.uleb128 0x49
 918 00d4 13       		.uleb128 0x13
 919 00d5 02       		.uleb128 0x2
 920 00d6 0A       		.uleb128 0xa
 921 00d7 00       		.byte	0x0
 922 00d8 00       		.byte	0x0
 923 00d9 10       		.uleb128 0x10
 924 00da 0B       		.uleb128 0xb
ARM GAS  /cygdrive/c/DOCUME~1/ANDERS~1/LOKALA~1/Temp/cceAYvyG.s 			page 21


 925 00db 01       		.byte	0x1
 926 00dc 11       		.uleb128 0x11
 927 00dd 01       		.uleb128 0x1
 928 00de 12       		.uleb128 0x12
 929 00df 01       		.uleb128 0x1
 930 00e0 00       		.byte	0x0
 931 00e1 00       		.byte	0x0
 932 00e2 11       		.uleb128 0x11
 933 00e3 34       		.uleb128 0x34
 934 00e4 00       		.byte	0x0
 935 00e5 03       		.uleb128 0x3
 936 00e6 0E       		.uleb128 0xe
 937 00e7 3A       		.uleb128 0x3a
 938 00e8 0B       		.uleb128 0xb
 939 00e9 3B       		.uleb128 0x3b
 940 00ea 0B       		.uleb128 0xb
 941 00eb 49       		.uleb128 0x49
 942 00ec 13       		.uleb128 0x13
 943 00ed 02       		.uleb128 0x2
 944 00ee 0A       		.uleb128 0xa
 945 00ef 00       		.byte	0x0
 946 00f0 00       		.byte	0x0
 947 00f1 12       		.uleb128 0x12
 948 00f2 34       		.uleb128 0x34
 949 00f3 00       		.byte	0x0
 950 00f4 03       		.uleb128 0x3
 951 00f5 0E       		.uleb128 0xe
 952 00f6 3A       		.uleb128 0x3a
 953 00f7 0B       		.uleb128 0xb
 954 00f8 3B       		.uleb128 0x3b
 955 00f9 0B       		.uleb128 0xb
 956 00fa 49       		.uleb128 0x49
 957 00fb 13       		.uleb128 0x13
 958 00fc 3F       		.uleb128 0x3f
 959 00fd 0C       		.uleb128 0xc
 960 00fe 3C       		.uleb128 0x3c
 961 00ff 0C       		.uleb128 0xc
 962 0100 00       		.byte	0x0
 963 0101 00       		.byte	0x0
 964 0102 00       		.byte	0x0
 965              		.section	.debug_pubnames,"",%progbits
 966 0000 5F000000 		.4byte	0x5f
 967 0004 0200     		.2byte	0x2
 968 0006 00000000 		.4byte	.Ldebug_info0
 969 000a EE020000 		.4byte	0x2ee
 970 000e BE010000 		.4byte	0x1be
 971 0012 6576656E 		.ascii	"eventInit\000"
 971      74496E69 
 971      7400
 972 001c E9010000 		.4byte	0x1e9
 973 0020 6576656E 		.ascii	"eventWait\000"
 973      74576169 
 973      7400
 974 002a 1B020000 		.4byte	0x21b
 975 002e 6576656E 		.ascii	"eventWaitReturn\000"
 975      74576169 
 975      74526574 
ARM GAS  /cygdrive/c/DOCUME~1/ANDERS~1/LOKALA~1/Temp/cceAYvyG.s 			page 22


 975      75726E00 
 976 003e 51020000 		.4byte	0x251
 977 0042 6576656E 		.ascii	"eventIsEmpty\000"
 977      74497345 
 977      6D707479 
 977      00
 978 004f 7A020000 		.4byte	0x27a
 979 0053 6576656E 		.ascii	"eventSignal\000"
 979      74536967 
 979      6E616C00 
 980 005f 00000000 		.4byte	0x0
 981              		.section	.debug_aranges,"",%progbits
 982 0000 1C000000 		.4byte	0x1c
 983 0004 0200     		.2byte	0x2
 984 0006 00000000 		.4byte	.Ldebug_info0
 985 000a 04       		.byte	0x4
 986 000b 00       		.byte	0x0
 987 000c 0000     		.2byte	0x0
 988 000e 0000     		.2byte	0x0
 989 0010 00000000 		.4byte	.Ltext0
 990 0014 D8000000 		.4byte	.Letext0-.Ltext0
 991 0018 00000000 		.4byte	0x0
 992 001c 00000000 		.4byte	0x0
 993              		.section	.debug_str,"MS",%progbits,1
 994              	.LASF14:
 995 0000 7072696F 		.ascii	"prio\000"
 995      00
 996              	.LASF34:
 997 0005 6576656E 		.ascii	"eventIsEmpty\000"
 997      74497345 
 997      6D707479 
 997      00
 998              	.LASF40:
 999 0012 474E5520 		.ascii	"GNU C 3.4.3\000"
 999      4320332E 
 999      342E3300 
 1000              	.LASF23:
 1001 001e 70504342 		.ascii	"pPCBs\000"
 1001      7300
 1002              	.LASF35:
 1003 0024 6576656E 		.ascii	"eventSignal\000"
 1003      74536967 
 1003      6E616C00 
 1004              	.LASF37:
 1005 0030 7052756E 		.ascii	"pRunProc\000"
 1005      50726F63 
 1005      00
 1006              	.LASF39:
 1007 0039 70726F63 		.ascii	"processControlBlocks\000"
 1007      65737343 
 1007      6F6E7472 
 1007      6F6C426C 
 1007      6F636B73 
 1008              	.LASF33:
 1009 004e 6576656E 		.ascii	"eventWaitReturn\000"
 1009      74576169 
 1009      74526574 
ARM GAS  /cygdrive/c/DOCUME~1/ANDERS~1/LOKALA~1/Temp/cceAYvyG.s 			page 23


 1009      75726E00 
 1010              	.LASF1:
 1011 005e 756E7369 		.ascii	"unsigned char\000"
 1011      676E6564 
 1011      20636861 
 1011      7200
 1012              	.LASF19:
 1013 006c 744F5350 		.ascii	"tOSPCB\000"
 1013      434200
 1014              	.LASF25:
 1015 0073 74507269 		.ascii	"tPrioQueue\000"
 1015      6F517565 
 1015      756500
 1016              	.LASF24:
 1017 007e 6C6F6E67 		.ascii	"long unsigned int\000"
 1017      20756E73 
 1017      69676E65 
 1017      6420696E 
 1017      7400
 1018              	.LASF2:
 1019 0090 73686F72 		.ascii	"short unsigned int\000"
 1019      7420756E 
 1019      7369676E 
 1019      65642069 
 1019      6E7400
 1020              	.LASF31:
 1021 00a3 70457665 		.ascii	"pEvent\000"
 1021      6E7400
 1022              	.LASF10:
 1023 00aa 70507265 		.ascii	"pPrevPrioQueueReady\000"
 1023      76507269 
 1023      6F517565 
 1023      75655265 
 1023      61647900 
 1024              	.LASF22:
 1025 00be 70507269 		.ascii	"pPrioList\000"
 1025      6F4C6973 
 1025      7400
 1026              	.LASF20:
 1027 00c8 5F744F53 		.ascii	"_tOSPCB__\000"
 1027      5043425F 
 1027      5F00
 1028              	.LASF12:
 1029 00d2 70507265 		.ascii	"pPrevPrioQueueEvent\000"
 1029      76507269 
 1029      6F517565 
 1029      75654576 
 1029      656E7400 
 1030              	.LASF9:
 1031 00e6 704E6578 		.ascii	"pNextPrioQueueReady\000"
 1031      74507269 
 1031      6F517565 
 1031      75655265 
 1031      61647900 
 1032              	.LASF11:
 1033 00fa 704E6578 		.ascii	"pNextPrioQueueEvent\000"
 1033      74507269 
ARM GAS  /cygdrive/c/DOCUME~1/ANDERS~1/LOKALA~1/Temp/cceAYvyG.s 			page 24


 1033      6F517565 
 1033      75654576 
 1033      656E7400 
 1034              	.LASF15:
 1035 010e 666C6167 		.ascii	"flag\000"
 1035      00
 1036              	.LASF29:
 1037 0113 6576656E 		.ascii	"eventInit\000"
 1037      74496E69 
 1037      7400
 1038              	.LASF4:
 1039 011d 756E7369 		.ascii	"unsigned int\000"
 1039      676E6564 
 1039      20696E74 
 1039      00
 1040              	.LASF18:
 1041 012a 73746163 		.ascii	"stackSize\000"
 1041      6B53697A 
 1041      6500
 1042              	.LASF27:
 1043 0134 77616974 		.ascii	"waitQ\000"
 1043      5100
 1044              	.LASF41:
 1045 013a 636F7265 		.ascii	"core/event.c\000"
 1045      2F657665 
 1045      6E742E63 
 1045      00
 1046              	.LASF17:
 1047 0147 7053746B 		.ascii	"pStkOrg\000"
 1047      4F726700 
 1048              	.LASF38:
 1049 014f 6973724E 		.ascii	"isrNesting\000"
 1049      65737469 
 1049      6E6700
 1050              	.LASF21:
 1051 015a 5F745072 		.ascii	"_tPrioQueue_\000"
 1051      696F5175 
 1051      6575655F 
 1051      00
 1052              	.LASF0:
 1053 0167 74553136 		.ascii	"tU16\000"
 1053      00
 1054              	.LASF42:
 1055 016c 2F637967 		.ascii	"/cygdrive/c/Documents and Settings/Anders Rosvall/M"
 1055      64726976 
 1055      652F632F 
 1055      446F6375 
 1055      6D656E74 
 1056 019f 696E6120 		.ascii	"ina dokument/Embedded Artists/Products/LPC2148 Educ"
 1056      646F6B75 
 1056      6D656E74 
 1056      2F456D62 
 1056      65646465 
 1057 01d2 6174696F 		.ascii	"ation Board/Test program/v1.2/pre_emptive_os\000"
 1057      6E20426F 
 1057      6172642F 
 1057      54657374 
ARM GAS  /cygdrive/c/DOCUME~1/ANDERS~1/LOKALA~1/Temp/cceAYvyG.s 			page 25


 1057      2070726F 
 1058              	.LASF3:
 1059 01ff 74553332 		.ascii	"tU32\000"
 1059      00
 1060              	.LASF32:
 1061 0204 74696D65 		.ascii	"timeout\000"
 1061      6F757400 
 1062              	.LASF28:
 1063 020c 744F5345 		.ascii	"tOSEvent\000"
 1063      76656E74 
 1063      00
 1064              	.LASF26:
 1065 0215 5F744F53 		.ascii	"_tOSEvent_\000"
 1065      4576656E 
 1065      745F00
 1066              	.LASF30:
 1067 0220 6576656E 		.ascii	"eventWait\000"
 1067      74576169 
 1067      7400
 1068              	.LASF6:
 1069 022a 73686F72 		.ascii	"short int\000"
 1069      7420696E 
 1069      7400
 1070              	.LASF36:
 1071 0234 70504342 		.ascii	"pPCB\000"
 1071      00
 1072              	.LASF13:
 1073 0239 704E6578 		.ascii	"pNextTimeQueue\000"
 1073      7454696D 
 1073      65517565 
 1073      756500
 1074              	.LASF5:
 1075 0248 7369676E 		.ascii	"signed char\000"
 1075      65642063 
 1075      68617200 
 1076              	.LASF16:
 1077 0254 736C6565 		.ascii	"sleep\000"
 1077      7000
 1078              	.LASF7:
 1079 025a 74426F6F 		.ascii	"tBool\000"
 1079      6C00
 1080              	.LASF8:
 1081 0260 7053746B 		.ascii	"pStk\000"
 1081      00
 1082              		.ident	"GCC: (GNU) 3.4.3"
ARM GAS  /cygdrive/c/DOCUME~1/ANDERS~1/LOKALA~1/Temp/cceAYvyG.s 			page 26


DEFINED SYMBOLS
                            *ABS*:00000000 event.c
/cygdrive/c/DOCUME~1/ANDERS~1/LOKALA~1/Temp/cceAYvyG.s:1      .text:00000000 $t
/cygdrive/c/DOCUME~1/ANDERS~1/LOKALA~1/Temp/cceAYvyG.s:16     .text:00000000 eventInit
/cygdrive/c/DOCUME~1/ANDERS~1/LOKALA~1/Temp/cceAYvyG.s:31     .text:0000000c $d
/cygdrive/c/DOCUME~1/ANDERS~1/LOKALA~1/Temp/cceAYvyG.s:39     .text:00000010 eventWait
/cygdrive/c/DOCUME~1/ANDERS~1/LOKALA~1/Temp/cceAYvyG.s:36     .text:00000010 $t
/cygdrive/c/DOCUME~1/ANDERS~1/LOKALA~1/Temp/cceAYvyG.s:81     .text:00000044 $d
/cygdrive/c/DOCUME~1/ANDERS~1/LOKALA~1/Temp/cceAYvyG.s:89     .text:00000048 eventWaitReturn
/cygdrive/c/DOCUME~1/ANDERS~1/LOKALA~1/Temp/cceAYvyG.s:86     .text:00000048 $t
/cygdrive/c/DOCUME~1/ANDERS~1/LOKALA~1/Temp/cceAYvyG.s:126    .text:00000074 $d
/cygdrive/c/DOCUME~1/ANDERS~1/LOKALA~1/Temp/cceAYvyG.s:134    .text:00000078 eventIsEmpty
/cygdrive/c/DOCUME~1/ANDERS~1/LOKALA~1/Temp/cceAYvyG.s:131    .text:00000078 $t
/cygdrive/c/DOCUME~1/ANDERS~1/LOKALA~1/Temp/cceAYvyG.s:154    .text:00000088 eventSignal
/cygdrive/c/DOCUME~1/ANDERS~1/LOKALA~1/Temp/cceAYvyG.s:209    .text:000000d4 $d

UNDEFINED SYMBOLS
initPrioQueue
processControlBlocks
rmvFromRdyList
addToPrioQueue
addToTimeList
pRunProc
rmvFromPrioQueue
isEmptyPrioQueue
getHighPrioQueue
rmvFromTimeList
addToRdyList
schedule
isrNesting
