ARM GAS  /cygdrive/c/DOCUME~1/ANDERS~1/LOKALA~1/Temp/ccd2VsKb.s 			page 1


   1              		.code	16
   2              		.file	"kernel.c"
   3              		.section	.debug_abbrev,"",%progbits
   4              	.Ldebug_abbrev0:
   5              		.section	.debug_info,"",%progbits
   6              	.Ldebug_info0:
   7              		.section	.debug_line,"",%progbits
   8              	.Ldebug_line0:
   9 0000 72010000 		.text
   9      02005200 
   9      00000201 
   9      FB0E0A00 
   9      01010101 
  10              	.Ltext0:
  11              		.global	osLockNesting
  12              		.bss
  13              		.type	osLockNesting, %object
  14              		.size	osLockNesting, 1
  15              	osLockNesting:
  16 0000 00       		.space	1
  17              		.global	isrNesting
  18              		.type	isrNesting, %object
  19              		.size	isrNesting, 1
  20              	isrNesting:
  21 0001 00       		.space	1
  22              		.global	pNxtToRun
  23 0002 0000     		.align	2
  24              		.type	pNxtToRun, %object
  25              		.size	pNxtToRun, 4
  26              	pNxtToRun:
  27 0004 00000000 		.space	4
  28              		.global	pRunProc
  29              		.align	2
  30              		.type	pRunProc, %object
  31              		.size	pRunProc, 4
  32              	pRunProc:
  33 0008 00000000 		.space	4
  34              		.align	2
  35              	pTimeList:
  36 000c 00000000 		.space	4
  37              	osRunning:
  38 0010 00       		.space	1
  39              		.text
  40              		.align	2
  41              		.global	osPid
  42              		.code 16
  43              		.thumb_func
  44              		.type	osPid, %function
  45              	osPid:
  46              	.LFB2:
  47              		.file 1 "core/kernel.c"
   1:core/kernel.c **** /******************************************************************************
   2:core/kernel.c ****  *
   3:core/kernel.c ****  * Copyright:
   4:core/kernel.c ****  *    (C) 2000 - 2005 Embedded Artists AB
   5:core/kernel.c ****  *
   6:core/kernel.c ****  * Description:
ARM GAS  /cygdrive/c/DOCUME~1/ANDERS~1/LOKALA~1/Temp/ccd2VsKb.s 			page 2


   7:core/kernel.c ****  *
   8:core/kernel.c ****  * ESIC:
   9:core/kernel.c ****  *    pre_emptive_os
  10:core/kernel.c ****  *
  11:core/kernel.c ****  * Version:
  12:core/kernel.c ****  *    1.4.0
  13:core/kernel.c ****  *
  14:core/kernel.c ****  * Generate date:
  15:core/kernel.c ****  *    2005-03-15 at 20:27:15
  16:core/kernel.c ****  *
  17:core/kernel.c ****  * NOTE:
  18:core/kernel.c ****  *    DO NOT EDIT THIS FILE. IT IS AUTO GENERATED.
  19:core/kernel.c ****  *    CHANGES TO THIS FILE WILL BE LOST IF THE FILE IS RE-GENERATED
  20:core/kernel.c ****  *
  21:core/kernel.c ****  * Signature:
  22:core/kernel.c ****  *   7072655F656D70746976655F6F73,312E342E302E30,020235
  23:core/kernel.c ****  *   ,35,10104021013134373435363030,07323838,3732,01013
  24:core/kernel.c ****  *   830,0101013138303030303030,3135,33,3135,0232323530
  25:core/kernel.c ****  *   ,01020130,0231343734353539,3238313831,020101100302
  26:core/kernel.c ****  *   103030310010133,0163130,3230,3330,3430,3530,3630,3
  27:core/kernel.c ****  *   730,3830,3930,313030,313130,313230,313330,313430,3
  28:core/kernel.c ****  *   13530,313630,,35,35,35,35,35,35,35,35,35,35,35,35,
  29:core/kernel.c ****  *   35,35,35,35,,,,1001001100011000000000]484152445741
  30:core/kernel.c ****  *   5245,4C5043323130365F32,545538,756E7369676E6564206
  31:core/kernel.c ****  *   3686172,414C49474E4D454E54,34,54424F4F4C,756E73696
  32:core/kernel.c ****  *   76E65642063686172,54553332,756E7369676E656420696E7
  33:core/kernel.c ****  *   4,544D505F46494C4553,2A2E656C663B2A2E6C73743B2A2E6
  34:core/kernel.c ****  *   D61703B2A2E6F3B2A2E6F626A3B2A2E64,454E4449414E,4C4
  35:core/kernel.c ****  *   954544C45,54533332,7369676E656420696E74,545338,736
  36:core/kernel.c ****  *   9676E65642063686172,54553136,756E7369676E656420736
  37:core/kernel.c ****  *   86F7274,54533136,7369676E65642073686F7274,44455343
  38:core/kernel.c ****  *   52495054494F4E,,44454255475F4C4556454C,30,434F4445
  39:core/kernel.c ****  *   5F524F4F54,,47454E5F52554C4553,,4C494E455F5445524D
  40:core/kernel.c ****  *   ,43524C46,4252414345,,43524541544F52,416E646572732
  41:core/kernel.c ****  *   0526F7376616C6C,4352454154494F4E5F44415445,3230303
  42:core/kernel.c ****  *   52D30332D31352032303A31373A3432,524F4F54,433A2F446
  43:core/kernel.c ****  *   F63756D656E747320616E642053657474696E67732F416E646
  44:core/kernel.c ****  *   5727320526F7376616C6C2F4D696E6120646F6B756D656E742
  45:core/kernel.c ****  *   F456D62656464656420417274697374732F50726F647563747
  46:core/kernel.c ****  *   32F4C50433231303620525332333220517569636B537461727
  47:core/kernel.c ****  *   420426F6172642F72746F732F]505245464958,,4445425547
  48:core/kernel.c ****  *   5F4C4556454C,30,555345525F434F4D4D454E54,]64656661
  49:core/kernel.c ****  *   756C74,
  50:core/kernel.c ****  *
  51:core/kernel.c ****  * Checksum:
  52:core/kernel.c ****  *    1257472
  53:core/kernel.c ****  *
  54:core/kernel.c ****  *****************************************************************************/
  55:core/kernel.c **** 
  56:core/kernel.c **** 
  57:core/kernel.c **** /******************************************************************************
  58:core/kernel.c ****  * Includes
  59:core/kernel.c ****  *****************************************************************************/
  60:core/kernel.c **** 
  61:core/kernel.c **** #include "kernel.h"
  62:core/kernel.c **** #include "hal.h"
  63:core/kernel.c **** #include "pcb.h"
ARM GAS  /cygdrive/c/DOCUME~1/ANDERS~1/LOKALA~1/Temp/ccd2VsKb.s 			page 3


  64:core/kernel.c **** #include "error.h"
  65:core/kernel.c **** #include "prioqueue.h"
  66:core/kernel.c **** #include "../stub/osstub.h"
  67:core/kernel.c **** #include "../api/general.h"
  68:core/kernel.c **** #include "timer.h"
  69:core/kernel.c **** 
  70:core/kernel.c **** #include "stack_usage.h"
  71:core/kernel.c **** 
  72:core/kernel.c **** 
  73:core/kernel.c **** 
  74:core/kernel.c **** /******************************************************************************
  75:core/kernel.c ****  * Public variables
  76:core/kernel.c ****  *****************************************************************************/
  77:core/kernel.c **** 
  78:core/kernel.c **** tOSPCB *pRunProc = NULL;        /* currently running process */
  79:core/kernel.c **** tOSPCB *pNxtToRun = NULL;       /* next process to run during context switch */
  80:core/kernel.c **** tU8 isrNesting = 0;             /* increased for every ISR enter and
  81:core/kernel.c ****                                    decreased for every ISR leave */
  82:core/kernel.c **** tU8 osLockNesting = 0;          /* This variable is used to lock the
  83:core/kernel.c ****                                    scheduler */
  84:core/kernel.c **** tOSPCB processControlBlocks[MAX_NUM_PROC];
  85:core/kernel.c **** 
  86:core/kernel.c **** /******************************************************************************
  87:core/kernel.c ****  * Local variables
  88:core/kernel.c ****  *****************************************************************************/
  89:core/kernel.c **** 
  90:core/kernel.c **** static tPrioQueue rdyQueue;
  91:core/kernel.c **** static tOSPCB *pTimeList = NULL;
  92:core/kernel.c **** static tBool osRunning = FALSE;
  93:core/kernel.c **** 
  94:core/kernel.c **** 
  95:core/kernel.c **** /******************************************************************************
  96:core/kernel.c ****  * Local functions
  97:core/kernel.c ****  *****************************************************************************/
  98:core/kernel.c **** 
  99:core/kernel.c **** /******************************************************************************
 100:core/kernel.c ****  * Implementation of public functions
 101:core/kernel.c ****  *****************************************************************************/
 102:core/kernel.c **** 
 103:core/kernel.c **** 
 104:core/kernel.c **** /*****************************************************************************
 105:core/kernel.c ****  *
 106:core/kernel.c ****  * Description:
 107:core/kernel.c ****  *    This function returns the process identification descriptor for the 
 108:core/kernel.c ****  *    running process. 
 109:core/kernel.c ****  *
 110:core/kernel.c ****  * Params:
 111:core/kernel.c ****  *    [out] pError - The return status of the function. 
 112:core/kernel.c ****  *
 113:core/kernel.c ****  * Returns:
 114:core/kernel.c ****  *    The process identification descriptor of the currently running process. 
 115:core/kernel.c ****  *
 116:core/kernel.c ****  * Error codes:
 117:core/kernel.c ****  *    OS_OK        - The function completed successfully. 
 118:core/kernel.c ****  *    OS_ERROR_ISR - The function was called from an interrupt service 
 119:core/kernel.c ****  *                   routine. 
 120:core/kernel.c ****  *
ARM GAS  /cygdrive/c/DOCUME~1/ANDERS~1/LOKALA~1/Temp/ccd2VsKb.s 			page 4


 121:core/kernel.c ****  ****************************************************************************/
 122:core/kernel.c **** tU8
 123:core/kernel.c **** osPid(tU8* pError)
 124:core/kernel.c **** {
  48              		.loc 1 124 0
  49 0000 10B5     		push	{r4, lr}
  50              	.LCFI0:
  51 0002 81B0     		sub	sp, sp, #4
  52              	.LCFI1:
  53              		.loc 1 124 0
  54 0004 041C     		mov	r4, r0
 125:core/kernel.c ****   volatile tSR localSR;  /* declare temporary local space for status word */
 126:core/kernel.c **** 
 127:core/kernel.c ****   tU8 pid;
 128:core/kernel.c ****   m_os_dis_int();
  55              		.loc 1 128 0
  56 0006 FFF7FEFF 		bl	halDisableInterrupts_oshal
  57 000a 0090     		str	r0, [sp]
  58 000c C046     		 nop
 129:core/kernel.c **** 
 130:core/kernel.c ****   *pError = OS_OK;
  59              		.loc 1 130 0
  60              		.code	16
  61 000e 0023     		mov	r3, #0
  62 0010 2370     		strb	r3, [r4]
 131:core/kernel.c ****   if(isrNesting > 0)
  63              		.loc 1 131 0
  64 0012 0C4B     		ldr	r3, .L3
  65 0014 1B78     		ldrb	r3, [r3]
  66 0016 002B     		cmp	r3, #0
  67 0018 07D0     		beq	.L2
 132:core/kernel.c ****   {
 133:core/kernel.c ****     m_os_ena_int();
  68              		.loc 1 133 0
  69 001a 0098     		ldr	r0, [sp]
  70 001c FFF7FEFF 		bl	halRestoreInterrupts_oshal
  71 0020 C046     		 nop
 134:core/kernel.c ****     *pError = OS_ERROR_ISR;
  72              		.loc 1 134 0
  73              		.code	16
  74 0022 0223     		mov	r3, #2
 135:core/kernel.c **** 
 136:core/kernel.c ****     return 0;
  75              		.loc 1 136 0
  76 0024 0020     		mov	r0, #0
  77              		.loc 1 134 0
  78 0026 2370     		strb	r3, [r4]
  79              		.loc 1 136 0
  80 0028 07E0     		b	.L1
  81              	.L2:
 137:core/kernel.c ****   }
 138:core/kernel.c **** 
 139:core/kernel.c ****   pid = pRunProc->pid;  
  82              		.loc 1 139 0
  83 002a 074B     		ldr	r3, .L3+4
  84 002c 1B68     		ldr	r3, [r3]
 140:core/kernel.c ****   m_os_ena_int();
ARM GAS  /cygdrive/c/DOCUME~1/ANDERS~1/LOKALA~1/Temp/ccd2VsKb.s 			page 5


  85              		.loc 1 140 0
  86 002e 0098     		ldr	r0, [sp]
  87              		.loc 1 139 0
  88 0030 1C7E     		ldrb	r4, [r3, #24]
  89              		.loc 1 140 0
  90 0032 FFF7FEFF 		bl	halRestoreInterrupts_oshal
  91 0036 C046     		 nop
 141:core/kernel.c ****   return pid;
  92              		.loc 1 141 0
  93              		.code	16
  94 0038 201C     		mov	r0, r4
  95              	.L1:
 142:core/kernel.c **** }
  96              		.loc 1 142 0
  97 003a 01B0     		add	sp, sp, #4
  98              		@ sp needed for prologue
  99 003c 10BC     		pop	{r4}
 100 003e 02BC     		pop	{r1}
 101 0040 0847     		bx	r1
 102              	.L4:
 103 0042 0000     		.align	2
 104              	.L3:
 105 0044 00000000 		.word	isrNesting
 106 0048 00000000 		.word	pRunProc
 107              	.LFE2:
 108              		.size	osPid, .-osPid
 109              		.align	2
 110              		.global	addToTimeList
 111              		.code 16
 112              		.thumb_func
 113              		.type	addToTimeList, %function
 114              	addToTimeList:
 115              	.LFB16:
 143:core/kernel.c **** 
 144:core/kernel.c **** 
 145:core/kernel.c **** /*****************************************************************************
 146:core/kernel.c ****  *
 147:core/kernel.c ****  * Description:
 148:core/kernel.c ****  *    This function puts a process to sleep for the specified number of ticks. 
 149:core/kernel.c ****  *
 150:core/kernel.c ****  * Params:
 151:core/kernel.c ****  *    [in] ticks - The number of ticks to put the process to sleep. 
 152:core/kernel.c ****  *
 153:core/kernel.c ****  ****************************************************************************/
 154:core/kernel.c **** void
 155:core/kernel.c **** osSleep(tU32 ticks)
 156:core/kernel.c **** {
 157:core/kernel.c ****   volatile tSR localSR;  /* declare temporary local space for status word */
 158:core/kernel.c **** 
 159:core/kernel.c ****   if(ticks > 0)
 160:core/kernel.c ****   {
 161:core/kernel.c ****     m_os_dis_int();
 162:core/kernel.c ****     pRunProc->sleep = ticks;
 163:core/kernel.c ****     rmvFromRdyList();
 164:core/kernel.c ****     addToTimeList();
 165:core/kernel.c ****     m_os_ena_int();
 166:core/kernel.c ****     schedule();
ARM GAS  /cygdrive/c/DOCUME~1/ANDERS~1/LOKALA~1/Temp/ccd2VsKb.s 			page 6


 167:core/kernel.c ****   }
 168:core/kernel.c **** }
 169:core/kernel.c **** 
 170:core/kernel.c **** 
 171:core/kernel.c **** /*****************************************************************************
 172:core/kernel.c ****  *
 173:core/kernel.c ****  * Description:
 174:core/kernel.c ****  *    This function must be called before any other call to the operating 
 175:core/kernel.c ****  *    system. 
 176:core/kernel.c ****  *
 177:core/kernel.c ****  ****************************************************************************/
 178:core/kernel.c **** void
 179:core/kernel.c **** osInit(void)
 180:core/kernel.c **** {
 181:core/kernel.c ****   tU16 i;
 182:core/kernel.c ****   for(i=0; i<MAX_NUM_PROC; i++)
 183:core/kernel.c ****   {
 184:core/kernel.c ****      processControlBlocks[i].flag = 0;
 185:core/kernel.c ****   }
 186:core/kernel.c ****   initPrioQueue(&rdyQueue, processControlBlocks);
 187:core/kernel.c **** }
 188:core/kernel.c **** 
 189:core/kernel.c **** 
 190:core/kernel.c **** /*****************************************************************************
 191:core/kernel.c ****  *
 192:core/kernel.c ****  * Description:
 193:core/kernel.c ****  *    This function starts the operating system. There must be at least one 
 194:core/kernel.c ****  *    process created and started before this function is called. A process is 
 195:core/kernel.c ****  *    created by calling osCreateProcess and started by calling 
 196:core/kernel.c ****  *    osStartProcess. osStart, osCreateProcess and osStartProcess are the only 
 197:core/kernel.c ****  *    operating system functions that may be called before the operating 
 198:core/kernel.c ****  *    system is started. If other operating system functions are called before 
 199:core/kernel.c ****  *    the operating system is started the behavior is undefined. The preferred 
 200:core/kernel.c ****  *    way of starting up a multitasking system is to only create and start an 
 201:core/kernel.c ****  *    init process in the main function before osStart is called. The init 
 202:core/kernel.c ****  *    process initializes the system and starts other processes needed. The 
 203:core/kernel.c ****  *    init process can safely initialize other operating system objects like 
 204:core/kernel.c ****  *    semaphores, queues, etc. 
 205:core/kernel.c ****  *
 206:core/kernel.c ****  ****************************************************************************/
 207:core/kernel.c **** void
 208:core/kernel.c **** osStart(void)
 209:core/kernel.c **** {
 210:core/kernel.c ****   volatile tSR localSR = 0;  /* declare temporary local space for status word */
 211:core/kernel.c **** 
 212:core/kernel.c **** 
 213:core/kernel.c ****   m_os_dis_int();
 214:core/kernel.c ****   osRunning = TRUE;
 215:core/kernel.c ****   m_os_init_hal();
 216:core/kernel.c ****   osGetHighPrioProc();
 217:core/kernel.c ****   m_os_start_high_proc();
 218:core/kernel.c **** }
 219:core/kernel.c **** 
 220:core/kernel.c **** 
 221:core/kernel.c **** /*****************************************************************************
 222:core/kernel.c ****  *
 223:core/kernel.c ****  * Description:
ARM GAS  /cygdrive/c/DOCUME~1/ANDERS~1/LOKALA~1/Temp/ccd2VsKb.s 			page 7


 224:core/kernel.c ****  *    This function is used to notify the operating system that the 
 225:core/kernel.c ****  *    application has entered an interrupt service routine (ISR). This is 
 226:core/kernel.c ****  *    important if the ISR is using services from the operating system, since 
 227:core/kernel.c ****  *    some services need to know if they are executed from an ISR or not. The 
 228:core/kernel.c ****  *    function osISRExit should be used before the ISR returns to 
 229:core/kernel.c ****  *    notify the operating system about the ISR exit. 
 230:core/kernel.c ****  *
 231:core/kernel.c ****  ****************************************************************************/
 232:core/kernel.c **** void
 233:core/kernel.c **** osISREnter(void)
 234:core/kernel.c **** {
 235:core/kernel.c ****   if (osRunning == TRUE)
 236:core/kernel.c ****   {
 237:core/kernel.c ****     if (isrNesting < 255)
 238:core/kernel.c ****       isrNesting++;
 239:core/kernel.c ****   }
 240:core/kernel.c **** }
 241:core/kernel.c **** 
 242:core/kernel.c **** 
 243:core/kernel.c **** /*****************************************************************************
 244:core/kernel.c ****  *
 245:core/kernel.c ****  * Description:
 246:core/kernel.c ****  *    This function is used to notify the operating system that the currently 
 247:core/kernel.c ****  *    serviced interrupt is about to exit. The function is always used in 
 248:core/kernel.c ****  *    conjunction with the function osISREnter, which should always 
 249:core/kernel.c ****  *    be called before osISRExit. It is important to notify the OS 
 250:core/kernel.c ****  *    about ISRs (Interrupt Service Routines) if they are using services from 
 251:core/kernel.c ****  *    the operating system (since some services need to know if they are 
 252:core/kernel.c ****  *    executed from an ISR or not). 
 253:core/kernel.c ****  *
 254:core/kernel.c ****  ****************************************************************************/
 255:core/kernel.c **** void
 256:core/kernel.c **** osISRExit(void)
 257:core/kernel.c **** {
 258:core/kernel.c ****   volatile tSR localSR;  /* declare temporary local space for status word */
 259:core/kernel.c **** 
 260:core/kernel.c ****   if (osRunning == TRUE)
 261:core/kernel.c ****   {
 262:core/kernel.c ****     m_os_dis_int();
 263:core/kernel.c ****     
 264:core/kernel.c ****     if (isrNesting > 0)
 265:core/kernel.c ****       isrNesting--;
 266:core/kernel.c **** 
 267:core/kernel.c ****     if ((osLockNesting == 0) && (isrNesting == 0))
 268:core/kernel.c ****     {
 269:core/kernel.c ****       osGetHighPrioProc();
 270:core/kernel.c ****       if ((pRunProc != pNxtToRun) && (pNxtToRun != NULL))
 271:core/kernel.c ****       {
 272:core/kernel.c ****         m_os_isr_ctx_switch();
 273:core/kernel.c ****       }
 274:core/kernel.c ****     }
 275:core/kernel.c ****     m_os_ena_int();
 276:core/kernel.c ****   }
 277:core/kernel.c **** }
 278:core/kernel.c **** 
 279:core/kernel.c **** 
 280:core/kernel.c **** /*****************************************************************************
ARM GAS  /cygdrive/c/DOCUME~1/ANDERS~1/LOKALA~1/Temp/ccd2VsKb.s 			page 8


 281:core/kernel.c ****  *
 282:core/kernel.c ****  * Description:
 283:core/kernel.c ****  *    This function deletes the currently running process. The process control 
 284:core/kernel.c ****  *    block used by the process will be freed and is therefore available for 
 285:core/kernel.c ****  *    new processes. 
 286:core/kernel.c ****  *
 287:core/kernel.c ****  ****************************************************************************/
 288:core/kernel.c **** void
 289:core/kernel.c **** osDeleteProcess(void)
 290:core/kernel.c **** {
 291:core/kernel.c ****   volatile tSR localSR;  /* declare temporary local space for status word */
 292:core/kernel.c **** 
 293:core/kernel.c ****   m_os_dis_int();
 294:core/kernel.c ****   rmvFromRdyList();
 295:core/kernel.c ****   pRunProc->flag = 0;
 296:core/kernel.c ****   m_os_ena_int();
 297:core/kernel.c ****   schedule();
 298:core/kernel.c **** }
 299:core/kernel.c **** 
 300:core/kernel.c **** 
 301:core/kernel.c **** 
 302:core/kernel.c **** /*****************************************************************************
 303:core/kernel.c ****  *
 304:core/kernel.c ****  * Description:
 305:core/kernel.c ****  *    This function creates a new process. The process is not automatically 
 306:core/kernel.c ****  *    started. To start the process the osStartProcess function must be 
 307:core/kernel.c ****  *    called. A new process can only be created if there is a free process 
 308:core/kernel.c ****  *    control block available. The number of process control blocks is 
 309:core/kernel.c ****  *    specified during operating system configuration (maximum number of 
 310:core/kernel.c ****  *    processes). 
 311:core/kernel.c ****  *
 312:core/kernel.c ****  * Params:
 313:core/kernel.c ****  *    [in]  pProc   - The process entry function. 
 314:core/kernel.c ****  * 
 315:core/kernel.c ****  *              Params (callback):
 316:core/kernel.c ****  *                 arg - This argument can be used to pass arbitrary 
 317:core/kernel.c ****  *                       information to the process entry function when the 
 318:core/kernel.c ****  *                       process is started. 
 319:core/kernel.c ****  *    [in]  pStk    - A pointer to the stack area to use. The stack area must 
 320:core/kernel.c ****  *                    be allocated before the process is created. 
 321:core/kernel.c ****  *    [in]  stkSize - The size of the stack area in bytes. 
 322:core/kernel.c ****  *    [out] pPid    - The returned process identification descriptor (pid). 
 323:core/kernel.c ****  *    [in]  prio    - The priority of the process. The priority is a number 
 324:core/kernel.c ****  *                    between 0 and NUM_PRIO-1, where NUM_PRIO is specified 
 325:core/kernel.c ****  *                    during operating system configuration (maximum number of 
 326:core/kernel.c ****  *                    priorities). 0 is the highest priority level and 
 327:core/kernel.c ****  *                    NUM_PRIO-1 is the lowest priority level. The operating 
 328:core/kernel.c ****  *                    system will always run the process that has the highest 
 329:core/kernel.c ****  *                    priority and is ready to run, i.e. is not sleeping, 
 330:core/kernel.c ****  *                    suspended or waiting for a synchronization primitive. If 
 331:core/kernel.c ****  *                    several processes are run on the same priority level 
 332:core/kernel.c ****  *                    they are scheduled in a round-robin fashion. 
 333:core/kernel.c ****  *    [in]  pParam  - This parameter is passed to the process entry function 
 334:core/kernel.c ****  *                    when the process is started. 
 335:core/kernel.c ****  *    [out] pError  - The return status of the function. 
 336:core/kernel.c ****  *
 337:core/kernel.c ****  * Error codes:
ARM GAS  /cygdrive/c/DOCUME~1/ANDERS~1/LOKALA~1/Temp/ccd2VsKb.s 			page 9


 338:core/kernel.c ****  *    OS_OK             - The function completed successfully. 
 339:core/kernel.c ****  *    OS_ERROR_PRIO     - The supplied priority is not correct. 
 340:core/kernel.c ****  *    OS_ERROR_ALLOCATE - The process could not be created since there are no 
 341:core/kernel.c ****  *                        free process control blocks available. The number of 
 342:core/kernel.c ****  *                        process control blocks is specified during operating 
 343:core/kernel.c ****  *                        system configuration (maximum number of processes). 
 344:core/kernel.c ****  *
 345:core/kernel.c ****  ****************************************************************************/
 346:core/kernel.c **** void
 347:core/kernel.c **** osCreateProcess(void  (*pProc) (void* arg),
 348:core/kernel.c ****                 tU8*  pStk,
 349:core/kernel.c ****                 tU16  stkSize,
 350:core/kernel.c ****                 tU8*  pPid,
 351:core/kernel.c ****                 tU8   prio,
 352:core/kernel.c ****                 void* pParam,
 353:core/kernel.c ****                 tU8*  pError)
 354:core/kernel.c **** {
 355:core/kernel.c ****   tOSPCB *pPCB;
 356:core/kernel.c ****   tU8 pid;
 357:core/kernel.c **** 
 358:core/kernel.c ****   *pError = OS_OK;
 359:core/kernel.c ****   if(prio >= NUM_PRIO)
 360:core/kernel.c ****   {
 361:core/kernel.c ****     *pError = OS_ERROR_PRIO;
 362:core/kernel.c **** 
 363:core/kernel.c ****       return;
 364:core/kernel.c ****   }
 365:core/kernel.c ****   for(pid = 0; 
 366:core/kernel.c ****       pid < MAX_NUM_PROC; 
 367:core/kernel.c ****       pid++)
 368:core/kernel.c ****   {
 369:core/kernel.c ****     if(processControlBlocks[pid].flag == 0)
 370:core/kernel.c ****       break;
 371:core/kernel.c ****   }
 372:core/kernel.c ****   if(pid == MAX_NUM_PROC)
 373:core/kernel.c ****   {
 374:core/kernel.c ****     *pError = OS_ERROR_ALLOCATE;
 375:core/kernel.c **** 
 376:core/kernel.c ****     return;
 377:core/kernel.c ****   }
 378:core/kernel.c **** 
 379:core/kernel.c ****   pPCB  = &processControlBlocks[pid];
 380:core/kernel.c **** 
 381:core/kernel.c **** 
 382:core/kernel.c ****   pPCB->pStkOrg = pStk;
 383:core/kernel.c ****   pPCB->stackSize = stkSize;
 384:core/kernel.c ****   createStackPattern(pStk, stkSize);
 385:core/kernel.c **** 
 386:core/kernel.c **** 
 387:core/kernel.c ****   pStk = pStk + stkSize;                        /* stack grows from high to low memory */
 388:core/kernel.c ****   pStk = (tU8*)((tU32)pStk & 0xFFFFFFFC);       /* 4 byte alignment */
 389:core/kernel.c **** 
 390:core/kernel.c **** 
 391:core/kernel.c ****   pPCB->pStk = m_os_stk_frame_init(pProc, 
 392:core/kernel.c ****                                 pStk, 
 393:core/kernel.c ****                                 pParam, 
 394:core/kernel.c ****                                 NULL);
ARM GAS  /cygdrive/c/DOCUME~1/ANDERS~1/LOKALA~1/Temp/ccd2VsKb.s 			page 10


 395:core/kernel.c **** 
 396:core/kernel.c ****   pPCB->pid = pid;
 397:core/kernel.c ****   *pPid = pid;
 398:core/kernel.c ****   pPCB->sleep = 0;
 399:core/kernel.c ****   pPCB->flag = (tU8)PROC_ENDED;
 400:core/kernel.c ****   pPCB->pNextPrioQueueReady = NULL;
 401:core/kernel.c ****   pPCB->pPrevPrioQueueReady = NULL;
 402:core/kernel.c ****   pPCB->pNextPrioQueueEvent = NULL;
 403:core/kernel.c ****   pPCB->pPrevPrioQueueEvent = NULL;
 404:core/kernel.c **** 
 405:core/kernel.c ****   pPCB->pNextTimeQueue = NULL;
 406:core/kernel.c ****   pPCB->prio = prio;
 407:core/kernel.c **** }
 408:core/kernel.c **** 
 409:core/kernel.c **** 
 410:core/kernel.c **** /*****************************************************************************
 411:core/kernel.c ****  *
 412:core/kernel.c ****  * Description:
 413:core/kernel.c ****  *    This function is used to start a process. The process must previously 
 414:core/kernel.c ****  *    have been created by a call to osCreateProcess. 
 415:core/kernel.c ****  *
 416:core/kernel.c ****  * Params:
 417:core/kernel.c ****  *    [in]  pid    - The process identification descriptor (pid) of the 
 418:core/kernel.c ****  *                   process to start. The pid is returned by osCreateProcess. 
 419:core/kernel.c ****  *    [out] pError - The return status of the function. 
 420:core/kernel.c ****  *
 421:core/kernel.c ****  * Error codes:
 422:core/kernel.c ****  *    OS_OK        - The function completed successfully. 
 423:core/kernel.c ****  *    OS_ERROR_PID - The supplied pid is not correct. 
 424:core/kernel.c ****  *
 425:core/kernel.c ****  ****************************************************************************/
 426:core/kernel.c **** void
 427:core/kernel.c **** osStartProcess(tU8  pid,
 428:core/kernel.c ****                tU8* pError)
 429:core/kernel.c **** {
 430:core/kernel.c ****   volatile tSR localSR = 0;  /* declare temporary local space for status word */
 431:core/kernel.c **** 
 432:core/kernel.c ****   *pError = OS_OK;
 433:core/kernel.c ****   if(pid >= MAX_NUM_PROC)
 434:core/kernel.c ****   {
 435:core/kernel.c ****     *pError = OS_ERROR_PID;
 436:core/kernel.c **** 
 437:core/kernel.c ****     return;
 438:core/kernel.c ****   }
 439:core/kernel.c ****   if(processControlBlocks[pid].flag != PROC_ENDED)
 440:core/kernel.c ****   {
 441:core/kernel.c ****     *pError = OS_ERROR_PID;
 442:core/kernel.c **** 
 443:core/kernel.c ****     return;
 444:core/kernel.c ****   }
 445:core/kernel.c **** 
 446:core/kernel.c ****   if(osRunning == TRUE)
 447:core/kernel.c ****   {
 448:core/kernel.c ****     m_os_dis_int();
 449:core/kernel.c ****   }
 450:core/kernel.c **** 
 451:core/kernel.c ****   processControlBlocks[pid].flag = (tU8)PROC_ACTIVE;
ARM GAS  /cygdrive/c/DOCUME~1/ANDERS~1/LOKALA~1/Temp/ccd2VsKb.s 			page 11


 452:core/kernel.c ****   addToRdyList(&processControlBlocks[pid]);
 453:core/kernel.c **** 
 454:core/kernel.c ****   if(osRunning == TRUE)
 455:core/kernel.c ****   {
 456:core/kernel.c ****     m_os_ena_int();
 457:core/kernel.c ****     schedule();
 458:core/kernel.c ****   }
 459:core/kernel.c **** }
 460:core/kernel.c **** 
 461:core/kernel.c **** 
 462:core/kernel.c **** /*****************************************************************************
 463:core/kernel.c ****  *
 464:core/kernel.c ****  * Description:
 465:core/kernel.c ****  *    This function must be called periodically, usually from a timer 
 466:core/kernel.c ****  *    interrupt, to generate a system tick. It is essential to the operating 
 467:core/kernel.c ****  *    system to receive a periodic tick to work at all. All times in the 
 468:core/kernel.c ****  *    operating system is measured in system ticks, i.e. the time between two 
 469:core/kernel.c ****  *    system ticks. 
 470:core/kernel.c ****  *
 471:core/kernel.c ****  ****************************************************************************/
 472:core/kernel.c **** void
 473:core/kernel.c **** osTick(void)
 474:core/kernel.c **** {
 475:core/kernel.c ****   volatile tSR localSR;  /* declare temporary local space for status word */
 476:core/kernel.c ****   tOSPCB *pMove;
 477:core/kernel.c ****   m_os_dis_int();
 478:core/kernel.c ****   if(pTimeList != NULL)
 479:core/kernel.c ****   {
 480:core/kernel.c ****     pTimeList->sleep--;
 481:core/kernel.c ****     while(pTimeList->sleep == 0)
 482:core/kernel.c ****     {
 483:core/kernel.c ****       pMove = pTimeList;
 484:core/kernel.c ****       pTimeList = pMove->pNextTimeQueue;
 485:core/kernel.c ****       pMove->flag &= ~(tU8)PROC_SLEEP;
 486:core/kernel.c ****       addToRdyList(pMove);
 487:core/kernel.c ****       if(pTimeList == NULL)
 488:core/kernel.c ****         break;
 489:core/kernel.c ****     }
 490:core/kernel.c ****   }
 491:core/kernel.c ****   m_os_ena_int();
 492:core/kernel.c ****   timerTick();
 493:core/kernel.c **** 
 494:core/kernel.c ****   m_os_user_tick();
 495:core/kernel.c **** }
 496:core/kernel.c **** 
 497:core/kernel.c **** 
 498:core/kernel.c **** /*****************************************************************************
 499:core/kernel.c ****  *
 500:core/kernel.c ****  * Description:
 501:core/kernel.c ****  *    This function suspends the currently running process. Another process 
 502:core/kernel.c ****  *    can resume it by a call to osResume. 
 503:core/kernel.c ****  *
 504:core/kernel.c ****  ****************************************************************************/
 505:core/kernel.c **** void
 506:core/kernel.c **** osSuspend(void)
 507:core/kernel.c **** {
 508:core/kernel.c ****   volatile tSR localSR;  /* declare temporary local space for status word */
ARM GAS  /cygdrive/c/DOCUME~1/ANDERS~1/LOKALA~1/Temp/ccd2VsKb.s 			page 12


 509:core/kernel.c **** 
 510:core/kernel.c ****   m_os_dis_int();
 511:core/kernel.c ****   pRunProc->flag |= (tU8)PROC_SUSPENDED;
 512:core/kernel.c ****   rmvFromRdyList();
 513:core/kernel.c ****   m_os_ena_int();
 514:core/kernel.c ****   schedule();
 515:core/kernel.c **** }
 516:core/kernel.c **** 
 517:core/kernel.c **** 
 518:core/kernel.c **** /*****************************************************************************
 519:core/kernel.c ****  *
 520:core/kernel.c ****  * Description:
 521:core/kernel.c ****  *    This function resumes a suspended process. It is valid to do resume on a 
 522:core/kernel.c ****  *    process that has not been suspended. 
 523:core/kernel.c ****  *
 524:core/kernel.c ****  * Params:
 525:core/kernel.c ****  *    [in]  pid    - The process to resume. 
 526:core/kernel.c ****  *    [out] pError - The return status of the function. 
 527:core/kernel.c ****  *
 528:core/kernel.c ****  * Error codes:
 529:core/kernel.c ****  *    OS_OK        - The function completed successfully. 
 530:core/kernel.c ****  *    OS_ERROR_PID - The supplied pid is not correct. 
 531:core/kernel.c ****  *
 532:core/kernel.c ****  ****************************************************************************/
 533:core/kernel.c **** void
 534:core/kernel.c **** osResume(tU8  pid,
 535:core/kernel.c ****          tU8* pError)
 536:core/kernel.c **** {
 537:core/kernel.c ****   volatile tSR localSR;  /* declare temporary local space for status word */
 538:core/kernel.c **** 
 539:core/kernel.c ****   *pError = OS_OK;
 540:core/kernel.c ****   if(pid >= MAX_NUM_PROC)
 541:core/kernel.c ****   {
 542:core/kernel.c ****     *pError = OS_ERROR_PID;
 543:core/kernel.c **** 
 544:core/kernel.c ****     return;
 545:core/kernel.c ****   }
 546:core/kernel.c **** 
 547:core/kernel.c ****   m_os_dis_int();
 548:core/kernel.c ****   if(((processControlBlocks[pid].flag) & PROC_SUSPENDED) == 0)
 549:core/kernel.c ****   {
 550:core/kernel.c ****     m_os_ena_int();
 551:core/kernel.c ****     return;
 552:core/kernel.c ****   }
 553:core/kernel.c **** 
 554:core/kernel.c ****   processControlBlocks[pid].flag &= ~(tU8)PROC_SUSPENDED;
 555:core/kernel.c ****   addToRdyList(&processControlBlocks[pid]);
 556:core/kernel.c ****   if(isrNesting == 0)
 557:core/kernel.c ****   {
 558:core/kernel.c ****     m_os_ena_int();
 559:core/kernel.c ****     schedule();
 560:core/kernel.c ****   }
 561:core/kernel.c ****   else
 562:core/kernel.c ****     m_os_ena_int();
 563:core/kernel.c **** }
 564:core/kernel.c **** 
 565:core/kernel.c **** 
ARM GAS  /cygdrive/c/DOCUME~1/ANDERS~1/LOKALA~1/Temp/ccd2VsKb.s 			page 13


 566:core/kernel.c **** /*****************************************************************************
 567:core/kernel.c ****  *
 568:core/kernel.c ****  * Description:
 569:core/kernel.c ****  *    This function makes a context switch if there is a process with higher 
 570:core/kernel.c ****  *    or equal priority to the one already running. 
 571:core/kernel.c ****  *
 572:core/kernel.c ****  ****************************************************************************/
 573:core/kernel.c **** void
 574:core/kernel.c **** schedule(void)
 575:core/kernel.c **** {
 576:core/kernel.c ****   volatile tSR localSR;  /* declare temporary local space for status word */
 577:core/kernel.c **** 
 578:core/kernel.c ****   m_os_dis_int();
 579:core/kernel.c ****   if(osLockNesting == 0)
 580:core/kernel.c ****   {
 581:core/kernel.c ****     wakefromidle:
 582:core/kernel.c ****     osGetHighPrioProc();
 583:core/kernel.c ****     if(pNxtToRun == NULL)
 584:core/kernel.c ****     {
 585:core/kernel.c ****       osLockNesting++;
 586:core/kernel.c ****       m_os_ena_int();
 587:core/kernel.c ****       m_os_idle();
 588:core/kernel.c ****       m_os_dis_int();
 589:core/kernel.c ****       osLockNesting--;
 590:core/kernel.c ****       goto wakefromidle;
 591:core/kernel.c ****     }
 592:core/kernel.c ****     if(pNxtToRun != pRunProc)
 593:core/kernel.c ****     {
 594:core/kernel.c ****       m_os_ctx_switch();
 595:core/kernel.c ****     }
 596:core/kernel.c ****   }
 597:core/kernel.c ****   m_os_ena_int();
 598:core/kernel.c **** }
 599:core/kernel.c **** 
 600:core/kernel.c **** 
 601:core/kernel.c **** /*****************************************************************************
 602:core/kernel.c ****  *
 603:core/kernel.c ****  * Description:
 604:core/kernel.c ****  *    This function implements the scheduling policy and modifies the 
 605:core/kernel.c ****  *    pNxtToRun pointer to point to the process that should run according to 
 606:core/kernel.c ****  *    the policy. The policy is to always run the process with the highest 
 607:core/kernel.c ****  *    priority that is ready to run. If there is more than one process with 
 608:core/kernel.c ****  *    the highest priority, the processes are scheduled in a round-robin 
 609:core/kernel.c ****  *    fashion. 
 610:core/kernel.c ****  *
 611:core/kernel.c ****  ****************************************************************************/
 612:core/kernel.c **** void
 613:core/kernel.c **** osGetHighPrioProc(void)
 614:core/kernel.c **** {
 615:core/kernel.c ****   pNxtToRun = getHighPrioQueue(&rdyQueue, READY_QUEUE);
 616:core/kernel.c **** }
 617:core/kernel.c **** 
 618:core/kernel.c **** 
 619:core/kernel.c **** /*****************************************************************************
 620:core/kernel.c ****  *
 621:core/kernel.c ****  * Description:
 622:core/kernel.c ****  *    This function adds a process to the time-list. The time-list contains 
ARM GAS  /cygdrive/c/DOCUME~1/ANDERS~1/LOKALA~1/Temp/ccd2VsKb.s 			page 14


 623:core/kernel.c ****  *    processes suspended for a certain amount of time. As times expire they 
 624:core/kernel.c ****  *    are put back to the ready-list. The function operates on the currently 
 625:core/kernel.c ****  *    running process. 
 626:core/kernel.c ****  *
 627:core/kernel.c ****  ****************************************************************************/
 628:core/kernel.c **** void
 629:core/kernel.c **** addToTimeList(void)
 630:core/kernel.c **** {
 116              		.loc 1 630 0
 117 004c 70B5     		push	{r4, r5, r6, lr}
 118              	.LCFI2:
 631:core/kernel.c ****   tOSPCB * pPCB = NULL;
 632:core/kernel.c ****   tOSPCB * pPrev = NULL;
 633:core/kernel.c **** 
 634:core/kernel.c ****   pRunProc->flag |= (tU8)PROC_SLEEP;
 119              		.loc 1 634 0
 120 004e 164E     		ldr	r6, .L17
 121 0050 3368     		ldr	r3, [r6]
 122 0052 9A7E     		ldrb	r2, [r3, #26]
 123 0054 0421     		mov	r1, #4
 124 0056 0A43     		orr	r2, r2, r1
 125 0058 9A76     		strb	r2, [r3, #26]
 635:core/kernel.c **** 
 636:core/kernel.c ****   if(pTimeList == NULL)
 126              		.loc 1 636 0
 127 005a 144C     		ldr	r4, .L17+4
 128 005c 2368     		ldr	r3, [r4]
 129              		.loc 1 631 0
 130 005e 0020     		mov	r0, #0
 131              		.loc 1 632 0
 132 0060 0025     		mov	r5, #0
 133              		.loc 1 636 0
 134 0062 002B     		cmp	r3, #0
 135 0064 03D1     		bne	.L6
 637:core/kernel.c ****   {
 638:core/kernel.c ****     pTimeList = pRunProc;
 136              		.loc 1 638 0
 137 0066 3368     		ldr	r3, [r6]
 138 0068 2360     		str	r3, [r4]
 639:core/kernel.c ****     pRunProc->pNextTimeQueue = NULL;    
 139              		.loc 1 639 0
 140 006a 5861     		str	r0, [r3, #20]
 141 006c 18E0     		b	.L5
 142              	.L6:
 640:core/kernel.c ****   }
 641:core/kernel.c ****   else
 642:core/kernel.c ****   {
 643:core/kernel.c ****     for(pPCB = pTimeList;
 143              		.loc 1 643 0
 144 006e 181C     		mov	r0, r3
 145              	.L12:
 644:core/kernel.c ****         pPCB != NULL;
 645:core/kernel.c ****         pPCB = pPCB->pNextTimeQueue)
 646:core/kernel.c ****     {
 647:core/kernel.c ****       if(pRunProc->sleep <= pPCB->sleep)
 146              		.loc 1 647 0
 147 0070 3268     		ldr	r2, [r6]
ARM GAS  /cygdrive/c/DOCUME~1/ANDERS~1/LOKALA~1/Temp/ccd2VsKb.s 			page 15


 148 0072 C369     		ldr	r3, [r0, #28]
 149 0074 D169     		ldr	r1, [r2, #28]
 150 0076 9942     		cmp	r1, r3
 151 0078 05D9     		bls	.L9
 648:core/kernel.c ****       {
 649:core/kernel.c ****         break;
 650:core/kernel.c ****       }
 651:core/kernel.c ****       pRunProc->sleep -= pPCB->sleep;
 652:core/kernel.c ****       pPrev = pPCB;
 152              		.loc 1 652 0
 153 007a 051C     		mov	r5, r0
 154              		.loc 1 643 0
 155 007c 4069     		ldr	r0, [r0, #20]
 156              		.loc 1 651 0
 157 007e CB1A     		sub	r3, r1, r3
 158 0080 D361     		str	r3, [r2, #28]
 159              		.loc 1 643 0
 160 0082 0028     		cmp	r0, #0
 161 0084 F4D1     		bne	.L12
 162              	.L9:
 653:core/kernel.c ****     }
 654:core/kernel.c ****     /* insert pRunProc between pPrev and pPCB */
 655:core/kernel.c **** 
 656:core/kernel.c ****     pRunProc->pNextTimeQueue = pPCB;
 163              		.loc 1 656 0
 164 0086 5061     		str	r0, [r2, #20]
 657:core/kernel.c ****     
 658:core/kernel.c ****     if(pPrev != NULL)
 165              		.loc 1 658 0
 166 0088 002D     		cmp	r5, #0
 167 008a 01D0     		beq	.L13
 659:core/kernel.c ****       pPrev->pNextTimeQueue = pRunProc;
 168              		.loc 1 659 0
 169 008c 6A61     		str	r2, [r5, #20]
 170 008e 00E0     		b	.L14
 171              	.L13:
 660:core/kernel.c ****     else
 661:core/kernel.c ****       pTimeList = pRunProc;
 172              		.loc 1 661 0
 173 0090 2260     		str	r2, [r4]
 174              	.L14:
 662:core/kernel.c ****     
 663:core/kernel.c ****     if(pPCB != NULL)
 175              		.loc 1 663 0
 176 0092 0028     		cmp	r0, #0
 177 0094 04D0     		beq	.L5
 664:core/kernel.c ****       pPCB->sleep -= pRunProc->sleep; /* update relative sleep time */
 178              		.loc 1 664 0
 179 0096 3368     		ldr	r3, [r6]
 180 0098 C269     		ldr	r2, [r0, #28]
 181 009a DB69     		ldr	r3, [r3, #28]
 182 009c D21A     		sub	r2, r2, r3
 183 009e C261     		str	r2, [r0, #28]
 184              	.L5:
 665:core/kernel.c ****   }  
 666:core/kernel.c **** }
 185              		.loc 1 666 0
ARM GAS  /cygdrive/c/DOCUME~1/ANDERS~1/LOKALA~1/Temp/ccd2VsKb.s 			page 16


 186              		@ sp needed for prologue
 187 00a0 70BC     		pop	{r4, r5, r6}
 188 00a2 01BC     		pop	{r0}
 189 00a4 0047     		bx	r0
 190              	.L18:
 191 00a6 0000     		.align	2
 192              	.L17:
 193 00a8 00000000 		.word	pRunProc
 194 00ac 0C000000 		.word	pTimeList
 195              	.LFE16:
 196              		.size	addToTimeList, .-addToTimeList
 197              		.align	2
 198              		.global	osInit
 199              		.code 16
 200              		.thumb_func
 201              		.type	osInit, %function
 202              	osInit:
 203              	.LFB4:
 204              		.loc 1 180 0
 205 00b0 00B5     		push	{lr}
 206              	.LCFI3:
 207 00b2 0849     		ldr	r1, .L26
 208              		.loc 1 182 0
 209 00b4 0020     		mov	r0, #0
 210              	.L23:
 211              		.loc 1 184 0
 212 00b6 2823     		mov	r3, #40
 213 00b8 4343     		mul	r3, r3, r0
 214 00ba 0022     		mov	r2, #0
 215 00bc 5B18     		add	r3, r3, r1
 216 00be 9A76     		strb	r2, [r3, #26]
 217              		.loc 1 182 0
 218 00c0 431C     		add	r3, r0, #1
 219 00c2 1B04     		lsl	r3, r3, #16
 220 00c4 180C     		lsr	r0, r3, #16
 221 00c6 0528     		cmp	r0, #5
 222 00c8 F5D9     		bls	.L23
 223              		.loc 1 186 0
 224 00ca 0348     		ldr	r0, .L26+4
 225 00cc FFF7FEFF 		bl	initPrioQueue
 226              		@ sp needed for prologue
 227 00d0 01BC     		pop	{r0}
 228 00d2 0047     		bx	r0
 229              	.L27:
 230              		.align	2
 231              	.L26:
 232 00d4 00000000 		.word	processControlBlocks
 233 00d8 14000000 		.word	rdyQueue
 234              	.LFE4:
 235              		.size	osInit, .-osInit
 236              		.align	2
 237              		.global	osISREnter
 238              		.code 16
 239              		.thumb_func
 240              		.type	osISREnter, %function
 241              	osISREnter:
 242              	.LFB6:
ARM GAS  /cygdrive/c/DOCUME~1/ANDERS~1/LOKALA~1/Temp/ccd2VsKb.s 			page 17


 243              		.loc 1 234 0
 244 00dc 00B5     		push	{lr}
 245              	.LCFI4:
 246              		.loc 1 235 0
 247 00de 064B     		ldr	r3, .L31
 248 00e0 1B78     		ldrb	r3, [r3]
 249 00e2 012B     		cmp	r3, #1
 250 00e4 05D1     		bne	.L28
 251              		.loc 1 237 0
 252 00e6 054A     		ldr	r2, .L31+4
 253 00e8 1178     		ldrb	r1, [r2]
 254 00ea FF29     		cmp	r1, #255
 255 00ec 01D0     		beq	.L28
 256              		.loc 1 238 0
 257 00ee 4B1C     		add	r3, r1, #1
 258 00f0 1370     		strb	r3, [r2]
 259              	.L28:
 260              		.loc 1 240 0
 261              		@ sp needed for prologue
 262 00f2 01BC     		pop	{r0}
 263 00f4 0047     		bx	r0
 264              	.L32:
 265 00f6 0000     		.align	2
 266              	.L31:
 267 00f8 10000000 		.word	osRunning
 268 00fc 00000000 		.word	isrNesting
 269              	.LFE6:
 270              		.size	osISREnter, .-osISREnter
 271              		.align	2
 272              		.global	osCreateProcess
 273              		.code 16
 274              		.thumb_func
 275              		.type	osCreateProcess, %function
 276              	osCreateProcess:
 277              	.LFB9:
 278              		.loc 1 354 0
 279 0100 F0B5     		push	{r4, r5, r6, r7, lr}
 280              	.LCFI5:
 281 0102 83B0     		sub	sp, sp, #12
 282              	.LCFI6:
 283              		.loc 1 354 0
 284 0104 0193     		str	r3, [sp, #4]
 285 0106 089B     		ldr	r3, [sp, #32]
 286 0108 1B06     		lsl	r3, r3, #24
 287 010a 1B0E     		lsr	r3, r3, #24
 288 010c 0E1C     		mov	r6, r1
 289 010e 0A99     		ldr	r1, [sp, #40]
 290 0110 0093     		str	r3, [sp]
 291              		.loc 1 358 0
 292 0112 0023     		mov	r3, #0
 293              		.loc 1 354 0
 294 0114 0290     		str	r0, [sp, #8]
 295              		.loc 1 358 0
 296 0116 0B70     		strb	r3, [r1]
 297              		.loc 1 359 0
 298 0118 009B     		ldr	r3, [sp]
 299              		.loc 1 354 0
ARM GAS  /cygdrive/c/DOCUME~1/ANDERS~1/LOKALA~1/Temp/ccd2VsKb.s 			page 18


 300 011a 1204     		lsl	r2, r2, #16
 301 011c 170C     		lsr	r7, r2, #16
 302              		.loc 1 359 0
 303 011e 042B     		cmp	r3, #4
 304 0120 01D9     		bls	.L34
 305              		.loc 1 361 0
 306 0122 0923     		mov	r3, #9
 307 0124 10E0     		b	.L42
 308              	.L34:
 309 0126 1C48     		ldr	r0, .L43
 310              		.loc 1 365 0
 311 0128 0025     		mov	r5, #0
 312              	.L39:
 313              		.loc 1 369 0
 314 012a 2822     		mov	r2, #40
 315 012c 2B1C     		mov	r3, r5
 316 012e 5343     		mul	r3, r3, r2
 317 0130 1B18     		add	r3, r3, r0
 318 0132 9B7E     		ldrb	r3, [r3, #26]
 319 0134 002B     		cmp	r3, #0
 320 0136 04D0     		beq	.L36
 321              		.loc 1 365 0
 322 0138 6B1C     		add	r3, r5, #1
 323 013a 1B06     		lsl	r3, r3, #24
 324 013c 1D0E     		lsr	r5, r3, #24
 325 013e 052D     		cmp	r5, #5
 326 0140 F3D9     		bls	.L39
 327              	.L36:
 328              		.loc 1 372 0
 329 0142 062D     		cmp	r5, #6
 330 0144 02D1     		bne	.L40
 331              		.loc 1 374 0
 332 0146 0523     		mov	r3, #5
 333              	.L42:
 334 0148 0B70     		strb	r3, [r1]
 335              		.loc 1 376 0
 336 014a 21E0     		b	.L33
 337              	.L40:
 338              		.loc 1 379 0
 339 014c 2C1C     		mov	r4, r5
 340 014e 5443     		mul	r4, r4, r2
 341 0150 2418     		add	r4, r4, r0
 342              		.loc 1 382 0
 343 0152 2662     		str	r6, [r4, #32]
 344              		.loc 1 384 0
 345 0154 301C     		mov	r0, r6
 346 0156 391C     		mov	r1, r7
 347              		.loc 1 383 0
 348 0158 A784     		strh	r7, [r4, #36]
 349              		.loc 1 387 0
 350 015a F619     		add	r6, r6, r7
 351              		.loc 1 384 0
 352 015c FFF7FEFF 		bl	createStackPattern
 353              		.loc 1 391 0
 354 0160 0323     		mov	r3, #3
 355 0162 311C     		mov	r1, r6
 356 0164 9943     		bic	r1, r1, r3
ARM GAS  /cygdrive/c/DOCUME~1/ANDERS~1/LOKALA~1/Temp/ccd2VsKb.s 			page 19


 357 0166 099A     		ldr	r2, [sp, #36]
 358 0168 0023     		mov	r3, #0
 359 016a 0298     		ldr	r0, [sp, #8]
 360 016c FFF7FEFF 		bl	stkFrameInit_oshal
 361              		.loc 1 396 0
 362 0170 2576     		strb	r5, [r4, #24]
 363              		.loc 1 397 0
 364 0172 019B     		ldr	r3, [sp, #4]
 365              		.loc 1 391 0
 366 0174 2060     		str	r0, [r4]
 367              		.loc 1 397 0
 368 0176 1D70     		strb	r5, [r3]
 369              		.loc 1 399 0
 370 0178 0123     		mov	r3, #1
 371 017a A376     		strb	r3, [r4, #26]
 372              		.loc 1 406 0
 373 017c 6B46     		mov	r3, sp
 374 017e 1B78     		ldrb	r3, [r3]
 375              		.loc 1 398 0
 376 0180 0022     		mov	r2, #0
 377 0182 E261     		str	r2, [r4, #28]
 378              		.loc 1 400 0
 379 0184 6260     		str	r2, [r4, #4]
 380              		.loc 1 401 0
 381 0186 A260     		str	r2, [r4, #8]
 382              		.loc 1 402 0
 383 0188 E260     		str	r2, [r4, #12]
 384              		.loc 1 403 0
 385 018a 2261     		str	r2, [r4, #16]
 386              		.loc 1 405 0
 387 018c 6261     		str	r2, [r4, #20]
 388              		.loc 1 406 0
 389 018e 6376     		strb	r3, [r4, #25]
 390              	.L33:
 391              		.loc 1 407 0
 392 0190 03B0     		add	sp, sp, #12
 393              		@ sp needed for prologue
 394 0192 F0BC     		pop	{r4, r5, r6, r7}
 395 0194 01BC     		pop	{r0}
 396 0196 0047     		bx	r0
 397              	.L44:
 398              		.align	2
 399              	.L43:
 400 0198 00000000 		.word	processControlBlocks
 401              	.LFE9:
 402              		.size	osCreateProcess, .-osCreateProcess
 403              		.align	2
 404              		.global	osGetHighPrioProc
 405              		.code 16
 406              		.thumb_func
 407              		.type	osGetHighPrioProc, %function
 408              	osGetHighPrioProc:
 409              	.LFB15:
 410              		.loc 1 614 0
 411 019c 00B5     		push	{lr}
 412              	.LCFI7:
 413              		.loc 1 615 0
ARM GAS  /cygdrive/c/DOCUME~1/ANDERS~1/LOKALA~1/Temp/ccd2VsKb.s 			page 20


 414 019e 0448     		ldr	r0, .L46
 415 01a0 0021     		mov	r1, #0
 416 01a2 FFF7FEFF 		bl	getHighPrioQueue
 417 01a6 034B     		ldr	r3, .L46+4
 418              		@ sp needed for prologue
 419 01a8 1860     		str	r0, [r3]
 420 01aa 01BC     		pop	{r0}
 421 01ac 0047     		bx	r0
 422              	.L47:
 423 01ae 0000     		.align	2
 424              	.L46:
 425 01b0 14000000 		.word	rdyQueue
 426 01b4 00000000 		.word	pNxtToRun
 427              	.LFE15:
 428              		.size	osGetHighPrioProc, .-osGetHighPrioProc
 429              		.align	2
 430              		.global	schedule
 431              		.code 16
 432              		.thumb_func
 433              		.type	schedule, %function
 434              	schedule:
 435              	.LFB14:
 436              		.loc 1 575 0
 437 01b8 10B5     		push	{r4, lr}
 438              	.LCFI8:
 439 01ba 81B0     		sub	sp, sp, #4
 440              	.LCFI9:
 441              		.loc 1 578 0
 442 01bc FFF7FEFF 		bl	halDisableInterrupts_oshal
 443 01c0 0090     		str	r0, [sp]
 444 01c2 C046     		 nop
 445              		.loc 1 579 0
 446              		.code	16
 447 01c4 144B     		ldr	r3, .L53
 448 01c6 1B78     		ldrb	r3, [r3]
 449 01c8 002B     		cmp	r3, #0
 450 01ca 1CD1     		bne	.L49
 451              	.L50:
 452              		.loc 1 582 0
 453 01cc FFF7FEFF 		bl	osGetHighPrioProc
 454              		.loc 1 583 0
 455 01d0 124B     		ldr	r3, .L53+4
 456 01d2 1A68     		ldr	r2, [r3]
 457 01d4 002A     		cmp	r2, #0
 458 01d6 10D1     		bne	.L51
 459              		.loc 1 585 0
 460 01d8 0F4C     		ldr	r4, .L53
 461 01da 2378     		ldrb	r3, [r4]
 462 01dc 0133     		add	r3, r3, #1
 463 01de 2370     		strb	r3, [r4]
 464              		.loc 1 586 0
 465 01e0 0098     		ldr	r0, [sp]
 466 01e2 FFF7FEFF 		bl	halRestoreInterrupts_oshal
 467 01e6 C046     		 nop
 468              		.loc 1 587 0
 469 01e8 C046     		 nop
 470              		.loc 1 588 0
ARM GAS  /cygdrive/c/DOCUME~1/ANDERS~1/LOKALA~1/Temp/ccd2VsKb.s 			page 21


 471              		.code	16
 472 01ea FFF7FEFF 		bl	halDisableInterrupts_oshal
 473 01ee 0090     		str	r0, [sp]
 474 01f0 C046     		 nop
 475              		.loc 1 589 0
 476              		.code	16
 477 01f2 2378     		ldrb	r3, [r4]
 478 01f4 013B     		sub	r3, r3, #1
 479 01f6 2370     		strb	r3, [r4]
 480              		.loc 1 590 0
 481 01f8 E8E7     		b	.L50
 482              	.L51:
 483              		.loc 1 592 0
 484 01fa 094B     		ldr	r3, .L53+8
 485 01fc 1B68     		ldr	r3, [r3]
 486 01fe 9A42     		cmp	r2, r3
 487 0200 01D0     		beq	.L49
 488              		.loc 1 594 0
 489 0202 FFF7FEFF 		bl	ctxSwitch_oshal
 490              	.L49:
 491              		.loc 1 597 0
 492 0206 0098     		ldr	r0, [sp]
 493 0208 FFF7FEFF 		bl	halRestoreInterrupts_oshal
 494 020c C046     		 nop
 495              		.code	16
 496 020e 01B0     		add	sp, sp, #4
 497              		@ sp needed for prologue
 498 0210 10BC     		pop	{r4}
 499 0212 01BC     		pop	{r0}
 500 0214 0047     		bx	r0
 501              	.L54:
 502 0216 0000     		.align	2
 503              	.L53:
 504 0218 00000000 		.word	osLockNesting
 505 021c 00000000 		.word	pNxtToRun
 506 0220 00000000 		.word	pRunProc
 507              	.LFE14:
 508              		.size	schedule, .-schedule
 509              		.align	2
 510              		.global	osISRExit
 511              		.code 16
 512              		.thumb_func
 513              		.type	osISRExit, %function
 514              	osISRExit:
 515              	.LFB7:
 516              		.loc 1 257 0
 517 0224 00B5     		push	{lr}
 518              	.LCFI10:
 519              		.loc 1 260 0
 520 0226 144B     		ldr	r3, .L60
 521 0228 1B78     		ldrb	r3, [r3]
 522              		.loc 1 257 0
 523 022a 81B0     		sub	sp, sp, #4
 524              	.LCFI11:
 525              		.loc 1 260 0
 526 022c 012B     		cmp	r3, #1
 527 022e 20D1     		bne	.L55
ARM GAS  /cygdrive/c/DOCUME~1/ANDERS~1/LOKALA~1/Temp/ccd2VsKb.s 			page 22


 528              		.loc 1 262 0
 529 0230 FFF7FEFF 		bl	halDisableInterrupts_oshal
 530 0234 0090     		str	r0, [sp]
 531 0236 C046     		 nop
 532              		.loc 1 264 0
 533              		.code	16
 534 0238 104A     		ldr	r2, .L60+4
 535 023a 1178     		ldrb	r1, [r2]
 536 023c 0029     		cmp	r1, #0
 537 023e 01D0     		beq	.L57
 538              		.loc 1 265 0
 539 0240 4B1E     		sub	r3, r1, #1
 540 0242 1370     		strb	r3, [r2]
 541              	.L57:
 542              		.loc 1 267 0
 543 0244 0E4B     		ldr	r3, .L60+8
 544 0246 1B78     		ldrb	r3, [r3]
 545 0248 002B     		cmp	r3, #0
 546 024a 0ED1     		bne	.L58
 547 024c 1378     		ldrb	r3, [r2]
 548 024e 002B     		cmp	r3, #0
 549 0250 0BD1     		bne	.L58
 550              		.loc 1 269 0
 551 0252 FFF7FEFF 		bl	osGetHighPrioProc
 552              		.loc 1 270 0
 553 0256 0B4B     		ldr	r3, .L60+12
 554 0258 1A68     		ldr	r2, [r3]
 555 025a 0B4B     		ldr	r3, .L60+16
 556 025c 1B68     		ldr	r3, [r3]
 557 025e 9A42     		cmp	r2, r3
 558 0260 03D0     		beq	.L58
 559 0262 002B     		cmp	r3, #0
 560 0264 01D0     		beq	.L58
 561              		.loc 1 272 0
 562 0266 FFF7FEFF 		bl	ctxSwitchIsr_oshal
 563              	.L58:
 564              		.loc 1 275 0
 565 026a 0098     		ldr	r0, [sp]
 566 026c FFF7FEFF 		bl	halRestoreInterrupts_oshal
 567 0270 C046     		 nop
 568              		.code	16
 569              	.L55:
 570              		.loc 1 277 0
 571 0272 01B0     		add	sp, sp, #4
 572              		@ sp needed for prologue
 573 0274 01BC     		pop	{r0}
 574 0276 0047     		bx	r0
 575              	.L61:
 576              		.align	2
 577              	.L60:
 578 0278 10000000 		.word	osRunning
 579 027c 00000000 		.word	isrNesting
 580 0280 00000000 		.word	osLockNesting
 581 0284 00000000 		.word	pRunProc
 582 0288 00000000 		.word	pNxtToRun
 583              	.LFE7:
 584              		.size	osISRExit, .-osISRExit
ARM GAS  /cygdrive/c/DOCUME~1/ANDERS~1/LOKALA~1/Temp/ccd2VsKb.s 			page 23


 585              		.align	2
 586              		.global	osStart
 587              		.code 16
 588              		.thumb_func
 589              		.type	osStart, %function
 590              	osStart:
 591              	.LFB5:
 592              		.loc 1 209 0
 593 028c 00B5     		push	{lr}
 594              	.LCFI12:
 595 028e 81B0     		sub	sp, sp, #4
 596              	.LCFI13:
 597              		.loc 1 210 0
 598 0290 0023     		mov	r3, #0
 599 0292 0093     		str	r3, [sp]
 600              		.loc 1 213 0
 601 0294 FFF7FEFF 		bl	halDisableInterrupts_oshal
 602 0298 0090     		str	r0, [sp]
 603 029a C046     		 nop
 604              		.loc 1 214 0
 605              		.code	16
 606 029c 054B     		ldr	r3, .L63
 607 029e 0122     		mov	r2, #1
 608 02a0 1A70     		strb	r2, [r3]
 609              		.loc 1 215 0
 610 02a2 FFF7FEFF 		bl	initTimer_oshal
 611              		.loc 1 216 0
 612 02a6 FFF7FEFF 		bl	osGetHighPrioProc
 613              		.loc 1 217 0
 614 02aa FFF7FEFF 		bl	startHighProc_oshal
 615 02ae 01B0     		add	sp, sp, #4
 616              		@ sp needed for prologue
 617 02b0 01BC     		pop	{r0}
 618 02b2 0047     		bx	r0
 619              	.L64:
 620              		.align	2
 621              	.L63:
 622 02b4 10000000 		.word	osRunning
 623              	.LFE5:
 624              		.size	osStart, .-osStart
 625              		.align	2
 626              		.global	rmvFromTimeList
 627              		.code 16
 628              		.thumb_func
 629              		.type	rmvFromTimeList, %function
 630              	rmvFromTimeList:
 631              	.LFB17:
 667:core/kernel.c **** 
 668:core/kernel.c **** 
 669:core/kernel.c **** /*****************************************************************************
 670:core/kernel.c ****  *
 671:core/kernel.c ****  * Description:
 672:core/kernel.c ****  *    This function removes a process from the time-list. 
 673:core/kernel.c ****  *
 674:core/kernel.c ****  * Params:
 675:core/kernel.c ****  *    [in] pPCB - A pointer to the process control block of the process to 
 676:core/kernel.c ****  *                remove. 
ARM GAS  /cygdrive/c/DOCUME~1/ANDERS~1/LOKALA~1/Temp/ccd2VsKb.s 			page 24


 677:core/kernel.c ****  *
 678:core/kernel.c ****  ****************************************************************************/
 679:core/kernel.c **** void
 680:core/kernel.c **** rmvFromTimeList(tOSPCB* pPCB)
 681:core/kernel.c **** {
 632              		.loc 1 681 0
 633 02b8 10B5     		push	{r4, lr}
 634              	.LCFI14:
 682:core/kernel.c ****   tOSPCB * pTimePCB = NULL;
 683:core/kernel.c ****   tOSPCB * pPrev = NULL;
 684:core/kernel.c **** 
 685:core/kernel.c ****   pPCB->flag &= ~(tU8)PROC_SLEEP;
 635              		.loc 1 685 0
 636 02ba 837E     		ldrb	r3, [r0, #26]
 637 02bc 0422     		mov	r2, #4
 638 02be 9343     		bic	r3, r3, r2
 639 02c0 8376     		strb	r3, [r0, #26]
 686:core/kernel.c ****   
 687:core/kernel.c ****   for(pTimePCB = pTimeList;
 640              		.loc 1 687 0
 641 02c2 0D4C     		ldr	r4, .L76
 642 02c4 2268     		ldr	r2, [r4]
 643              		.loc 1 683 0
 644 02c6 0021     		mov	r1, #0
 645              	.L75:
 646              		.loc 1 687 0
 647 02c8 002A     		cmp	r2, #0
 648 02ca 12D0     		beq	.L67
 688:core/kernel.c ****       pTimePCB != NULL;
 689:core/kernel.c ****       pTimePCB = pTimePCB->pNextTimeQueue)
 690:core/kernel.c ****   {
 691:core/kernel.c ****     if(pTimePCB == pPCB)
 649              		.loc 1 691 0
 650 02cc 8242     		cmp	r2, r0
 651 02ce 0DD1     		bne	.L69
 652 02d0 5369     		ldr	r3, [r2, #20]
 692:core/kernel.c ****     {
 693:core/kernel.c ****       if(pPrev == NULL)
 653              		.loc 1 693 0
 654 02d2 0029     		cmp	r1, #0
 655 02d4 01D1     		bne	.L70
 694:core/kernel.c ****       {
 695:core/kernel.c ****         pTimeList = pTimePCB->pNextTimeQueue;
 656              		.loc 1 695 0
 657 02d6 2360     		str	r3, [r4]
 658 02d8 00E0     		b	.L71
 659              	.L70:
 696:core/kernel.c ****       }
 697:core/kernel.c ****       else
 698:core/kernel.c ****       {
 699:core/kernel.c ****         pPrev->pNextTimeQueue = pTimePCB->pNextTimeQueue;
 660              		.loc 1 699 0
 661 02da 4B61     		str	r3, [r1, #20]
 662              	.L71:
 700:core/kernel.c ****       }
 701:core/kernel.c ****       if(pTimePCB->pNextTimeQueue != NULL)
 663              		.loc 1 701 0
ARM GAS  /cygdrive/c/DOCUME~1/ANDERS~1/LOKALA~1/Temp/ccd2VsKb.s 			page 25


 664 02dc 5169     		ldr	r1, [r2, #20]
 665 02de 0029     		cmp	r1, #0
 666 02e0 07D0     		beq	.L67
 702:core/kernel.c ****       {
 703:core/kernel.c ****         pTimePCB->pNextTimeQueue->sleep += pTimePCB->sleep; /* update relative time */
 667              		.loc 1 703 0
 668 02e2 CB69     		ldr	r3, [r1, #28]
 669 02e4 D269     		ldr	r2, [r2, #28]
 670 02e6 9B18     		add	r3, r3, r2
 671 02e8 CB61     		str	r3, [r1, #28]
 704:core/kernel.c ****       }
 705:core/kernel.c ****       break;
 672              		.loc 1 705 0
 673 02ea 02E0     		b	.L67
 674              	.L69:
 706:core/kernel.c ****     }
 707:core/kernel.c ****     pPrev = pTimePCB;
 675              		.loc 1 707 0
 676 02ec 111C     		mov	r1, r2
 677              		.loc 1 687 0
 678 02ee 5269     		ldr	r2, [r2, #20]
 679 02f0 EAE7     		b	.L75
 680              	.L67:
 681              		@ sp needed for prologue
 682 02f2 10BC     		pop	{r4}
 683 02f4 01BC     		pop	{r0}
 684 02f6 0047     		bx	r0
 685              	.L77:
 686              		.align	2
 687              	.L76:
 688 02f8 0C000000 		.word	pTimeList
 689              	.LFE17:
 690              		.size	rmvFromTimeList, .-rmvFromTimeList
 691              		.align	2
 692              		.global	addToRdyList
 693              		.code 16
 694              		.thumb_func
 695              		.type	addToRdyList, %function
 696              	addToRdyList:
 697              	.LFB18:
 708:core/kernel.c ****   }
 709:core/kernel.c **** }
 710:core/kernel.c **** 
 711:core/kernel.c **** 
 712:core/kernel.c **** /*****************************************************************************
 713:core/kernel.c ****  *
 714:core/kernel.c ****  * Description:
 715:core/kernel.c ****  *    This function adds a process to the ready-list. 
 716:core/kernel.c ****  *
 717:core/kernel.c ****  * Params:
 718:core/kernel.c ****  *    [in] pMove - A pointer to the process control block to add. 
 719:core/kernel.c ****  *
 720:core/kernel.c ****  ****************************************************************************/
 721:core/kernel.c **** void
 722:core/kernel.c **** addToRdyList(tOSPCB* pMove)
 723:core/kernel.c **** {
 698              		.loc 1 723 0
ARM GAS  /cygdrive/c/DOCUME~1/ANDERS~1/LOKALA~1/Temp/ccd2VsKb.s 			page 26


 699 02fc 00B5     		push	{lr}
 700              	.LCFI15:
 701              		.loc 1 723 0
 702 02fe 011C     		mov	r1, r0
 724:core/kernel.c ****   addToPrioQueue(&rdyQueue, pMove, READY_QUEUE);
 703              		.loc 1 724 0
 704 0300 0022     		mov	r2, #0
 705 0302 0248     		ldr	r0, .L79
 706 0304 FFF7FEFF 		bl	addToPrioQueue
 707              		@ sp needed for prologue
 708 0308 01BC     		pop	{r0}
 709 030a 0047     		bx	r0
 710              	.L80:
 711              		.align	2
 712              	.L79:
 713 030c 14000000 		.word	rdyQueue
 714              	.LFE18:
 715              		.size	addToRdyList, .-addToRdyList
 716              		.align	2
 717              		.global	osResume
 718              		.code 16
 719              		.thumb_func
 720              		.type	osResume, %function
 721              	osResume:
 722              	.LFB13:
 723              		.loc 1 536 0
 724 0310 10B5     		push	{r4, lr}
 725              	.LCFI16:
 726 0312 0006     		lsl	r0, r0, #24
 727              		.loc 1 539 0
 728 0314 0023     		mov	r3, #0
 729              		.loc 1 536 0
 730 0316 040E     		lsr	r4, r0, #24
 731 0318 81B0     		sub	sp, sp, #4
 732              	.LCFI17:
 733              		.loc 1 539 0
 734 031a 0B70     		strb	r3, [r1]
 735              		.loc 1 540 0
 736 031c 052C     		cmp	r4, #5
 737 031e 02D9     		bls	.L82
 738              		.loc 1 542 0
 739 0320 0423     		mov	r3, #4
 740 0322 0B70     		strb	r3, [r1]
 741              		.loc 1 544 0
 742 0324 22E0     		b	.L81
 743              	.L82:
 744              		.loc 1 547 0
 745 0326 FFF7FEFF 		bl	halDisableInterrupts_oshal
 746 032a 0090     		str	r0, [sp]
 747 032c C046     		 nop
 748              		.loc 1 548 0
 749              		.code	16
 750 032e 2823     		mov	r3, #40
 751 0330 221C     		mov	r2, r4
 752 0332 5A43     		mul	r2, r2, r3
 753 0334 0F4B     		ldr	r3, .L86
 754 0336 D018     		add	r0, r2, r3
ARM GAS  /cygdrive/c/DOCUME~1/ANDERS~1/LOKALA~1/Temp/ccd2VsKb.s 			page 27


 755 0338 021C     		mov	r2, r0
 756 033a 1832     		add	r2, r2, #24
 757 033c 9178     		ldrb	r1, [r2, #2]
 758 033e CB06     		lsl	r3, r1, #27
 759 0340 10D5     		bpl	.L84
 760              		.loc 1 554 0
 761 0342 1023     		mov	r3, #16
 762 0344 0C1C     		mov	r4, r1
 763 0346 9C43     		bic	r4, r4, r3
 764 0348 9470     		strb	r4, [r2, #2]
 765              		.loc 1 555 0
 766 034a FFF7FEFF 		bl	addToRdyList
 767              		.loc 1 556 0
 768 034e 0A4B     		ldr	r3, .L86+4
 769 0350 1B78     		ldrb	r3, [r3]
 770 0352 002B     		cmp	r3, #0
 771 0354 06D1     		bne	.L84
 772              		.loc 1 558 0
 773 0356 0098     		ldr	r0, [sp]
 774 0358 FFF7FEFF 		bl	halRestoreInterrupts_oshal
 775 035c C046     		 nop
 776              		.loc 1 559 0
 777              		.code	16
 778 035e FFF7FEFF 		bl	schedule
 779 0362 03E0     		b	.L81
 780              	.L84:
 781              		.loc 1 562 0
 782 0364 0098     		ldr	r0, [sp]
 783 0366 FFF7FEFF 		bl	halRestoreInterrupts_oshal
 784 036a C046     		 nop
 785              		.code	16
 786              	.L81:
 787              		.loc 1 563 0
 788 036c 01B0     		add	sp, sp, #4
 789              		@ sp needed for prologue
 790 036e 10BC     		pop	{r4}
 791 0370 01BC     		pop	{r0}
 792 0372 0047     		bx	r0
 793              	.L87:
 794              		.align	2
 795              	.L86:
 796 0374 00000000 		.word	processControlBlocks
 797 0378 00000000 		.word	isrNesting
 798              	.LFE13:
 799              		.size	osResume, .-osResume
 800              		.align	2
 801              		.global	osTick
 802              		.code 16
 803              		.thumb_func
 804              		.type	osTick, %function
 805              	osTick:
 806              	.LFB11:
 807              		.loc 1 474 0
 808 037c 10B5     		push	{r4, lr}
 809              	.LCFI18:
 810 037e 81B0     		sub	sp, sp, #4
 811              	.LCFI19:
ARM GAS  /cygdrive/c/DOCUME~1/ANDERS~1/LOKALA~1/Temp/ccd2VsKb.s 			page 28


 812              		.loc 1 477 0
 813 0380 FFF7FEFF 		bl	halDisableInterrupts_oshal
 814 0384 0090     		str	r0, [sp]
 815 0386 C046     		 nop
 816              		.loc 1 478 0
 817              		.code	16
 818 0388 124B     		ldr	r3, .L96
 819 038a 1A68     		ldr	r2, [r3]
 820 038c 002A     		cmp	r2, #0
 821 038e 13D0     		beq	.L89
 822              		.loc 1 480 0
 823 0390 D369     		ldr	r3, [r2, #28]
 824 0392 013B     		sub	r3, r3, #1
 825 0394 D361     		str	r3, [r2, #28]
 826              	.L95:
 827              		.loc 1 488 0
 828 0396 002B     		cmp	r3, #0
 829 0398 0ED1     		bne	.L89
 830              		.loc 1 483 0
 831 039a 0E4C     		ldr	r4, .L96
 832 039c 2068     		ldr	r0, [r4]
 833              		.loc 1 484 0
 834 039e 4369     		ldr	r3, [r0, #20]
 835 03a0 2360     		str	r3, [r4]
 836              		.loc 1 485 0
 837 03a2 837E     		ldrb	r3, [r0, #26]
 838 03a4 0422     		mov	r2, #4
 839 03a6 9343     		bic	r3, r3, r2
 840 03a8 8376     		strb	r3, [r0, #26]
 841              		.loc 1 486 0
 842 03aa FFF7FEFF 		bl	addToRdyList
 843              		.loc 1 487 0
 844 03ae 2468     		ldr	r4, [r4]
 845 03b0 002C     		cmp	r4, #0
 846 03b2 01D0     		beq	.L89
 847              		.loc 1 488 0
 848 03b4 E369     		ldr	r3, [r4, #28]
 849 03b6 EEE7     		b	.L95
 850              	.L89:
 851              		.loc 1 491 0
 852 03b8 0098     		ldr	r0, [sp]
 853 03ba FFF7FEFF 		bl	halRestoreInterrupts_oshal
 854 03be C046     		 nop
 855              		.loc 1 492 0
 856              		.code	16
 857 03c0 FFF7FEFF 		bl	timerTick
 858              		.loc 1 494 0
 859 03c4 0A20     		mov	r0, #10
 860 03c6 FFF7FEFF 		bl	appTick
 861 03ca 01B0     		add	sp, sp, #4
 862              		@ sp needed for prologue
 863 03cc 10BC     		pop	{r4}
 864 03ce 01BC     		pop	{r0}
 865 03d0 0047     		bx	r0
 866              	.L97:
 867 03d2 0000     		.align	2
 868              	.L96:
ARM GAS  /cygdrive/c/DOCUME~1/ANDERS~1/LOKALA~1/Temp/ccd2VsKb.s 			page 29


 869 03d4 0C000000 		.word	pTimeList
 870              	.LFE11:
 871              		.size	osTick, .-osTick
 872              		.align	2
 873              		.global	osStartProcess
 874              		.code 16
 875              		.thumb_func
 876              		.type	osStartProcess, %function
 877              	osStartProcess:
 878              	.LFB10:
 879              		.loc 1 429 0
 880 03d8 70B5     		push	{r4, r5, r6, lr}
 881              	.LCFI20:
 882 03da 0006     		lsl	r0, r0, #24
 883              		.loc 1 430 0
 884 03dc 0023     		mov	r3, #0
 885              		.loc 1 429 0
 886 03de 81B0     		sub	sp, sp, #4
 887              	.LCFI21:
 888              		.loc 1 429 0
 889 03e0 000E     		lsr	r0, r0, #24
 890              		.loc 1 430 0
 891 03e2 0093     		str	r3, [sp]
 892              		.loc 1 432 0
 893 03e4 0B70     		strb	r3, [r1]
 894              		.loc 1 433 0
 895 03e6 0528     		cmp	r0, #5
 896 03e8 09D8     		bhi	.L103
 897              		.loc 1 439 0
 898 03ea 2823     		mov	r3, #40
 899 03ec 021C     		mov	r2, r0
 900 03ee 5A43     		mul	r2, r2, r3
 901 03f0 114B     		ldr	r3, .L104
 902 03f2 D518     		add	r5, r2, r3
 903 03f4 2C1C     		mov	r4, r5
 904 03f6 1834     		add	r4, r4, #24
 905 03f8 A378     		ldrb	r3, [r4, #2]
 906 03fa 012B     		cmp	r3, #1
 907 03fc 02D0     		beq	.L100
 908              	.L103:
 909              		.loc 1 441 0
 910 03fe 0423     		mov	r3, #4
 911 0400 0B70     		strb	r3, [r1]
 912              		.loc 1 443 0
 913 0402 15E0     		b	.L98
 914              	.L100:
 915              		.loc 1 446 0
 916 0404 0D4E     		ldr	r6, .L104+4
 917 0406 3378     		ldrb	r3, [r6]
 918 0408 012B     		cmp	r3, #1
 919 040a 03D1     		bne	.L101
 920              		.loc 1 448 0
 921 040c FFF7FEFF 		bl	halDisableInterrupts_oshal
 922 0410 0090     		str	r0, [sp]
 923 0412 C046     		 nop
 924              		.code	16
 925              	.L101:
ARM GAS  /cygdrive/c/DOCUME~1/ANDERS~1/LOKALA~1/Temp/ccd2VsKb.s 			page 30


 926              		.loc 1 451 0
 927 0414 0223     		mov	r3, #2
 928 0416 A370     		strb	r3, [r4, #2]
 929              		.loc 1 452 0
 930 0418 281C     		mov	r0, r5
 931 041a FFF7FEFF 		bl	addToRdyList
 932              		.loc 1 454 0
 933 041e 3378     		ldrb	r3, [r6]
 934 0420 012B     		cmp	r3, #1
 935 0422 05D1     		bne	.L98
 936              		.loc 1 456 0
 937 0424 0098     		ldr	r0, [sp]
 938 0426 FFF7FEFF 		bl	halRestoreInterrupts_oshal
 939 042a C046     		 nop
 940              		.loc 1 457 0
 941              		.code	16
 942 042c FFF7FEFF 		bl	schedule
 943              	.L98:
 944              		.loc 1 459 0
 945 0430 01B0     		add	sp, sp, #4
 946              		@ sp needed for prologue
 947 0432 70BC     		pop	{r4, r5, r6}
 948 0434 01BC     		pop	{r0}
 949 0436 0047     		bx	r0
 950              	.L105:
 951              		.align	2
 952              	.L104:
 953 0438 00000000 		.word	processControlBlocks
 954 043c 10000000 		.word	osRunning
 955              	.LFE10:
 956              		.size	osStartProcess, .-osStartProcess
 957              		.align	2
 958              		.global	rmvFromRdyList
 959              		.code 16
 960              		.thumb_func
 961              		.type	rmvFromRdyList, %function
 962              	rmvFromRdyList:
 963              	.LFB19:
 725:core/kernel.c **** }
 726:core/kernel.c **** 
 727:core/kernel.c **** 
 728:core/kernel.c **** /*****************************************************************************
 729:core/kernel.c ****  *
 730:core/kernel.c ****  * Description:
 731:core/kernel.c ****  *    This function removes the currently running process from the ready-list. 
 732:core/kernel.c ****  *
 733:core/kernel.c ****  ****************************************************************************/
 734:core/kernel.c **** void
 735:core/kernel.c **** rmvFromRdyList(void)
 736:core/kernel.c **** {
 964              		.loc 1 736 0
 965 0440 00B5     		push	{lr}
 966              	.LCFI22:
 737:core/kernel.c ****   rmvFromPrioQueue(&rdyQueue, pRunProc, READY_QUEUE);
 967              		.loc 1 737 0
 968 0442 044B     		ldr	r3, .L107
 969 0444 0448     		ldr	r0, .L107+4
ARM GAS  /cygdrive/c/DOCUME~1/ANDERS~1/LOKALA~1/Temp/ccd2VsKb.s 			page 31


 970 0446 1968     		ldr	r1, [r3]
 971 0448 0022     		mov	r2, #0
 972 044a FFF7FEFF 		bl	rmvFromPrioQueue
 973              		@ sp needed for prologue
 974 044e 01BC     		pop	{r0}
 975 0450 0047     		bx	r0
 976              	.L108:
 977 0452 0000     		.align	2
 978              	.L107:
 979 0454 00000000 		.word	pRunProc
 980 0458 14000000 		.word	rdyQueue
 981              	.LFE19:
 982              		.size	rmvFromRdyList, .-rmvFromRdyList
 983              		.align	2
 984              		.global	osSuspend
 985              		.code 16
 986              		.thumb_func
 987              		.type	osSuspend, %function
 988              	osSuspend:
 989              	.LFB12:
 990              		.loc 1 507 0
 991 045c 00B5     		push	{lr}
 992              	.LCFI23:
 993 045e 81B0     		sub	sp, sp, #4
 994              	.LCFI24:
 995              		.loc 1 510 0
 996 0460 FFF7FEFF 		bl	halDisableInterrupts_oshal
 997 0464 0090     		str	r0, [sp]
 998 0466 C046     		 nop
 999              		.loc 1 511 0
 1000              		.code	16
 1001 0468 084B     		ldr	r3, .L110
 1002 046a 1968     		ldr	r1, [r3]
 1003 046c 8B7E     		ldrb	r3, [r1, #26]
 1004 046e 1022     		mov	r2, #16
 1005 0470 1343     		orr	r3, r3, r2
 1006 0472 8B76     		strb	r3, [r1, #26]
 1007              		.loc 1 512 0
 1008 0474 FFF7FEFF 		bl	rmvFromRdyList
 1009              		.loc 1 513 0
 1010 0478 0098     		ldr	r0, [sp]
 1011 047a FFF7FEFF 		bl	halRestoreInterrupts_oshal
 1012 047e C046     		 nop
 1013              		.loc 1 514 0
 1014              		.code	16
 1015 0480 FFF7FEFF 		bl	schedule
 1016 0484 01B0     		add	sp, sp, #4
 1017              		@ sp needed for prologue
 1018 0486 01BC     		pop	{r0}
 1019 0488 0047     		bx	r0
 1020              	.L111:
 1021 048a 0000     		.align	2
 1022              	.L110:
 1023 048c 00000000 		.word	pRunProc
 1024              	.LFE12:
 1025              		.size	osSuspend, .-osSuspend
 1026              		.align	2
ARM GAS  /cygdrive/c/DOCUME~1/ANDERS~1/LOKALA~1/Temp/ccd2VsKb.s 			page 32


 1027              		.global	osDeleteProcess
 1028              		.code 16
 1029              		.thumb_func
 1030              		.type	osDeleteProcess, %function
 1031              	osDeleteProcess:
 1032              	.LFB8:
 1033              		.loc 1 290 0
 1034 0490 00B5     		push	{lr}
 1035              	.LCFI25:
 1036 0492 81B0     		sub	sp, sp, #4
 1037              	.LCFI26:
 1038              		.loc 1 293 0
 1039 0494 FFF7FEFF 		bl	halDisableInterrupts_oshal
 1040 0498 0090     		str	r0, [sp]
 1041 049a C046     		 nop
 1042              		.loc 1 294 0
 1043              		.code	16
 1044 049c FFF7FEFF 		bl	rmvFromRdyList
 1045              		.loc 1 295 0
 1046 04a0 064B     		ldr	r3, .L113
 1047 04a2 1A68     		ldr	r2, [r3]
 1048 04a4 0023     		mov	r3, #0
 1049 04a6 9376     		strb	r3, [r2, #26]
 1050              		.loc 1 296 0
 1051 04a8 0098     		ldr	r0, [sp]
 1052 04aa FFF7FEFF 		bl	halRestoreInterrupts_oshal
 1053 04ae C046     		 nop
 1054              		.loc 1 297 0
 1055              		.code	16
 1056 04b0 FFF7FEFF 		bl	schedule
 1057 04b4 01B0     		add	sp, sp, #4
 1058              		@ sp needed for prologue
 1059 04b6 01BC     		pop	{r0}
 1060 04b8 0047     		bx	r0
 1061              	.L114:
 1062 04ba 0000     		.align	2
 1063              	.L113:
 1064 04bc 00000000 		.word	pRunProc
 1065              	.LFE8:
 1066              		.size	osDeleteProcess, .-osDeleteProcess
 1067              		.align	2
 1068              		.global	osSleep
 1069              		.code 16
 1070              		.thumb_func
 1071              		.type	osSleep, %function
 1072              	osSleep:
 1073              	.LFB3:
 1074              		.loc 1 156 0
 1075 04c0 10B5     		push	{r4, lr}
 1076              	.LCFI27:
 1077 04c2 81B0     		sub	sp, sp, #4
 1078              	.LCFI28:
 1079              		.loc 1 159 0
 1080 04c4 041E     		sub	r4, r0, #0
 1081 04c6 10D0     		beq	.L115
 1082              		.loc 1 161 0
 1083 04c8 FFF7FEFF 		bl	halDisableInterrupts_oshal
ARM GAS  /cygdrive/c/DOCUME~1/ANDERS~1/LOKALA~1/Temp/ccd2VsKb.s 			page 33


 1084 04cc 0090     		str	r0, [sp]
 1085 04ce C046     		 nop
 1086              		.loc 1 162 0
 1087              		.code	16
 1088 04d0 084B     		ldr	r3, .L117
 1089 04d2 1B68     		ldr	r3, [r3]
 1090 04d4 DC61     		str	r4, [r3, #28]
 1091              		.loc 1 163 0
 1092 04d6 FFF7FEFF 		bl	rmvFromRdyList
 1093              		.loc 1 164 0
 1094 04da FFF7FEFF 		bl	addToTimeList
 1095              		.loc 1 165 0
 1096 04de 0098     		ldr	r0, [sp]
 1097 04e0 FFF7FEFF 		bl	halRestoreInterrupts_oshal
 1098 04e4 C046     		 nop
 1099              		.loc 1 166 0
 1100              		.code	16
 1101 04e6 FFF7FEFF 		bl	schedule
 1102              	.L115:
 1103              		.loc 1 168 0
 1104 04ea 01B0     		add	sp, sp, #4
 1105              		@ sp needed for prologue
 1106 04ec 10BC     		pop	{r4}
 1107 04ee 01BC     		pop	{r0}
 1108 04f0 0047     		bx	r0
 1109              	.L118:
 1110 04f2 0000     		.align	2
 1111              	.L117:
 1112 04f4 00000000 		.word	pRunProc
 1113              	.LFE3:
 1114              		.size	osSleep, .-osSleep
 1115              		.comm	processControlBlocks,240,4
 1116              		.bss
 1117 0011 000000   		.align	2
 1118              	rdyQueue:
 1119 0014 00000000 		.space	24
 1119      00000000 
 1119      00000000 
 1119      00000000 
 1119      00000000 
 1120              		.section	.debug_frame,"",%progbits
 1121              	.Lframe0:
 1122 0000 0C000000 		.4byte	.LECIE0-.LSCIE0
 1123              	.LSCIE0:
 1124 0004 FFFFFFFF 		.4byte	0xffffffff
 1125 0008 01       		.byte	0x1
 1126 0009 00       		.ascii	"\000"
 1127 000a 01       		.uleb128 0x1
 1128 000b 7C       		.sleb128 -4
 1129 000c 0E       		.byte	0xe
 1130 000d 0C       		.byte	0xc
 1131 000e 0D       		.uleb128 0xd
 1132 000f 00       		.uleb128 0x0
 1133              		.align	2
 1134              	.LECIE0:
 1135              	.LSFDE0:
 1136 0010 18000000 		.4byte	.LEFDE0-.LASFDE0
ARM GAS  /cygdrive/c/DOCUME~1/ANDERS~1/LOKALA~1/Temp/ccd2VsKb.s 			page 34


 1137              	.LASFDE0:
 1138 0014 00000000 		.4byte	.Lframe0
 1139 0018 00000000 		.4byte	.LFB2
 1140 001c 4C000000 		.4byte	.LFE2-.LFB2
 1141 0020 42       		.byte	0x4
 1142              		.4byte	.LCFI0-.LFB2
 1143 0021 0E       		.byte	0xe
 1144 0022 08       		.uleb128 0x8
 1145 0023 84       		.byte	0x84
 1146 0024 02       		.uleb128 0x2
 1147 0025 8E       		.byte	0x8e
 1148 0026 01       		.uleb128 0x1
 1149 0027 42       		.byte	0x4
 1150              		.4byte	.LCFI1-.LCFI0
 1151 0028 0E       		.byte	0xe
 1152 0029 0C       		.uleb128 0xc
 1153 002a 0000     		.align	2
 1154              	.LEFDE0:
 1155              	.LSFDE2:
 1156 002c 18000000 		.4byte	.LEFDE2-.LASFDE2
 1157              	.LASFDE2:
 1158 0030 00000000 		.4byte	.Lframe0
 1159 0034 4C000000 		.4byte	.LFB16
 1160 0038 64000000 		.4byte	.LFE16-.LFB16
 1161 003c 42       		.byte	0x4
 1162              		.4byte	.LCFI2-.LFB16
 1163 003d 0E       		.byte	0xe
 1164 003e 10       		.uleb128 0x10
 1165 003f 84       		.byte	0x84
 1166 0040 04       		.uleb128 0x4
 1167 0041 85       		.byte	0x85
 1168 0042 03       		.uleb128 0x3
 1169 0043 86       		.byte	0x86
 1170 0044 02       		.uleb128 0x2
 1171 0045 8E       		.byte	0x8e
 1172 0046 01       		.uleb128 0x1
 1173 0047 00       		.align	2
 1174              	.LEFDE2:
 1175              	.LSFDE4:
 1176 0048 14000000 		.4byte	.LEFDE4-.LASFDE4
 1177              	.LASFDE4:
 1178 004c 00000000 		.4byte	.Lframe0
 1179 0050 B0000000 		.4byte	.LFB4
 1180 0054 2C000000 		.4byte	.LFE4-.LFB4
 1181 0058 42       		.byte	0x4
 1182              		.4byte	.LCFI3-.LFB4
 1183 0059 0E       		.byte	0xe
 1184 005a 04       		.uleb128 0x4
 1185 005b 8E       		.byte	0x8e
 1186 005c 01       		.uleb128 0x1
 1187 005d 000000   		.align	2
 1188              	.LEFDE4:
 1189              	.LSFDE6:
 1190 0060 14000000 		.4byte	.LEFDE6-.LASFDE6
 1191              	.LASFDE6:
 1192 0064 00000000 		.4byte	.Lframe0
 1193 0068 DC000000 		.4byte	.LFB6
ARM GAS  /cygdrive/c/DOCUME~1/ANDERS~1/LOKALA~1/Temp/ccd2VsKb.s 			page 35


 1194 006c 24000000 		.4byte	.LFE6-.LFB6
 1195 0070 42       		.byte	0x4
 1196              		.4byte	.LCFI4-.LFB6
 1197 0071 0E       		.byte	0xe
 1198 0072 04       		.uleb128 0x4
 1199 0073 8E       		.byte	0x8e
 1200 0074 01       		.uleb128 0x1
 1201 0075 000000   		.align	2
 1202              	.LEFDE6:
 1203              	.LSFDE8:
 1204 0078 1C000000 		.4byte	.LEFDE8-.LASFDE8
 1205              	.LASFDE8:
 1206 007c 00000000 		.4byte	.Lframe0
 1207 0080 00010000 		.4byte	.LFB9
 1208 0084 9C000000 		.4byte	.LFE9-.LFB9
 1209 0088 42       		.byte	0x4
 1210              		.4byte	.LCFI5-.LFB9
 1211 0089 0E       		.byte	0xe
 1212 008a 14       		.uleb128 0x14
 1213 008b 84       		.byte	0x84
 1214 008c 05       		.uleb128 0x5
 1215 008d 85       		.byte	0x85
 1216 008e 04       		.uleb128 0x4
 1217 008f 86       		.byte	0x86
 1218 0090 03       		.uleb128 0x3
 1219 0091 87       		.byte	0x87
 1220 0092 02       		.uleb128 0x2
 1221 0093 8E       		.byte	0x8e
 1222 0094 01       		.uleb128 0x1
 1223 0095 42       		.byte	0x4
 1224              		.4byte	.LCFI6-.LCFI5
 1225 0096 0E       		.byte	0xe
 1226 0097 20       		.uleb128 0x20
 1227              		.align	2
 1228              	.LEFDE8:
 1229              	.LSFDE10:
 1230 0098 14000000 		.4byte	.LEFDE10-.LASFDE10
 1231              	.LASFDE10:
 1232 009c 00000000 		.4byte	.Lframe0
 1233 00a0 9C010000 		.4byte	.LFB15
 1234 00a4 1C000000 		.4byte	.LFE15-.LFB15
 1235 00a8 42       		.byte	0x4
 1236              		.4byte	.LCFI7-.LFB15
 1237 00a9 0E       		.byte	0xe
 1238 00aa 04       		.uleb128 0x4
 1239 00ab 8E       		.byte	0x8e
 1240 00ac 01       		.uleb128 0x1
 1241 00ad 000000   		.align	2
 1242              	.LEFDE10:
 1243              	.LSFDE12:
 1244 00b0 18000000 		.4byte	.LEFDE12-.LASFDE12
 1245              	.LASFDE12:
 1246 00b4 00000000 		.4byte	.Lframe0
 1247 00b8 B8010000 		.4byte	.LFB14
 1248 00bc 6C000000 		.4byte	.LFE14-.LFB14
 1249 00c0 42       		.byte	0x4
 1250              		.4byte	.LCFI8-.LFB14
ARM GAS  /cygdrive/c/DOCUME~1/ANDERS~1/LOKALA~1/Temp/ccd2VsKb.s 			page 36


 1251 00c1 0E       		.byte	0xe
 1252 00c2 08       		.uleb128 0x8
 1253 00c3 84       		.byte	0x84
 1254 00c4 02       		.uleb128 0x2
 1255 00c5 8E       		.byte	0x8e
 1256 00c6 01       		.uleb128 0x1
 1257 00c7 42       		.byte	0x4
 1258              		.4byte	.LCFI9-.LCFI8
 1259 00c8 0E       		.byte	0xe
 1260 00c9 0C       		.uleb128 0xc
 1261 00ca 0000     		.align	2
 1262              	.LEFDE12:
 1263              	.LSFDE14:
 1264 00cc 14000000 		.4byte	.LEFDE14-.LASFDE14
 1265              	.LASFDE14:
 1266 00d0 00000000 		.4byte	.Lframe0
 1267 00d4 24020000 		.4byte	.LFB7
 1268 00d8 68000000 		.4byte	.LFE7-.LFB7
 1269 00dc 42       		.byte	0x4
 1270              		.4byte	.LCFI10-.LFB7
 1271 00dd 0E       		.byte	0xe
 1272 00de 04       		.uleb128 0x4
 1273 00df 8E       		.byte	0x8e
 1274 00e0 01       		.uleb128 0x1
 1275 00e1 46       		.byte	0x4
 1276              		.4byte	.LCFI11-.LCFI10
 1277 00e2 0E       		.byte	0xe
 1278 00e3 08       		.uleb128 0x8
 1279              		.align	2
 1280              	.LEFDE14:
 1281              	.LSFDE16:
 1282 00e4 14000000 		.4byte	.LEFDE16-.LASFDE16
 1283              	.LASFDE16:
 1284 00e8 00000000 		.4byte	.Lframe0
 1285 00ec 8C020000 		.4byte	.LFB5
 1286 00f0 2C000000 		.4byte	.LFE5-.LFB5
 1287 00f4 42       		.byte	0x4
 1288              		.4byte	.LCFI12-.LFB5
 1289 00f5 0E       		.byte	0xe
 1290 00f6 04       		.uleb128 0x4
 1291 00f7 8E       		.byte	0x8e
 1292 00f8 01       		.uleb128 0x1
 1293 00f9 42       		.byte	0x4
 1294              		.4byte	.LCFI13-.LCFI12
 1295 00fa 0E       		.byte	0xe
 1296 00fb 08       		.uleb128 0x8
 1297              		.align	2
 1298              	.LEFDE16:
 1299              	.LSFDE18:
 1300 00fc 14000000 		.4byte	.LEFDE18-.LASFDE18
 1301              	.LASFDE18:
 1302 0100 00000000 		.4byte	.Lframe0
 1303 0104 B8020000 		.4byte	.LFB17
 1304 0108 44000000 		.4byte	.LFE17-.LFB17
 1305 010c 42       		.byte	0x4
 1306              		.4byte	.LCFI14-.LFB17
 1307 010d 0E       		.byte	0xe
ARM GAS  /cygdrive/c/DOCUME~1/ANDERS~1/LOKALA~1/Temp/ccd2VsKb.s 			page 37


 1308 010e 08       		.uleb128 0x8
 1309 010f 84       		.byte	0x84
 1310 0110 02       		.uleb128 0x2
 1311 0111 8E       		.byte	0x8e
 1312 0112 01       		.uleb128 0x1
 1313 0113 00       		.align	2
 1314              	.LEFDE18:
 1315              	.LSFDE20:
 1316 0114 14000000 		.4byte	.LEFDE20-.LASFDE20
 1317              	.LASFDE20:
 1318 0118 00000000 		.4byte	.Lframe0
 1319 011c FC020000 		.4byte	.LFB18
 1320 0120 14000000 		.4byte	.LFE18-.LFB18
 1321 0124 42       		.byte	0x4
 1322              		.4byte	.LCFI15-.LFB18
 1323 0125 0E       		.byte	0xe
 1324 0126 04       		.uleb128 0x4
 1325 0127 8E       		.byte	0x8e
 1326 0128 01       		.uleb128 0x1
 1327 0129 000000   		.align	2
 1328              	.LEFDE20:
 1329              	.LSFDE22:
 1330 012c 18000000 		.4byte	.LEFDE22-.LASFDE22
 1331              	.LASFDE22:
 1332 0130 00000000 		.4byte	.Lframe0
 1333 0134 10030000 		.4byte	.LFB13
 1334 0138 6C000000 		.4byte	.LFE13-.LFB13
 1335 013c 42       		.byte	0x4
 1336              		.4byte	.LCFI16-.LFB13
 1337 013d 0E       		.byte	0xe
 1338 013e 08       		.uleb128 0x8
 1339 013f 84       		.byte	0x84
 1340 0140 02       		.uleb128 0x2
 1341 0141 8E       		.byte	0x8e
 1342 0142 01       		.uleb128 0x1
 1343 0143 48       		.byte	0x4
 1344              		.4byte	.LCFI17-.LCFI16
 1345 0144 0E       		.byte	0xe
 1346 0145 0C       		.uleb128 0xc
 1347 0146 0000     		.align	2
 1348              	.LEFDE22:
 1349              	.LSFDE24:
 1350 0148 18000000 		.4byte	.LEFDE24-.LASFDE24
 1351              	.LASFDE24:
 1352 014c 00000000 		.4byte	.Lframe0
 1353 0150 7C030000 		.4byte	.LFB11
 1354 0154 5C000000 		.4byte	.LFE11-.LFB11
 1355 0158 42       		.byte	0x4
 1356              		.4byte	.LCFI18-.LFB11
 1357 0159 0E       		.byte	0xe
 1358 015a 08       		.uleb128 0x8
 1359 015b 84       		.byte	0x84
 1360 015c 02       		.uleb128 0x2
 1361 015d 8E       		.byte	0x8e
 1362 015e 01       		.uleb128 0x1
 1363 015f 42       		.byte	0x4
 1364              		.4byte	.LCFI19-.LCFI18
ARM GAS  /cygdrive/c/DOCUME~1/ANDERS~1/LOKALA~1/Temp/ccd2VsKb.s 			page 38


 1365 0160 0E       		.byte	0xe
 1366 0161 0C       		.uleb128 0xc
 1367 0162 0000     		.align	2
 1368              	.LEFDE24:
 1369              	.LSFDE26:
 1370 0164 1C000000 		.4byte	.LEFDE26-.LASFDE26
 1371              	.LASFDE26:
 1372 0168 00000000 		.4byte	.Lframe0
 1373 016c D8030000 		.4byte	.LFB10
 1374 0170 68000000 		.4byte	.LFE10-.LFB10
 1375 0174 42       		.byte	0x4
 1376              		.4byte	.LCFI20-.LFB10
 1377 0175 0E       		.byte	0xe
 1378 0176 10       		.uleb128 0x10
 1379 0177 84       		.byte	0x84
 1380 0178 04       		.uleb128 0x4
 1381 0179 85       		.byte	0x85
 1382 017a 03       		.uleb128 0x3
 1383 017b 86       		.byte	0x86
 1384 017c 02       		.uleb128 0x2
 1385 017d 8E       		.byte	0x8e
 1386 017e 01       		.uleb128 0x1
 1387 017f 46       		.byte	0x4
 1388              		.4byte	.LCFI21-.LCFI20
 1389 0180 0E       		.byte	0xe
 1390 0181 14       		.uleb128 0x14
 1391 0182 0000     		.align	2
 1392              	.LEFDE26:
 1393              	.LSFDE28:
 1394 0184 14000000 		.4byte	.LEFDE28-.LASFDE28
 1395              	.LASFDE28:
 1396 0188 00000000 		.4byte	.Lframe0
 1397 018c 40040000 		.4byte	.LFB19
 1398 0190 1C000000 		.4byte	.LFE19-.LFB19
 1399 0194 42       		.byte	0x4
 1400              		.4byte	.LCFI22-.LFB19
 1401 0195 0E       		.byte	0xe
 1402 0196 04       		.uleb128 0x4
 1403 0197 8E       		.byte	0x8e
 1404 0198 01       		.uleb128 0x1
 1405 0199 000000   		.align	2
 1406              	.LEFDE28:
 1407              	.LSFDE30:
 1408 019c 14000000 		.4byte	.LEFDE30-.LASFDE30
 1409              	.LASFDE30:
 1410 01a0 00000000 		.4byte	.Lframe0
 1411 01a4 5C040000 		.4byte	.LFB12
 1412 01a8 34000000 		.4byte	.LFE12-.LFB12
 1413 01ac 42       		.byte	0x4
 1414              		.4byte	.LCFI23-.LFB12
 1415 01ad 0E       		.byte	0xe
 1416 01ae 04       		.uleb128 0x4
 1417 01af 8E       		.byte	0x8e
 1418 01b0 01       		.uleb128 0x1
 1419 01b1 42       		.byte	0x4
 1420              		.4byte	.LCFI24-.LCFI23
 1421 01b2 0E       		.byte	0xe
ARM GAS  /cygdrive/c/DOCUME~1/ANDERS~1/LOKALA~1/Temp/ccd2VsKb.s 			page 39


 1422 01b3 08       		.uleb128 0x8
 1423              		.align	2
 1424              	.LEFDE30:
 1425              	.LSFDE32:
 1426 01b4 14000000 		.4byte	.LEFDE32-.LASFDE32
 1427              	.LASFDE32:
 1428 01b8 00000000 		.4byte	.Lframe0
 1429 01bc 90040000 		.4byte	.LFB8
 1430 01c0 30000000 		.4byte	.LFE8-.LFB8
 1431 01c4 42       		.byte	0x4
 1432              		.4byte	.LCFI25-.LFB8
 1433 01c5 0E       		.byte	0xe
 1434 01c6 04       		.uleb128 0x4
 1435 01c7 8E       		.byte	0x8e
 1436 01c8 01       		.uleb128 0x1
 1437 01c9 42       		.byte	0x4
 1438              		.4byte	.LCFI26-.LCFI25
 1439 01ca 0E       		.byte	0xe
 1440 01cb 08       		.uleb128 0x8
 1441              		.align	2
 1442              	.LEFDE32:
 1443              	.LSFDE34:
 1444 01cc 18000000 		.4byte	.LEFDE34-.LASFDE34
 1445              	.LASFDE34:
 1446 01d0 00000000 		.4byte	.Lframe0
 1447 01d4 C0040000 		.4byte	.LFB3
 1448 01d8 38000000 		.4byte	.LFE3-.LFB3
 1449 01dc 42       		.byte	0x4
 1450              		.4byte	.LCFI27-.LFB3
 1451 01dd 0E       		.byte	0xe
 1452 01de 08       		.uleb128 0x8
 1453 01df 84       		.byte	0x84
 1454 01e0 02       		.uleb128 0x2
 1455 01e1 8E       		.byte	0x8e
 1456 01e2 01       		.uleb128 0x1
 1457 01e3 42       		.byte	0x4
 1458              		.4byte	.LCFI28-.LCFI27
 1459 01e4 0E       		.byte	0xe
 1460 01e5 0C       		.uleb128 0xc
 1461 01e6 0000     		.align	2
 1462              	.LEFDE34:
 1463              		.file 2 "core/../api/general.h"
 1464              		.file 3 "core/pcb.h"
 1465              		.file 4 "core/prioqueue.h"
 1466              		.text
 1467              	.Letext0:
 1468              		.section	.debug_info
 1469 0000 FA050000 		.4byte	0x5fa
 1470 0004 0200     		.2byte	0x2
 1471 0006 00000000 		.4byte	.Ldebug_abbrev0
 1472 000a 04       		.byte	0x4
 1473 000b 01       		.uleb128 0x1
 1474 000c 00000000 		.4byte	.Ldebug_line0
 1475 0010 F8040000 		.4byte	.Letext0
 1476 0014 00000000 		.4byte	.Ltext0
 1477 0018 0B000000 		.4byte	.LASF63
 1478 001c 01       		.byte	0x1
ARM GAS  /cygdrive/c/DOCUME~1/ANDERS~1/LOKALA~1/Temp/ccd2VsKb.s 			page 40


 1479 001d 57010000 		.4byte	.LASF64
 1480 0021 1D020000 		.4byte	.LASF65
 1481 0025 02       		.uleb128 0x2
 1482 0026 74553800 		.ascii	"tU8\000"
 1483 002a 02       		.byte	0x2
 1484 002b 47       		.byte	0x47
 1485 002c 30000000 		.4byte	0x30
 1486 0030 03       		.uleb128 0x3
 1487 0031 A6000000 		.4byte	.LASF1
 1488 0035 01       		.byte	0x1
 1489 0036 08       		.byte	0x8
 1490 0037 04       		.uleb128 0x4
 1491 0038 18020000 		.4byte	.LASF0
 1492 003c 02       		.byte	0x2
 1493 003d 48       		.byte	0x48
 1494 003e 42000000 		.4byte	0x42
 1495 0042 03       		.uleb128 0x3
 1496 0043 81000000 		.4byte	.LASF2
 1497 0047 02       		.byte	0x2
 1498 0048 07       		.byte	0x7
 1499 0049 04       		.uleb128 0x4
 1500 004a B0020000 		.4byte	.LASF3
 1501 004e 02       		.byte	0x2
 1502 004f 49       		.byte	0x49
 1503 0050 54000000 		.4byte	0x54
 1504 0054 03       		.uleb128 0x3
 1505 0055 9A010000 		.4byte	.LASF4
 1506 0059 04       		.byte	0x4
 1507 005a 07       		.byte	0x7
 1508 005b 03       		.uleb128 0x3
 1509 005c 1E030000 		.4byte	.LASF5
 1510 0060 01       		.byte	0x1
 1511 0061 06       		.byte	0x6
 1512 0062 03       		.uleb128 0x3
 1513 0063 E3020000 		.4byte	.LASF6
 1514 0067 02       		.byte	0x2
 1515 0068 05       		.byte	0x5
 1516 0069 05       		.uleb128 0x5
 1517 006a 696E7400 		.ascii	"int\000"
 1518 006e 04       		.byte	0x4
 1519 006f 05       		.byte	0x5
 1520 0070 04       		.uleb128 0x4
 1521 0071 3E030000 		.4byte	.LASF7
 1522 0075 02       		.byte	0x2
 1523 0076 4D       		.byte	0x4d
 1524 0077 30000000 		.4byte	0x30
 1525 007b 06       		.uleb128 0x6
 1526 007c 30010000 		.4byte	0x130
 1527 0080 1F010000 		.4byte	.LASF20
 1528 0084 28       		.byte	0x28
 1529 0085 03       		.byte	0x3
 1530 0086 4D       		.byte	0x4d
 1531 0087 07       		.uleb128 0x7
 1532 0088 65010000 		.4byte	.LASF8
 1533 008c 03       		.byte	0x3
 1534 008d 4E       		.byte	0x4e
 1535 008e 30010000 		.4byte	0x130
ARM GAS  /cygdrive/c/DOCUME~1/ANDERS~1/LOKALA~1/Temp/ccd2VsKb.s 			page 41


 1536 0092 02       		.byte	0x2
 1537 0093 23       		.byte	0x23
 1538 0094 00       		.uleb128 0x0
 1539 0095 07       		.uleb128 0x7
 1540 0096 43010000 		.4byte	.LASF9
 1541 009a 03       		.byte	0x3
 1542 009b 4F       		.byte	0x4f
 1543 009c 36010000 		.4byte	0x136
 1544 00a0 02       		.byte	0x2
 1545 00a1 23       		.byte	0x23
 1546 00a2 04       		.uleb128 0x4
 1547 00a3 07       		.uleb128 0x7
 1548 00a4 F4000000 		.4byte	.LASF10
 1549 00a8 03       		.byte	0x3
 1550 00a9 50       		.byte	0x50
 1551 00aa 36010000 		.4byte	0x136
 1552 00ae 02       		.byte	0x2
 1553 00af 23       		.byte	0x23
 1554 00b0 08       		.uleb128 0x8
 1555 00b1 07       		.uleb128 0x7
 1556 00b2 76010000 		.4byte	.LASF11
 1557 00b6 03       		.byte	0x3
 1558 00b7 51       		.byte	0x51
 1559 00b8 36010000 		.4byte	0x136
 1560 00bc 02       		.byte	0x2
 1561 00bd 23       		.byte	0x23
 1562 00be 0C       		.uleb128 0xc
 1563 00bf 07       		.uleb128 0x7
 1564 00c0 2F010000 		.4byte	.LASF12
 1565 00c4 03       		.byte	0x3
 1566 00c5 52       		.byte	0x52
 1567 00c6 36010000 		.4byte	0x136
 1568 00ca 02       		.byte	0x2
 1569 00cb 23       		.byte	0x23
 1570 00cc 10       		.uleb128 0x10
 1571 00cd 07       		.uleb128 0x7
 1572 00ce 0F030000 		.4byte	.LASF13
 1573 00d2 03       		.byte	0x3
 1574 00d3 53       		.byte	0x53
 1575 00d4 36010000 		.4byte	0x136
 1576 00d8 02       		.byte	0x2
 1577 00d9 23       		.byte	0x23
 1578 00da 14       		.uleb128 0x14
 1579 00db 08       		.uleb128 0x8
 1580 00dc 70696400 		.ascii	"pid\000"
 1581 00e0 03       		.byte	0x3
 1582 00e1 54       		.byte	0x54
 1583 00e2 25000000 		.4byte	0x25
 1584 00e6 02       		.byte	0x2
 1585 00e7 23       		.byte	0x23
 1586 00e8 18       		.uleb128 0x18
 1587 00e9 07       		.uleb128 0x7
 1588 00ea 00000000 		.4byte	.LASF14
 1589 00ee 03       		.byte	0x3
 1590 00ef 55       		.byte	0x55
 1591 00f0 25000000 		.4byte	0x25
 1592 00f4 02       		.byte	0x2
ARM GAS  /cygdrive/c/DOCUME~1/ANDERS~1/LOKALA~1/Temp/ccd2VsKb.s 			page 42


 1593 00f5 23       		.byte	0x23
 1594 00f6 19       		.uleb128 0x19
 1595 00f7 07       		.uleb128 0x7
 1596 00f8 6A010000 		.4byte	.LASF15
 1597 00fc 03       		.byte	0x3
 1598 00fd 56       		.byte	0x56
 1599 00fe 25000000 		.4byte	0x25
 1600 0102 02       		.byte	0x2
 1601 0103 23       		.byte	0x23
 1602 0104 1A       		.uleb128 0x1a
 1603 0105 07       		.uleb128 0x7
 1604 0106 30030000 		.4byte	.LASF16
 1605 010a 03       		.byte	0x3
 1606 010b 57       		.byte	0x57
 1607 010c 49000000 		.4byte	0x49
 1608 0110 02       		.byte	0x2
 1609 0111 23       		.byte	0x23
 1610 0112 1C       		.uleb128 0x1c
 1611 0113 07       		.uleb128 0x7
 1612 0114 CB020000 		.4byte	.LASF17
 1613 0118 03       		.byte	0x3
 1614 0119 5A       		.byte	0x5a
 1615 011a 30010000 		.4byte	0x130
 1616 011e 02       		.byte	0x2
 1617 011f 23       		.byte	0x23
 1618 0120 20       		.uleb128 0x20
 1619 0121 07       		.uleb128 0x7
 1620 0122 A7010000 		.4byte	.LASF18
 1621 0126 03       		.byte	0x3
 1622 0127 5B       		.byte	0x5b
 1623 0128 37000000 		.4byte	0x37
 1624 012c 02       		.byte	0x2
 1625 012d 23       		.byte	0x23
 1626 012e 24       		.uleb128 0x24
 1627 012f 00       		.byte	0x0
 1628 0130 09       		.uleb128 0x9
 1629 0131 04       		.byte	0x4
 1630 0132 25000000 		.4byte	0x25
 1631 0136 09       		.uleb128 0x9
 1632 0137 04       		.byte	0x4
 1633 0138 7B000000 		.4byte	0x7b
 1634 013c 04       		.uleb128 0x4
 1635 013d B4000000 		.4byte	.LASF19
 1636 0141 03       		.byte	0x3
 1637 0142 5D       		.byte	0x5d
 1638 0143 7B000000 		.4byte	0x7b
 1639 0147 06       		.uleb128 0x6
 1640 0148 70010000 		.4byte	0x170
 1641 014c 0B020000 		.4byte	.LASF21
 1642 0150 18       		.byte	0x18
 1643 0151 04       		.byte	0x4
 1644 0152 49       		.byte	0x49
 1645 0153 07       		.uleb128 0x7
 1646 0154 08010000 		.4byte	.LASF22
 1647 0158 04       		.byte	0x4
 1648 0159 4A       		.byte	0x4a
 1649 015a 70010000 		.4byte	0x170
ARM GAS  /cygdrive/c/DOCUME~1/ANDERS~1/LOKALA~1/Temp/ccd2VsKb.s 			page 43


 1650 015e 02       		.byte	0x2
 1651 015f 23       		.byte	0x23
 1652 0160 00       		.uleb128 0x0
 1653 0161 07       		.uleb128 0x7
 1654 0162 2F000000 		.4byte	.LASF23
 1655 0166 04       		.byte	0x4
 1656 0167 4B       		.byte	0x4b
 1657 0168 87010000 		.4byte	0x187
 1658 016c 02       		.byte	0x2
 1659 016d 23       		.byte	0x23
 1660 016e 14       		.uleb128 0x14
 1661 016f 00       		.byte	0x0
 1662 0170 0A       		.uleb128 0xa
 1663 0171 80010000 		.4byte	0x180
 1664 0175 87010000 		.4byte	0x187
 1665 0179 0B       		.uleb128 0xb
 1666 017a 80010000 		.4byte	0x180
 1667 017e 04       		.byte	0x4
 1668 017f 00       		.byte	0x0
 1669 0180 03       		.uleb128 0x3
 1670 0181 D3000000 		.4byte	.LASF24
 1671 0185 04       		.byte	0x4
 1672 0186 07       		.byte	0x7
 1673 0187 09       		.uleb128 0x9
 1674 0188 04       		.byte	0x4
 1675 0189 3C010000 		.4byte	0x13c
 1676 018d 04       		.uleb128 0x4
 1677 018e BB000000 		.4byte	.LASF25
 1678 0192 04       		.byte	0x4
 1679 0193 4C       		.byte	0x4c
 1680 0194 47010000 		.4byte	0x147
 1681 0198 0C       		.uleb128 0xc
 1682 0199 DC010000 		.4byte	0x1dc
 1683 019d 01       		.byte	0x1
 1684 019e 29010000 		.4byte	.LASF27
 1685 01a2 01       		.byte	0x1
 1686 01a3 7C       		.byte	0x7c
 1687 01a4 01       		.byte	0x1
 1688 01a5 25000000 		.4byte	0x25
 1689 01a9 00000000 		.4byte	.LFB2
 1690 01ad 4C000000 		.4byte	.LFE2
 1691 01b1 01       		.byte	0x1
 1692 01b2 5D       		.byte	0x5d
 1693 01b3 0D       		.uleb128 0xd
 1694 01b4 6F010000 		.4byte	.LASF33
 1695 01b8 01       		.byte	0x1
 1696 01b9 7B       		.byte	0x7b
 1697 01ba 30010000 		.4byte	0x130
 1698 01be 01       		.byte	0x1
 1699 01bf 54       		.byte	0x54
 1700 01c0 0E       		.uleb128 0xe
 1701 01c1 5B000000 		.4byte	.LASF26
 1702 01c5 01       		.byte	0x1
 1703 01c6 7D       		.byte	0x7d
 1704 01c7 DC010000 		.4byte	0x1dc
 1705 01cb 02       		.byte	0x2
 1706 01cc 91       		.byte	0x91
ARM GAS  /cygdrive/c/DOCUME~1/ANDERS~1/LOKALA~1/Temp/ccd2VsKb.s 			page 44


 1707 01cd 00       		.sleb128 0
 1708 01ce 0F       		.uleb128 0xf
 1709 01cf 70696400 		.ascii	"pid\000"
 1710 01d3 01       		.byte	0x1
 1711 01d4 7F       		.byte	0x7f
 1712 01d5 25000000 		.4byte	0x25
 1713 01d9 01       		.byte	0x1
 1714 01da 54       		.byte	0x54
 1715 01db 00       		.byte	0x0
 1716 01dc 10       		.uleb128 0x10
 1717 01dd 49000000 		.4byte	0x49
 1718 01e1 11       		.uleb128 0x11
 1719 01e2 16020000 		.4byte	0x216
 1720 01e6 01       		.byte	0x1
 1721 01e7 E0010000 		.4byte	.LASF28
 1722 01eb 01       		.byte	0x1
 1723 01ec 7602     		.2byte	0x276
 1724 01ee 01       		.byte	0x1
 1725 01ef 4C000000 		.4byte	.LFB16
 1726 01f3 B0000000 		.4byte	.LFE16
 1727 01f7 01       		.byte	0x1
 1728 01f8 5D       		.byte	0x5d
 1729 01f9 12       		.uleb128 0x12
 1730 01fa ED020000 		.4byte	.LASF29
 1731 01fe 01       		.byte	0x1
 1732 01ff 7702     		.2byte	0x277
 1733 0201 87010000 		.4byte	0x187
 1734 0205 01       		.byte	0x1
 1735 0206 50       		.byte	0x50
 1736 0207 12       		.uleb128 0x12
 1737 0208 2A030000 		.4byte	.LASF30
 1738 020c 01       		.byte	0x1
 1739 020d 7802     		.2byte	0x278
 1740 020f 87010000 		.4byte	0x187
 1741 0213 01       		.byte	0x1
 1742 0214 55       		.byte	0x55
 1743 0215 00       		.byte	0x0
 1744 0216 13       		.uleb128 0x13
 1745 0217 39020000 		.4byte	0x239
 1746 021b 01       		.byte	0x1
 1747 021c BB010000 		.4byte	.LASF31
 1748 0220 01       		.byte	0x1
 1749 0221 B4       		.byte	0xb4
 1750 0222 01       		.byte	0x1
 1751 0223 B0000000 		.4byte	.LFB4
 1752 0227 DC000000 		.4byte	.LFE4
 1753 022b 01       		.byte	0x1
 1754 022c 5D       		.byte	0x5d
 1755 022d 0F       		.uleb128 0xf
 1756 022e 6900     		.ascii	"i\000"
 1757 0230 01       		.byte	0x1
 1758 0231 B5       		.byte	0xb5
 1759 0232 37000000 		.4byte	0x37
 1760 0236 01       		.byte	0x1
 1761 0237 50       		.byte	0x50
 1762 0238 00       		.byte	0x0
 1763 0239 14       		.uleb128 0x14
ARM GAS  /cygdrive/c/DOCUME~1/ANDERS~1/LOKALA~1/Temp/ccd2VsKb.s 			page 45


 1764 023a 01       		.byte	0x1
 1765 023b D5010000 		.4byte	.LASF38
 1766 023f 01       		.byte	0x1
 1767 0240 EA       		.byte	0xea
 1768 0241 01       		.byte	0x1
 1769 0242 DC000000 		.4byte	.LFB6
 1770 0246 00010000 		.4byte	.LFE6
 1771 024a 01       		.byte	0x1
 1772 024b 5D       		.byte	0x5d
 1773 024c 11       		.uleb128 0x11
 1774 024d E7020000 		.4byte	0x2e7
 1775 0251 01       		.byte	0x1
 1776 0252 8A010000 		.4byte	.LASF32
 1777 0256 01       		.byte	0x1
 1778 0257 6201     		.2byte	0x162
 1779 0259 01       		.byte	0x1
 1780 025a 00010000 		.4byte	.LFB9
 1781 025e 9C010000 		.4byte	.LFE9
 1782 0262 01       		.byte	0x1
 1783 0263 5D       		.byte	0x5d
 1784 0264 15       		.uleb128 0x15
 1785 0265 B5020000 		.4byte	.LASF34
 1786 0269 01       		.byte	0x1
 1787 026a 5B01     		.2byte	0x15b
 1788 026c F5020000 		.4byte	0x2f5
 1789 0270 02       		.byte	0x2
 1790 0271 91       		.byte	0x91
 1791 0272 08       		.sleb128 8
 1792 0273 15       		.uleb128 0x15
 1793 0274 65010000 		.4byte	.LASF8
 1794 0278 01       		.byte	0x1
 1795 0279 5C01     		.2byte	0x15c
 1796 027b 30010000 		.4byte	0x130
 1797 027f 01       		.byte	0x1
 1798 0280 56       		.byte	0x56
 1799 0281 15       		.uleb128 0x15
 1800 0282 1D000000 		.4byte	.LASF35
 1801 0286 01       		.byte	0x1
 1802 0287 5D01     		.2byte	0x15d
 1803 0289 37000000 		.4byte	0x37
 1804 028d 01       		.byte	0x1
 1805 028e 57       		.byte	0x57
 1806 028f 15       		.uleb128 0x15
 1807 0290 35000000 		.4byte	.LASF36
 1808 0294 01       		.byte	0x1
 1809 0295 5E01     		.2byte	0x15e
 1810 0297 30010000 		.4byte	0x130
 1811 029b 02       		.byte	0x2
 1812 029c 91       		.byte	0x91
 1813 029d 04       		.sleb128 4
 1814 029e 15       		.uleb128 0x15
 1815 029f 00000000 		.4byte	.LASF14
 1816 02a3 01       		.byte	0x1
 1817 02a4 5F01     		.2byte	0x15f
 1818 02a6 25000000 		.4byte	0x25
 1819 02aa 02       		.byte	0x2
 1820 02ab 91       		.byte	0x91
ARM GAS  /cygdrive/c/DOCUME~1/ANDERS~1/LOKALA~1/Temp/ccd2VsKb.s 			page 46


 1821 02ac 00       		.sleb128 0
 1822 02ad 15       		.uleb128 0x15
 1823 02ae 3A000000 		.4byte	.LASF37
 1824 02b2 01       		.byte	0x1
 1825 02b3 6001     		.2byte	0x160
 1826 02b5 F3020000 		.4byte	0x2f3
 1827 02b9 02       		.byte	0x2
 1828 02ba 91       		.byte	0x91
 1829 02bb 24       		.sleb128 36
 1830 02bc 15       		.uleb128 0x15
 1831 02bd 6F010000 		.4byte	.LASF33
 1832 02c1 01       		.byte	0x1
 1833 02c2 6101     		.2byte	0x161
 1834 02c4 30010000 		.4byte	0x130
 1835 02c8 01       		.byte	0x1
 1836 02c9 51       		.byte	0x51
 1837 02ca 12       		.uleb128 0x12
 1838 02cb ED020000 		.4byte	.LASF29
 1839 02cf 01       		.byte	0x1
 1840 02d0 6301     		.2byte	0x163
 1841 02d2 87010000 		.4byte	0x187
 1842 02d6 01       		.byte	0x1
 1843 02d7 54       		.byte	0x54
 1844 02d8 16       		.uleb128 0x16
 1845 02d9 70696400 		.ascii	"pid\000"
 1846 02dd 01       		.byte	0x1
 1847 02de 6401     		.2byte	0x164
 1848 02e0 25000000 		.4byte	0x25
 1849 02e4 01       		.byte	0x1
 1850 02e5 55       		.byte	0x55
 1851 02e6 00       		.byte	0x0
 1852 02e7 17       		.uleb128 0x17
 1853 02e8 F3020000 		.4byte	0x2f3
 1854 02ec 01       		.byte	0x1
 1855 02ed 18       		.uleb128 0x18
 1856 02ee F3020000 		.4byte	0x2f3
 1857 02f2 00       		.byte	0x0
 1858 02f3 19       		.uleb128 0x19
 1859 02f4 04       		.byte	0x4
 1860 02f5 09       		.uleb128 0x9
 1861 02f6 04       		.byte	0x4
 1862 02f7 E7020000 		.4byte	0x2e7
 1863 02fb 1A       		.uleb128 0x1a
 1864 02fc 01       		.byte	0x1
 1865 02fd 94000000 		.4byte	.LASF39
 1866 0301 01       		.byte	0x1
 1867 0302 6602     		.2byte	0x266
 1868 0304 01       		.byte	0x1
 1869 0305 9C010000 		.4byte	.LFB15
 1870 0309 B8010000 		.4byte	.LFE15
 1871 030d 01       		.byte	0x1
 1872 030e 5D       		.byte	0x5d
 1873 030f 11       		.uleb128 0x11
 1874 0310 43030000 		.4byte	0x343
 1875 0314 01       		.byte	0x1
 1876 0315 C2010000 		.4byte	.LASF40
 1877 0319 01       		.byte	0x1
ARM GAS  /cygdrive/c/DOCUME~1/ANDERS~1/LOKALA~1/Temp/ccd2VsKb.s 			page 47


 1878 031a 3F02     		.2byte	0x23f
 1879 031c 01       		.byte	0x1
 1880 031d B8010000 		.4byte	.LFB14
 1881 0321 24020000 		.4byte	.LFE14
 1882 0325 01       		.byte	0x1
 1883 0326 5D       		.byte	0x5d
 1884 0327 12       		.uleb128 0x12
 1885 0328 5B000000 		.4byte	.LASF26
 1886 032c 01       		.byte	0x1
 1887 032d 4002     		.2byte	0x240
 1888 032f DC010000 		.4byte	0x1dc
 1889 0333 02       		.byte	0x2
 1890 0334 91       		.byte	0x91
 1891 0335 00       		.sleb128 0
 1892 0336 1B       		.uleb128 0x1b
 1893 0337 12010000 		.4byte	.LASF66
 1894 033b 01       		.byte	0x1
 1895 033c 4E02     		.2byte	0x24e
 1896 033e CC010000 		.4byte	.L50
 1897 0342 00       		.byte	0x0
 1898 0343 11       		.uleb128 0x11
 1899 0344 6B030000 		.4byte	0x36b
 1900 0348 01       		.byte	0x1
 1901 0349 25000000 		.4byte	.LASF41
 1902 034d 01       		.byte	0x1
 1903 034e 0101     		.2byte	0x101
 1904 0350 01       		.byte	0x1
 1905 0351 24020000 		.4byte	.LFB7
 1906 0355 8C020000 		.4byte	.LFE7
 1907 0359 01       		.byte	0x1
 1908 035a 5D       		.byte	0x5d
 1909 035b 12       		.uleb128 0x12
 1910 035c 5B000000 		.4byte	.LASF26
 1911 0360 01       		.byte	0x1
 1912 0361 0201     		.2byte	0x102
 1913 0363 DC010000 		.4byte	0x1dc
 1914 0367 02       		.byte	0x2
 1915 0368 91       		.byte	0x91
 1916 0369 00       		.sleb128 0
 1917 036a 00       		.byte	0x0
 1918 036b 13       		.uleb128 0x13
 1919 036c 91030000 		.4byte	0x391
 1920 0370 01       		.byte	0x1
 1921 0371 36030000 		.4byte	.LASF42
 1922 0375 01       		.byte	0x1
 1923 0376 D1       		.byte	0xd1
 1924 0377 01       		.byte	0x1
 1925 0378 8C020000 		.4byte	.LFB5
 1926 037c B8020000 		.4byte	.LFE5
 1927 0380 01       		.byte	0x1
 1928 0381 5D       		.byte	0x5d
 1929 0382 0E       		.uleb128 0xe
 1930 0383 5B000000 		.4byte	.LASF26
 1931 0387 01       		.byte	0x1
 1932 0388 D2       		.byte	0xd2
 1933 0389 DC010000 		.4byte	0x1dc
 1934 038d 02       		.byte	0x2
ARM GAS  /cygdrive/c/DOCUME~1/ANDERS~1/LOKALA~1/Temp/ccd2VsKb.s 			page 48


 1935 038e 91       		.byte	0x91
 1936 038f 00       		.sleb128 0
 1937 0390 00       		.byte	0x0
 1938 0391 11       		.uleb128 0x11
 1939 0392 D4030000 		.4byte	0x3d4
 1940 0396 01       		.byte	0x1
 1941 0397 D3020000 		.4byte	.LASF43
 1942 039b 01       		.byte	0x1
 1943 039c A902     		.2byte	0x2a9
 1944 039e 01       		.byte	0x1
 1945 039f B8020000 		.4byte	.LFB17
 1946 03a3 FC020000 		.4byte	.LFE17
 1947 03a7 01       		.byte	0x1
 1948 03a8 5D       		.byte	0x5d
 1949 03a9 15       		.uleb128 0x15
 1950 03aa ED020000 		.4byte	.LASF29
 1951 03ae 01       		.byte	0x1
 1952 03af A802     		.2byte	0x2a8
 1953 03b1 87010000 		.4byte	0x187
 1954 03b5 01       		.byte	0x1
 1955 03b6 50       		.byte	0x50
 1956 03b7 12       		.uleb128 0x12
 1957 03b8 78000000 		.4byte	.LASF44
 1958 03bc 01       		.byte	0x1
 1959 03bd AA02     		.2byte	0x2aa
 1960 03bf 87010000 		.4byte	0x187
 1961 03c3 01       		.byte	0x1
 1962 03c4 52       		.byte	0x52
 1963 03c5 12       		.uleb128 0x12
 1964 03c6 2A030000 		.4byte	.LASF30
 1965 03ca 01       		.byte	0x1
 1966 03cb AB02     		.2byte	0x2ab
 1967 03cd 87010000 		.4byte	0x187
 1968 03d1 01       		.byte	0x1
 1969 03d2 51       		.byte	0x51
 1970 03d3 00       		.byte	0x0
 1971 03d4 11       		.uleb128 0x11
 1972 03d5 FB030000 		.4byte	0x3fb
 1973 03d9 01       		.byte	0x1
 1974 03da C6000000 		.4byte	.LASF45
 1975 03de 01       		.byte	0x1
 1976 03df D302     		.2byte	0x2d3
 1977 03e1 01       		.byte	0x1
 1978 03e2 FC020000 		.4byte	.LFB18
 1979 03e6 10030000 		.4byte	.LFE18
 1980 03ea 01       		.byte	0x1
 1981 03eb 5D       		.byte	0x5d
 1982 03ec 15       		.uleb128 0x15
 1983 03ed 17000000 		.4byte	.LASF46
 1984 03f1 01       		.byte	0x1
 1985 03f2 D202     		.2byte	0x2d2
 1986 03f4 87010000 		.4byte	0x187
 1987 03f8 01       		.byte	0x1
 1988 03f9 51       		.byte	0x51
 1989 03fa 00       		.byte	0x0
 1990 03fb 11       		.uleb128 0x11
 1991 03fc 3F040000 		.4byte	0x43f
ARM GAS  /cygdrive/c/DOCUME~1/ANDERS~1/LOKALA~1/Temp/ccd2VsKb.s 			page 49


 1992 0400 01       		.byte	0x1
 1993 0401 49000000 		.4byte	.LASF47
 1994 0405 01       		.byte	0x1
 1995 0406 1802     		.2byte	0x218
 1996 0408 01       		.byte	0x1
 1997 0409 10030000 		.4byte	.LFB13
 1998 040d 7C030000 		.4byte	.LFE13
 1999 0411 01       		.byte	0x1
 2000 0412 5D       		.byte	0x5d
 2001 0413 1C       		.uleb128 0x1c
 2002 0414 70696400 		.ascii	"pid\000"
 2003 0418 01       		.byte	0x1
 2004 0419 1602     		.2byte	0x216
 2005 041b 25000000 		.4byte	0x25
 2006 041f 01       		.byte	0x1
 2007 0420 54       		.byte	0x54
 2008 0421 15       		.uleb128 0x15
 2009 0422 6F010000 		.4byte	.LASF33
 2010 0426 01       		.byte	0x1
 2011 0427 1702     		.2byte	0x217
 2012 0429 30010000 		.4byte	0x130
 2013 042d 01       		.byte	0x1
 2014 042e 51       		.byte	0x51
 2015 042f 12       		.uleb128 0x12
 2016 0430 5B000000 		.4byte	.LASF26
 2017 0434 01       		.byte	0x1
 2018 0435 1902     		.2byte	0x219
 2019 0437 DC010000 		.4byte	0x1dc
 2020 043b 02       		.byte	0x2
 2021 043c 91       		.byte	0x91
 2022 043d 00       		.sleb128 0
 2023 043e 00       		.byte	0x0
 2024 043f 11       		.uleb128 0x11
 2025 0440 85040000 		.4byte	0x485
 2026 0444 01       		.byte	0x1
 2027 0445 57030000 		.4byte	.LASF48
 2028 0449 01       		.byte	0x1
 2029 044a DA01     		.2byte	0x1da
 2030 044c 01       		.byte	0x1
 2031 044d 7C030000 		.4byte	.LFB11
 2032 0451 D8030000 		.4byte	.LFE11
 2033 0455 01       		.byte	0x1
 2034 0456 5D       		.byte	0x5d
 2035 0457 12       		.uleb128 0x12
 2036 0458 5B000000 		.4byte	.LASF26
 2037 045c 01       		.byte	0x1
 2038 045d DB01     		.2byte	0x1db
 2039 045f DC010000 		.4byte	0x1dc
 2040 0463 02       		.byte	0x2
 2041 0464 91       		.byte	0x91
 2042 0465 00       		.sleb128 0
 2043 0466 12       		.uleb128 0x12
 2044 0467 17000000 		.4byte	.LASF46
 2045 046b 01       		.byte	0x1
 2046 046c DC01     		.2byte	0x1dc
 2047 046e 87010000 		.4byte	0x187
 2048 0472 01       		.byte	0x1
ARM GAS  /cygdrive/c/DOCUME~1/ANDERS~1/LOKALA~1/Temp/ccd2VsKb.s 			page 50


 2049 0473 50       		.byte	0x50
 2050 0474 1D       		.uleb128 0x1d
 2051 0475 01       		.byte	0x1
 2052 0476 41000000 		.4byte	.LASF67
 2053 047a 01       		.byte	0x1
 2054 047b EE01     		.2byte	0x1ee
 2055 047d 69000000 		.4byte	0x69
 2056 0481 01       		.byte	0x1
 2057 0482 1E       		.uleb128 0x1e
 2058 0483 00       		.byte	0x0
 2059 0484 00       		.byte	0x0
 2060 0485 11       		.uleb128 0x11
 2061 0486 C9040000 		.4byte	0x4c9
 2062 048a 01       		.byte	0x1
 2063 048b F2020000 		.4byte	.LASF49
 2064 048f 01       		.byte	0x1
 2065 0490 AD01     		.2byte	0x1ad
 2066 0492 01       		.byte	0x1
 2067 0493 D8030000 		.4byte	.LFB10
 2068 0497 40040000 		.4byte	.LFE10
 2069 049b 01       		.byte	0x1
 2070 049c 5D       		.byte	0x5d
 2071 049d 1C       		.uleb128 0x1c
 2072 049e 70696400 		.ascii	"pid\000"
 2073 04a2 01       		.byte	0x1
 2074 04a3 AB01     		.2byte	0x1ab
 2075 04a5 25000000 		.4byte	0x25
 2076 04a9 01       		.byte	0x1
 2077 04aa 50       		.byte	0x50
 2078 04ab 15       		.uleb128 0x15
 2079 04ac 6F010000 		.4byte	.LASF33
 2080 04b0 01       		.byte	0x1
 2081 04b1 AC01     		.2byte	0x1ac
 2082 04b3 30010000 		.4byte	0x130
 2083 04b7 01       		.byte	0x1
 2084 04b8 51       		.byte	0x51
 2085 04b9 12       		.uleb128 0x12
 2086 04ba 5B000000 		.4byte	.LASF26
 2087 04be 01       		.byte	0x1
 2088 04bf AE01     		.2byte	0x1ae
 2089 04c1 DC010000 		.4byte	0x1dc
 2090 04c5 02       		.byte	0x2
 2091 04c6 91       		.byte	0x91
 2092 04c7 00       		.sleb128 0
 2093 04c8 00       		.byte	0x0
 2094 04c9 1A       		.uleb128 0x1a
 2095 04ca 01       		.byte	0x1
 2096 04cb E5000000 		.4byte	.LASF50
 2097 04cf 01       		.byte	0x1
 2098 04d0 E002     		.2byte	0x2e0
 2099 04d2 01       		.byte	0x1
 2100 04d3 40040000 		.4byte	.LFB19
 2101 04d7 5C040000 		.4byte	.LFE19
 2102 04db 01       		.byte	0x1
 2103 04dc 5D       		.byte	0x5d
 2104 04dd 11       		.uleb128 0x11
 2105 04de 05050000 		.4byte	0x505
ARM GAS  /cygdrive/c/DOCUME~1/ANDERS~1/LOKALA~1/Temp/ccd2VsKb.s 			page 51


 2106 04e2 01       		.byte	0x1
 2107 04e3 B1010000 		.4byte	.LASF51
 2108 04e7 01       		.byte	0x1
 2109 04e8 FB01     		.2byte	0x1fb
 2110 04ea 01       		.byte	0x1
 2111 04eb 5C040000 		.4byte	.LFB12
 2112 04ef 90040000 		.4byte	.LFE12
 2113 04f3 01       		.byte	0x1
 2114 04f4 5D       		.byte	0x5d
 2115 04f5 12       		.uleb128 0x12
 2116 04f6 5B000000 		.4byte	.LASF26
 2117 04fa 01       		.byte	0x1
 2118 04fb FC01     		.2byte	0x1fc
 2119 04fd DC010000 		.4byte	0x1dc
 2120 0501 02       		.byte	0x2
 2121 0502 91       		.byte	0x91
 2122 0503 00       		.sleb128 0
 2123 0504 00       		.byte	0x0
 2124 0505 11       		.uleb128 0x11
 2125 0506 2D050000 		.4byte	0x52d
 2126 050a 01       		.byte	0x1
 2127 050b BB020000 		.4byte	.LASF52
 2128 050f 01       		.byte	0x1
 2129 0510 2201     		.2byte	0x122
 2130 0512 01       		.byte	0x1
 2131 0513 90040000 		.4byte	.LFB8
 2132 0517 C0040000 		.4byte	.LFE8
 2133 051b 01       		.byte	0x1
 2134 051c 5D       		.byte	0x5d
 2135 051d 12       		.uleb128 0x12
 2136 051e 5B000000 		.4byte	.LASF26
 2137 0522 01       		.byte	0x1
 2138 0523 2301     		.2byte	0x123
 2139 0525 DC010000 		.4byte	0x1dc
 2140 0529 02       		.byte	0x2
 2141 052a 91       		.byte	0x91
 2142 052b 00       		.sleb128 0
 2143 052c 00       		.byte	0x0
 2144 052d 13       		.uleb128 0x13
 2145 052e 60050000 		.4byte	0x560
 2146 0532 01       		.byte	0x1
 2147 0533 EE010000 		.4byte	.LASF53
 2148 0537 01       		.byte	0x1
 2149 0538 9C       		.byte	0x9c
 2150 0539 01       		.byte	0x1
 2151 053a C0040000 		.4byte	.LFB3
 2152 053e F8040000 		.4byte	.LFE3
 2153 0542 01       		.byte	0x1
 2154 0543 5D       		.byte	0x5d
 2155 0544 0D       		.uleb128 0xd
 2156 0545 05000000 		.4byte	.LASF54
 2157 0549 01       		.byte	0x1
 2158 054a 9B       		.byte	0x9b
 2159 054b 49000000 		.4byte	0x49
 2160 054f 01       		.byte	0x1
 2161 0550 54       		.byte	0x54
 2162 0551 0E       		.uleb128 0xe
ARM GAS  /cygdrive/c/DOCUME~1/ANDERS~1/LOKALA~1/Temp/ccd2VsKb.s 			page 52


 2163 0552 5B000000 		.4byte	.LASF26
 2164 0556 01       		.byte	0x1
 2165 0557 9D       		.byte	0x9d
 2166 0558 DC010000 		.4byte	0x1dc
 2167 055c 02       		.byte	0x2
 2168 055d 91       		.byte	0x91
 2169 055e 00       		.sleb128 0
 2170 055f 00       		.byte	0x0
 2171 0560 1F       		.uleb128 0x1f
 2172 0561 52000000 		.4byte	.LASF55
 2173 0565 01       		.byte	0x1
 2174 0566 4E       		.byte	0x4e
 2175 0567 87010000 		.4byte	0x187
 2176 056b 01       		.byte	0x1
 2177 056c 05       		.byte	0x5
 2178 056d 03       		.byte	0x3
 2179 056e 00000000 		.4byte	pRunProc
 2180 0572 1F       		.uleb128 0x1f
 2181 0573 CB010000 		.4byte	.LASF56
 2182 0577 01       		.byte	0x1
 2183 0578 4F       		.byte	0x4f
 2184 0579 87010000 		.4byte	0x187
 2185 057d 01       		.byte	0x1
 2186 057e 05       		.byte	0x5
 2187 057f 03       		.byte	0x3
 2188 0580 00000000 		.4byte	pNxtToRun
 2189 0584 1F       		.uleb128 0x1f
 2190 0585 F6010000 		.4byte	.LASF57
 2191 0589 01       		.byte	0x1
 2192 058a 50       		.byte	0x50
 2193 058b 25000000 		.4byte	0x25
 2194 058f 01       		.byte	0x1
 2195 0590 05       		.byte	0x5
 2196 0591 03       		.byte	0x3
 2197 0592 00000000 		.4byte	isrNesting
 2198 0596 1F       		.uleb128 0x1f
 2199 0597 01030000 		.4byte	.LASF58
 2200 059b 01       		.byte	0x1
 2201 059c 52       		.byte	0x52
 2202 059d 25000000 		.4byte	0x25
 2203 05a1 01       		.byte	0x1
 2204 05a2 05       		.byte	0x5
 2205 05a3 03       		.byte	0x3
 2206 05a4 00000000 		.4byte	osLockNesting
 2207 05a8 0A       		.uleb128 0xa
 2208 05a9 B8050000 		.4byte	0x5b8
 2209 05ad 3C010000 		.4byte	0x13c
 2210 05b1 0B       		.uleb128 0xb
 2211 05b2 80010000 		.4byte	0x180
 2212 05b6 05       		.byte	0x5
 2213 05b7 00       		.byte	0x0
 2214 05b8 1F       		.uleb128 0x1f
 2215 05b9 63000000 		.4byte	.LASF59
 2216 05bd 01       		.byte	0x1
 2217 05be 54       		.byte	0x54
 2218 05bf A8050000 		.4byte	0x5a8
 2219 05c3 01       		.byte	0x1
ARM GAS  /cygdrive/c/DOCUME~1/ANDERS~1/LOKALA~1/Temp/ccd2VsKb.s 			page 53


 2220 05c4 05       		.byte	0x5
 2221 05c5 03       		.byte	0x3
 2222 05c6 00000000 		.4byte	processControlBlocks
 2223 05ca 0E       		.uleb128 0xe
 2224 05cb 44030000 		.4byte	.LASF60
 2225 05cf 01       		.byte	0x1
 2226 05d0 5A       		.byte	0x5a
 2227 05d1 8D010000 		.4byte	0x18d
 2228 05d5 05       		.byte	0x5
 2229 05d6 03       		.byte	0x3
 2230 05d7 14000000 		.4byte	rdyQueue
 2231 05db 0E       		.uleb128 0xe
 2232 05dc 4D030000 		.4byte	.LASF61
 2233 05e0 01       		.byte	0x1
 2234 05e1 5B       		.byte	0x5b
 2235 05e2 87010000 		.4byte	0x187
 2236 05e6 05       		.byte	0x5
 2237 05e7 03       		.byte	0x3
 2238 05e8 0C000000 		.4byte	pTimeList
 2239 05ec 0E       		.uleb128 0xe
 2240 05ed 01020000 		.4byte	.LASF62
 2241 05f1 01       		.byte	0x1
 2242 05f2 5C       		.byte	0x5c
 2243 05f3 70000000 		.4byte	0x70
 2244 05f7 05       		.byte	0x5
 2245 05f8 03       		.byte	0x3
 2246 05f9 10000000 		.4byte	osRunning
 2247 05fd 00       		.byte	0x0
 2248              		.section	.debug_abbrev
 2249 0000 01       		.uleb128 0x1
 2250 0001 11       		.uleb128 0x11
 2251 0002 01       		.byte	0x1
 2252 0003 10       		.uleb128 0x10
 2253 0004 06       		.uleb128 0x6
 2254 0005 12       		.uleb128 0x12
 2255 0006 01       		.uleb128 0x1
 2256 0007 11       		.uleb128 0x11
 2257 0008 01       		.uleb128 0x1
 2258 0009 25       		.uleb128 0x25
 2259 000a 0E       		.uleb128 0xe
 2260 000b 13       		.uleb128 0x13
 2261 000c 0B       		.uleb128 0xb
 2262 000d 03       		.uleb128 0x3
 2263 000e 0E       		.uleb128 0xe
 2264 000f 1B       		.uleb128 0x1b
 2265 0010 0E       		.uleb128 0xe
 2266 0011 00       		.byte	0x0
 2267 0012 00       		.byte	0x0
 2268 0013 02       		.uleb128 0x2
 2269 0014 16       		.uleb128 0x16
 2270 0015 00       		.byte	0x0
 2271 0016 03       		.uleb128 0x3
 2272 0017 08       		.uleb128 0x8
 2273 0018 3A       		.uleb128 0x3a
 2274 0019 0B       		.uleb128 0xb
 2275 001a 3B       		.uleb128 0x3b
 2276 001b 0B       		.uleb128 0xb
ARM GAS  /cygdrive/c/DOCUME~1/ANDERS~1/LOKALA~1/Temp/ccd2VsKb.s 			page 54


 2277 001c 49       		.uleb128 0x49
 2278 001d 13       		.uleb128 0x13
 2279 001e 00       		.byte	0x0
 2280 001f 00       		.byte	0x0
 2281 0020 03       		.uleb128 0x3
 2282 0021 24       		.uleb128 0x24
 2283 0022 00       		.byte	0x0
 2284 0023 03       		.uleb128 0x3
 2285 0024 0E       		.uleb128 0xe
 2286 0025 0B       		.uleb128 0xb
 2287 0026 0B       		.uleb128 0xb
 2288 0027 3E       		.uleb128 0x3e
 2289 0028 0B       		.uleb128 0xb
 2290 0029 00       		.byte	0x0
 2291 002a 00       		.byte	0x0
 2292 002b 04       		.uleb128 0x4
 2293 002c 16       		.uleb128 0x16
 2294 002d 00       		.byte	0x0
 2295 002e 03       		.uleb128 0x3
 2296 002f 0E       		.uleb128 0xe
 2297 0030 3A       		.uleb128 0x3a
 2298 0031 0B       		.uleb128 0xb
 2299 0032 3B       		.uleb128 0x3b
 2300 0033 0B       		.uleb128 0xb
 2301 0034 49       		.uleb128 0x49
 2302 0035 13       		.uleb128 0x13
 2303 0036 00       		.byte	0x0
 2304 0037 00       		.byte	0x0
 2305 0038 05       		.uleb128 0x5
 2306 0039 24       		.uleb128 0x24
 2307 003a 00       		.byte	0x0
 2308 003b 03       		.uleb128 0x3
 2309 003c 08       		.uleb128 0x8
 2310 003d 0B       		.uleb128 0xb
 2311 003e 0B       		.uleb128 0xb
 2312 003f 3E       		.uleb128 0x3e
 2313 0040 0B       		.uleb128 0xb
 2314 0041 00       		.byte	0x0
 2315 0042 00       		.byte	0x0
 2316 0043 06       		.uleb128 0x6
 2317 0044 13       		.uleb128 0x13
 2318 0045 01       		.byte	0x1
 2319 0046 01       		.uleb128 0x1
 2320 0047 13       		.uleb128 0x13
 2321 0048 03       		.uleb128 0x3
 2322 0049 0E       		.uleb128 0xe
 2323 004a 0B       		.uleb128 0xb
 2324 004b 0B       		.uleb128 0xb
 2325 004c 3A       		.uleb128 0x3a
 2326 004d 0B       		.uleb128 0xb
 2327 004e 3B       		.uleb128 0x3b
 2328 004f 0B       		.uleb128 0xb
 2329 0050 00       		.byte	0x0
 2330 0051 00       		.byte	0x0
 2331 0052 07       		.uleb128 0x7
 2332 0053 0D       		.uleb128 0xd
 2333 0054 00       		.byte	0x0
ARM GAS  /cygdrive/c/DOCUME~1/ANDERS~1/LOKALA~1/Temp/ccd2VsKb.s 			page 55


 2334 0055 03       		.uleb128 0x3
 2335 0056 0E       		.uleb128 0xe
 2336 0057 3A       		.uleb128 0x3a
 2337 0058 0B       		.uleb128 0xb
 2338 0059 3B       		.uleb128 0x3b
 2339 005a 0B       		.uleb128 0xb
 2340 005b 49       		.uleb128 0x49
 2341 005c 13       		.uleb128 0x13
 2342 005d 38       		.uleb128 0x38
 2343 005e 0A       		.uleb128 0xa
 2344 005f 00       		.byte	0x0
 2345 0060 00       		.byte	0x0
 2346 0061 08       		.uleb128 0x8
 2347 0062 0D       		.uleb128 0xd
 2348 0063 00       		.byte	0x0
 2349 0064 03       		.uleb128 0x3
 2350 0065 08       		.uleb128 0x8
 2351 0066 3A       		.uleb128 0x3a
 2352 0067 0B       		.uleb128 0xb
 2353 0068 3B       		.uleb128 0x3b
 2354 0069 0B       		.uleb128 0xb
 2355 006a 49       		.uleb128 0x49
 2356 006b 13       		.uleb128 0x13
 2357 006c 38       		.uleb128 0x38
 2358 006d 0A       		.uleb128 0xa
 2359 006e 00       		.byte	0x0
 2360 006f 00       		.byte	0x0
 2361 0070 09       		.uleb128 0x9
 2362 0071 0F       		.uleb128 0xf
 2363 0072 00       		.byte	0x0
 2364 0073 0B       		.uleb128 0xb
 2365 0074 0B       		.uleb128 0xb
 2366 0075 49       		.uleb128 0x49
 2367 0076 13       		.uleb128 0x13
 2368 0077 00       		.byte	0x0
 2369 0078 00       		.byte	0x0
 2370 0079 0A       		.uleb128 0xa
 2371 007a 01       		.uleb128 0x1
 2372 007b 01       		.byte	0x1
 2373 007c 01       		.uleb128 0x1
 2374 007d 13       		.uleb128 0x13
 2375 007e 49       		.uleb128 0x49
 2376 007f 13       		.uleb128 0x13
 2377 0080 00       		.byte	0x0
 2378 0081 00       		.byte	0x0
 2379 0082 0B       		.uleb128 0xb
 2380 0083 21       		.uleb128 0x21
 2381 0084 00       		.byte	0x0
 2382 0085 49       		.uleb128 0x49
 2383 0086 13       		.uleb128 0x13
 2384 0087 2F       		.uleb128 0x2f
 2385 0088 0B       		.uleb128 0xb
 2386 0089 00       		.byte	0x0
 2387 008a 00       		.byte	0x0
 2388 008b 0C       		.uleb128 0xc
 2389 008c 2E       		.uleb128 0x2e
 2390 008d 01       		.byte	0x1
ARM GAS  /cygdrive/c/DOCUME~1/ANDERS~1/LOKALA~1/Temp/ccd2VsKb.s 			page 56


 2391 008e 01       		.uleb128 0x1
 2392 008f 13       		.uleb128 0x13
 2393 0090 3F       		.uleb128 0x3f
 2394 0091 0C       		.uleb128 0xc
 2395 0092 03       		.uleb128 0x3
 2396 0093 0E       		.uleb128 0xe
 2397 0094 3A       		.uleb128 0x3a
 2398 0095 0B       		.uleb128 0xb
 2399 0096 3B       		.uleb128 0x3b
 2400 0097 0B       		.uleb128 0xb
 2401 0098 27       		.uleb128 0x27
 2402 0099 0C       		.uleb128 0xc
 2403 009a 49       		.uleb128 0x49
 2404 009b 13       		.uleb128 0x13
 2405 009c 11       		.uleb128 0x11
 2406 009d 01       		.uleb128 0x1
 2407 009e 12       		.uleb128 0x12
 2408 009f 01       		.uleb128 0x1
 2409 00a0 40       		.uleb128 0x40
 2410 00a1 0A       		.uleb128 0xa
 2411 00a2 00       		.byte	0x0
 2412 00a3 00       		.byte	0x0
 2413 00a4 0D       		.uleb128 0xd
 2414 00a5 05       		.uleb128 0x5
 2415 00a6 00       		.byte	0x0
 2416 00a7 03       		.uleb128 0x3
 2417 00a8 0E       		.uleb128 0xe
 2418 00a9 3A       		.uleb128 0x3a
 2419 00aa 0B       		.uleb128 0xb
 2420 00ab 3B       		.uleb128 0x3b
 2421 00ac 0B       		.uleb128 0xb
 2422 00ad 49       		.uleb128 0x49
 2423 00ae 13       		.uleb128 0x13
 2424 00af 02       		.uleb128 0x2
 2425 00b0 0A       		.uleb128 0xa
 2426 00b1 00       		.byte	0x0
 2427 00b2 00       		.byte	0x0
 2428 00b3 0E       		.uleb128 0xe
 2429 00b4 34       		.uleb128 0x34
 2430 00b5 00       		.byte	0x0
 2431 00b6 03       		.uleb128 0x3
 2432 00b7 0E       		.uleb128 0xe
 2433 00b8 3A       		.uleb128 0x3a
 2434 00b9 0B       		.uleb128 0xb
 2435 00ba 3B       		.uleb128 0x3b
 2436 00bb 0B       		.uleb128 0xb
 2437 00bc 49       		.uleb128 0x49
 2438 00bd 13       		.uleb128 0x13
 2439 00be 02       		.uleb128 0x2
 2440 00bf 0A       		.uleb128 0xa
 2441 00c0 00       		.byte	0x0
 2442 00c1 00       		.byte	0x0
 2443 00c2 0F       		.uleb128 0xf
 2444 00c3 34       		.uleb128 0x34
 2445 00c4 00       		.byte	0x0
 2446 00c5 03       		.uleb128 0x3
 2447 00c6 08       		.uleb128 0x8
ARM GAS  /cygdrive/c/DOCUME~1/ANDERS~1/LOKALA~1/Temp/ccd2VsKb.s 			page 57


 2448 00c7 3A       		.uleb128 0x3a
 2449 00c8 0B       		.uleb128 0xb
 2450 00c9 3B       		.uleb128 0x3b
 2451 00ca 0B       		.uleb128 0xb
 2452 00cb 49       		.uleb128 0x49
 2453 00cc 13       		.uleb128 0x13
 2454 00cd 02       		.uleb128 0x2
 2455 00ce 0A       		.uleb128 0xa
 2456 00cf 00       		.byte	0x0
 2457 00d0 00       		.byte	0x0
 2458 00d1 10       		.uleb128 0x10
 2459 00d2 35       		.uleb128 0x35
 2460 00d3 00       		.byte	0x0
 2461 00d4 49       		.uleb128 0x49
 2462 00d5 13       		.uleb128 0x13
 2463 00d6 00       		.byte	0x0
 2464 00d7 00       		.byte	0x0
 2465 00d8 11       		.uleb128 0x11
 2466 00d9 2E       		.uleb128 0x2e
 2467 00da 01       		.byte	0x1
 2468 00db 01       		.uleb128 0x1
 2469 00dc 13       		.uleb128 0x13
 2470 00dd 3F       		.uleb128 0x3f
 2471 00de 0C       		.uleb128 0xc
 2472 00df 03       		.uleb128 0x3
 2473 00e0 0E       		.uleb128 0xe
 2474 00e1 3A       		.uleb128 0x3a
 2475 00e2 0B       		.uleb128 0xb
 2476 00e3 3B       		.uleb128 0x3b
 2477 00e4 05       		.uleb128 0x5
 2478 00e5 27       		.uleb128 0x27
 2479 00e6 0C       		.uleb128 0xc
 2480 00e7 11       		.uleb128 0x11
 2481 00e8 01       		.uleb128 0x1
 2482 00e9 12       		.uleb128 0x12
 2483 00ea 01       		.uleb128 0x1
 2484 00eb 40       		.uleb128 0x40
 2485 00ec 0A       		.uleb128 0xa
 2486 00ed 00       		.byte	0x0
 2487 00ee 00       		.byte	0x0
 2488 00ef 12       		.uleb128 0x12
 2489 00f0 34       		.uleb128 0x34
 2490 00f1 00       		.byte	0x0
 2491 00f2 03       		.uleb128 0x3
 2492 00f3 0E       		.uleb128 0xe
 2493 00f4 3A       		.uleb128 0x3a
 2494 00f5 0B       		.uleb128 0xb
 2495 00f6 3B       		.uleb128 0x3b
 2496 00f7 05       		.uleb128 0x5
 2497 00f8 49       		.uleb128 0x49
 2498 00f9 13       		.uleb128 0x13
 2499 00fa 02       		.uleb128 0x2
 2500 00fb 0A       		.uleb128 0xa
 2501 00fc 00       		.byte	0x0
 2502 00fd 00       		.byte	0x0
 2503 00fe 13       		.uleb128 0x13
 2504 00ff 2E       		.uleb128 0x2e
ARM GAS  /cygdrive/c/DOCUME~1/ANDERS~1/LOKALA~1/Temp/ccd2VsKb.s 			page 58


 2505 0100 01       		.byte	0x1
 2506 0101 01       		.uleb128 0x1
 2507 0102 13       		.uleb128 0x13
 2508 0103 3F       		.uleb128 0x3f
 2509 0104 0C       		.uleb128 0xc
 2510 0105 03       		.uleb128 0x3
 2511 0106 0E       		.uleb128 0xe
 2512 0107 3A       		.uleb128 0x3a
 2513 0108 0B       		.uleb128 0xb
 2514 0109 3B       		.uleb128 0x3b
 2515 010a 0B       		.uleb128 0xb
 2516 010b 27       		.uleb128 0x27
 2517 010c 0C       		.uleb128 0xc
 2518 010d 11       		.uleb128 0x11
 2519 010e 01       		.uleb128 0x1
 2520 010f 12       		.uleb128 0x12
 2521 0110 01       		.uleb128 0x1
 2522 0111 40       		.uleb128 0x40
 2523 0112 0A       		.uleb128 0xa
 2524 0113 00       		.byte	0x0
 2525 0114 00       		.byte	0x0
 2526 0115 14       		.uleb128 0x14
 2527 0116 2E       		.uleb128 0x2e
 2528 0117 00       		.byte	0x0
 2529 0118 3F       		.uleb128 0x3f
 2530 0119 0C       		.uleb128 0xc
 2531 011a 03       		.uleb128 0x3
 2532 011b 0E       		.uleb128 0xe
 2533 011c 3A       		.uleb128 0x3a
 2534 011d 0B       		.uleb128 0xb
 2535 011e 3B       		.uleb128 0x3b
 2536 011f 0B       		.uleb128 0xb
 2537 0120 27       		.uleb128 0x27
 2538 0121 0C       		.uleb128 0xc
 2539 0122 11       		.uleb128 0x11
 2540 0123 01       		.uleb128 0x1
 2541 0124 12       		.uleb128 0x12
 2542 0125 01       		.uleb128 0x1
 2543 0126 40       		.uleb128 0x40
 2544 0127 0A       		.uleb128 0xa
 2545 0128 00       		.byte	0x0
 2546 0129 00       		.byte	0x0
 2547 012a 15       		.uleb128 0x15
 2548 012b 05       		.uleb128 0x5
 2549 012c 00       		.byte	0x0
 2550 012d 03       		.uleb128 0x3
 2551 012e 0E       		.uleb128 0xe
 2552 012f 3A       		.uleb128 0x3a
 2553 0130 0B       		.uleb128 0xb
 2554 0131 3B       		.uleb128 0x3b
 2555 0132 05       		.uleb128 0x5
 2556 0133 49       		.uleb128 0x49
 2557 0134 13       		.uleb128 0x13
 2558 0135 02       		.uleb128 0x2
 2559 0136 0A       		.uleb128 0xa
 2560 0137 00       		.byte	0x0
 2561 0138 00       		.byte	0x0
ARM GAS  /cygdrive/c/DOCUME~1/ANDERS~1/LOKALA~1/Temp/ccd2VsKb.s 			page 59


 2562 0139 16       		.uleb128 0x16
 2563 013a 34       		.uleb128 0x34
 2564 013b 00       		.byte	0x0
 2565 013c 03       		.uleb128 0x3
 2566 013d 08       		.uleb128 0x8
 2567 013e 3A       		.uleb128 0x3a
 2568 013f 0B       		.uleb128 0xb
 2569 0140 3B       		.uleb128 0x3b
 2570 0141 05       		.uleb128 0x5
 2571 0142 49       		.uleb128 0x49
 2572 0143 13       		.uleb128 0x13
 2573 0144 02       		.uleb128 0x2
 2574 0145 0A       		.uleb128 0xa
 2575 0146 00       		.byte	0x0
 2576 0147 00       		.byte	0x0
 2577 0148 17       		.uleb128 0x17
 2578 0149 15       		.uleb128 0x15
 2579 014a 01       		.byte	0x1
 2580 014b 01       		.uleb128 0x1
 2581 014c 13       		.uleb128 0x13
 2582 014d 27       		.uleb128 0x27
 2583 014e 0C       		.uleb128 0xc
 2584 014f 00       		.byte	0x0
 2585 0150 00       		.byte	0x0
 2586 0151 18       		.uleb128 0x18
 2587 0152 05       		.uleb128 0x5
 2588 0153 00       		.byte	0x0
 2589 0154 49       		.uleb128 0x49
 2590 0155 13       		.uleb128 0x13
 2591 0156 00       		.byte	0x0
 2592 0157 00       		.byte	0x0
 2593 0158 19       		.uleb128 0x19
 2594 0159 0F       		.uleb128 0xf
 2595 015a 00       		.byte	0x0
 2596 015b 0B       		.uleb128 0xb
 2597 015c 0B       		.uleb128 0xb
 2598 015d 00       		.byte	0x0
 2599 015e 00       		.byte	0x0
 2600 015f 1A       		.uleb128 0x1a
 2601 0160 2E       		.uleb128 0x2e
 2602 0161 00       		.byte	0x0
 2603 0162 3F       		.uleb128 0x3f
 2604 0163 0C       		.uleb128 0xc
 2605 0164 03       		.uleb128 0x3
 2606 0165 0E       		.uleb128 0xe
 2607 0166 3A       		.uleb128 0x3a
 2608 0167 0B       		.uleb128 0xb
 2609 0168 3B       		.uleb128 0x3b
 2610 0169 05       		.uleb128 0x5
 2611 016a 27       		.uleb128 0x27
 2612 016b 0C       		.uleb128 0xc
 2613 016c 11       		.uleb128 0x11
 2614 016d 01       		.uleb128 0x1
 2615 016e 12       		.uleb128 0x12
 2616 016f 01       		.uleb128 0x1
 2617 0170 40       		.uleb128 0x40
 2618 0171 0A       		.uleb128 0xa
ARM GAS  /cygdrive/c/DOCUME~1/ANDERS~1/LOKALA~1/Temp/ccd2VsKb.s 			page 60


 2619 0172 00       		.byte	0x0
 2620 0173 00       		.byte	0x0
 2621 0174 1B       		.uleb128 0x1b
 2622 0175 0A       		.uleb128 0xa
 2623 0176 00       		.byte	0x0
 2624 0177 03       		.uleb128 0x3
 2625 0178 0E       		.uleb128 0xe
 2626 0179 3A       		.uleb128 0x3a
 2627 017a 0B       		.uleb128 0xb
 2628 017b 3B       		.uleb128 0x3b
 2629 017c 05       		.uleb128 0x5
 2630 017d 11       		.uleb128 0x11
 2631 017e 01       		.uleb128 0x1
 2632 017f 00       		.byte	0x0
 2633 0180 00       		.byte	0x0
 2634 0181 1C       		.uleb128 0x1c
 2635 0182 05       		.uleb128 0x5
 2636 0183 00       		.byte	0x0
 2637 0184 03       		.uleb128 0x3
 2638 0185 08       		.uleb128 0x8
 2639 0186 3A       		.uleb128 0x3a
 2640 0187 0B       		.uleb128 0xb
 2641 0188 3B       		.uleb128 0x3b
 2642 0189 05       		.uleb128 0x5
 2643 018a 49       		.uleb128 0x49
 2644 018b 13       		.uleb128 0x13
 2645 018c 02       		.uleb128 0x2
 2646 018d 0A       		.uleb128 0xa
 2647 018e 00       		.byte	0x0
 2648 018f 00       		.byte	0x0
 2649 0190 1D       		.uleb128 0x1d
 2650 0191 2E       		.uleb128 0x2e
 2651 0192 01       		.byte	0x1
 2652 0193 3F       		.uleb128 0x3f
 2653 0194 0C       		.uleb128 0xc
 2654 0195 03       		.uleb128 0x3
 2655 0196 0E       		.uleb128 0xe
 2656 0197 3A       		.uleb128 0x3a
 2657 0198 0B       		.uleb128 0xb
 2658 0199 3B       		.uleb128 0x3b
 2659 019a 05       		.uleb128 0x5
 2660 019b 49       		.uleb128 0x49
 2661 019c 13       		.uleb128 0x13
 2662 019d 3C       		.uleb128 0x3c
 2663 019e 0C       		.uleb128 0xc
 2664 019f 00       		.byte	0x0
 2665 01a0 00       		.byte	0x0
 2666 01a1 1E       		.uleb128 0x1e
 2667 01a2 18       		.uleb128 0x18
 2668 01a3 00       		.byte	0x0
 2669 01a4 00       		.byte	0x0
 2670 01a5 00       		.byte	0x0
 2671 01a6 1F       		.uleb128 0x1f
 2672 01a7 34       		.uleb128 0x34
 2673 01a8 00       		.byte	0x0
 2674 01a9 03       		.uleb128 0x3
 2675 01aa 0E       		.uleb128 0xe
ARM GAS  /cygdrive/c/DOCUME~1/ANDERS~1/LOKALA~1/Temp/ccd2VsKb.s 			page 61


 2676 01ab 3A       		.uleb128 0x3a
 2677 01ac 0B       		.uleb128 0xb
 2678 01ad 3B       		.uleb128 0x3b
 2679 01ae 0B       		.uleb128 0xb
 2680 01af 49       		.uleb128 0x49
 2681 01b0 13       		.uleb128 0x13
 2682 01b1 3F       		.uleb128 0x3f
 2683 01b2 0C       		.uleb128 0xc
 2684 01b3 02       		.uleb128 0x2
 2685 01b4 0A       		.uleb128 0xa
 2686 01b5 00       		.byte	0x0
 2687 01b6 00       		.byte	0x0
 2688 01b7 00       		.byte	0x0
 2689              		.section	.debug_pubnames,"",%progbits
 2690 0000 7B010000 		.4byte	0x17b
 2691 0004 0200     		.2byte	0x2
 2692 0006 00000000 		.4byte	.Ldebug_info0
 2693 000a FE050000 		.4byte	0x5fe
 2694 000e 98010000 		.4byte	0x198
 2695 0012 6F735069 		.ascii	"osPid\000"
 2695      6400
 2696 0018 E1010000 		.4byte	0x1e1
 2697 001c 61646454 		.ascii	"addToTimeList\000"
 2697      6F54696D 
 2697      654C6973 
 2697      7400
 2698 002a 16020000 		.4byte	0x216
 2699 002e 6F73496E 		.ascii	"osInit\000"
 2699      697400
 2700 0035 39020000 		.4byte	0x239
 2701 0039 6F734953 		.ascii	"osISREnter\000"
 2701      52456E74 
 2701      657200
 2702 0044 4C020000 		.4byte	0x24c
 2703 0048 6F734372 		.ascii	"osCreateProcess\000"
 2703      65617465 
 2703      50726F63 
 2703      65737300 
 2704 0058 FB020000 		.4byte	0x2fb
 2705 005c 6F734765 		.ascii	"osGetHighPrioProc\000"
 2705      74486967 
 2705      68507269 
 2705      6F50726F 
 2705      6300
 2706 006e 0F030000 		.4byte	0x30f
 2707 0072 73636865 		.ascii	"schedule\000"
 2707      64756C65 
 2707      00
 2708 007b 43030000 		.4byte	0x343
 2709 007f 6F734953 		.ascii	"osISRExit\000"
 2709      52457869 
 2709      7400
 2710 0089 6B030000 		.4byte	0x36b
 2711 008d 6F735374 		.ascii	"osStart\000"
 2711      61727400 
 2712 0095 91030000 		.4byte	0x391
 2713 0099 726D7646 		.ascii	"rmvFromTimeList\000"
ARM GAS  /cygdrive/c/DOCUME~1/ANDERS~1/LOKALA~1/Temp/ccd2VsKb.s 			page 62


 2713      726F6D54 
 2713      696D654C 
 2713      69737400 
 2714 00a9 D4030000 		.4byte	0x3d4
 2715 00ad 61646454 		.ascii	"addToRdyList\000"
 2715      6F526479 
 2715      4C697374 
 2715      00
 2716 00ba FB030000 		.4byte	0x3fb
 2717 00be 6F735265 		.ascii	"osResume\000"
 2717      73756D65 
 2717      00
 2718 00c7 3F040000 		.4byte	0x43f
 2719 00cb 6F735469 		.ascii	"osTick\000"
 2719      636B00
 2720 00d2 85040000 		.4byte	0x485
 2721 00d6 6F735374 		.ascii	"osStartProcess\000"
 2721      61727450 
 2721      726F6365 
 2721      737300
 2722 00e5 C9040000 		.4byte	0x4c9
 2723 00e9 726D7646 		.ascii	"rmvFromRdyList\000"
 2723      726F6D52 
 2723      64794C69 
 2723      737400
 2724 00f8 DD040000 		.4byte	0x4dd
 2725 00fc 6F735375 		.ascii	"osSuspend\000"
 2725      7370656E 
 2725      6400
 2726 0106 05050000 		.4byte	0x505
 2727 010a 6F734465 		.ascii	"osDeleteProcess\000"
 2727      6C657465 
 2727      50726F63 
 2727      65737300 
 2728 011a 2D050000 		.4byte	0x52d
 2729 011e 6F73536C 		.ascii	"osSleep\000"
 2729      65657000 
 2730 0126 60050000 		.4byte	0x560
 2731 012a 7052756E 		.ascii	"pRunProc\000"
 2731      50726F63 
 2731      00
 2732 0133 72050000 		.4byte	0x572
 2733 0137 704E7874 		.ascii	"pNxtToRun\000"
 2733      546F5275 
 2733      6E00
 2734 0141 84050000 		.4byte	0x584
 2735 0145 6973724E 		.ascii	"isrNesting\000"
 2735      65737469 
 2735      6E6700
 2736 0150 96050000 		.4byte	0x596
 2737 0154 6F734C6F 		.ascii	"osLockNesting\000"
 2737      636B4E65 
 2737      7374696E 
 2737      6700
 2738 0162 B8050000 		.4byte	0x5b8
 2739 0166 70726F63 		.ascii	"processControlBlocks\000"
 2739      65737343 
ARM GAS  /cygdrive/c/DOCUME~1/ANDERS~1/LOKALA~1/Temp/ccd2VsKb.s 			page 63


 2739      6F6E7472 
 2739      6F6C426C 
 2739      6F636B73 
 2740 017b 00000000 		.4byte	0x0
 2741              		.section	.debug_aranges,"",%progbits
 2742 0000 1C000000 		.4byte	0x1c
 2743 0004 0200     		.2byte	0x2
 2744 0006 00000000 		.4byte	.Ldebug_info0
 2745 000a 04       		.byte	0x4
 2746 000b 00       		.byte	0x0
 2747 000c 0000     		.2byte	0x0
 2748 000e 0000     		.2byte	0x0
 2749 0010 00000000 		.4byte	.Ltext0
 2750 0014 F8040000 		.4byte	.Letext0-.Ltext0
 2751 0018 00000000 		.4byte	0x0
 2752 001c 00000000 		.4byte	0x0
 2753              		.section	.debug_str,"MS",%progbits,1
 2754              	.LASF14:
 2755 0000 7072696F 		.ascii	"prio\000"
 2755      00
 2756              	.LASF54:
 2757 0005 7469636B 		.ascii	"ticks\000"
 2757      7300
 2758              	.LASF63:
 2759 000b 474E5520 		.ascii	"GNU C 3.4.3\000"
 2759      4320332E 
 2759      342E3300 
 2760              	.LASF46:
 2761 0017 704D6F76 		.ascii	"pMove\000"
 2761      6500
 2762              	.LASF35:
 2763 001d 73746B53 		.ascii	"stkSize\000"
 2763      697A6500 
 2764              	.LASF41:
 2765 0025 6F734953 		.ascii	"osISRExit\000"
 2765      52457869 
 2765      7400
 2766              	.LASF23:
 2767 002f 70504342 		.ascii	"pPCBs\000"
 2767      7300
 2768              	.LASF36:
 2769 0035 70506964 		.ascii	"pPid\000"
 2769      00
 2770              	.LASF37:
 2771 003a 70506172 		.ascii	"pParam\000"
 2771      616D00
 2772              	.LASF67:
 2773 0041 61707054 		.ascii	"appTick\000"
 2773      69636B00 
 2774              	.LASF47:
 2775 0049 6F735265 		.ascii	"osResume\000"
 2775      73756D65 
 2775      00
 2776              	.LASF55:
 2777 0052 7052756E 		.ascii	"pRunProc\000"
 2777      50726F63 
 2777      00
ARM GAS  /cygdrive/c/DOCUME~1/ANDERS~1/LOKALA~1/Temp/ccd2VsKb.s 			page 64


 2778              	.LASF26:
 2779 005b 6C6F6361 		.ascii	"localSR\000"
 2779      6C535200 
 2780              	.LASF59:
 2781 0063 70726F63 		.ascii	"processControlBlocks\000"
 2781      65737343 
 2781      6F6E7472 
 2781      6F6C426C 
 2781      6F636B73 
 2782              	.LASF44:
 2783 0078 7054696D 		.ascii	"pTimePCB\000"
 2783      65504342 
 2783      00
 2784              	.LASF2:
 2785 0081 73686F72 		.ascii	"short unsigned int\000"
 2785      7420756E 
 2785      7369676E 
 2785      65642069 
 2785      6E7400
 2786              	.LASF39:
 2787 0094 6F734765 		.ascii	"osGetHighPrioProc\000"
 2787      74486967 
 2787      68507269 
 2787      6F50726F 
 2787      6300
 2788              	.LASF1:
 2789 00a6 756E7369 		.ascii	"unsigned char\000"
 2789      676E6564 
 2789      20636861 
 2789      7200
 2790              	.LASF19:
 2791 00b4 744F5350 		.ascii	"tOSPCB\000"
 2791      434200
 2792              	.LASF25:
 2793 00bb 74507269 		.ascii	"tPrioQueue\000"
 2793      6F517565 
 2793      756500
 2794              	.LASF45:
 2795 00c6 61646454 		.ascii	"addToRdyList\000"
 2795      6F526479 
 2795      4C697374 
 2795      00
 2796              	.LASF24:
 2797 00d3 6C6F6E67 		.ascii	"long unsigned int\000"
 2797      20756E73 
 2797      69676E65 
 2797      6420696E 
 2797      7400
 2798              	.LASF50:
 2799 00e5 726D7646 		.ascii	"rmvFromRdyList\000"
 2799      726F6D52 
 2799      64794C69 
 2799      737400
 2800              	.LASF10:
 2801 00f4 70507265 		.ascii	"pPrevPrioQueueReady\000"
 2801      76507269 
 2801      6F517565 
ARM GAS  /cygdrive/c/DOCUME~1/ANDERS~1/LOKALA~1/Temp/ccd2VsKb.s 			page 65


 2801      75655265 
 2801      61647900 
 2802              	.LASF22:
 2803 0108 70507269 		.ascii	"pPrioList\000"
 2803      6F4C6973 
 2803      7400
 2804              	.LASF66:
 2805 0112 77616B65 		.ascii	"wakefromidle\000"
 2805      66726F6D 
 2805      69646C65 
 2805      00
 2806              	.LASF20:
 2807 011f 5F744F53 		.ascii	"_tOSPCB__\000"
 2807      5043425F 
 2807      5F00
 2808              	.LASF27:
 2809 0129 6F735069 		.ascii	"osPid\000"
 2809      6400
 2810              	.LASF12:
 2811 012f 70507265 		.ascii	"pPrevPrioQueueEvent\000"
 2811      76507269 
 2811      6F517565 
 2811      75654576 
 2811      656E7400 
 2812              	.LASF9:
 2813 0143 704E6578 		.ascii	"pNextPrioQueueReady\000"
 2813      74507269 
 2813      6F517565 
 2813      75655265 
 2813      61647900 
 2814              	.LASF64:
 2815 0157 636F7265 		.ascii	"core/kernel.c\000"
 2815      2F6B6572 
 2815      6E656C2E 
 2815      6300
 2816              	.LASF8:
 2817 0165 7053746B 		.ascii	"pStk\000"
 2817      00
 2818              	.LASF15:
 2819 016a 666C6167 		.ascii	"flag\000"
 2819      00
 2820              	.LASF33:
 2821 016f 70457272 		.ascii	"pError\000"
 2821      6F7200
 2822              	.LASF11:
 2823 0176 704E6578 		.ascii	"pNextPrioQueueEvent\000"
 2823      74507269 
 2823      6F517565 
 2823      75654576 
 2823      656E7400 
 2824              	.LASF32:
 2825 018a 6F734372 		.ascii	"osCreateProcess\000"
 2825      65617465 
 2825      50726F63 
 2825      65737300 
 2826              	.LASF4:
 2827 019a 756E7369 		.ascii	"unsigned int\000"
ARM GAS  /cygdrive/c/DOCUME~1/ANDERS~1/LOKALA~1/Temp/ccd2VsKb.s 			page 66


 2827      676E6564 
 2827      20696E74 
 2827      00
 2828              	.LASF18:
 2829 01a7 73746163 		.ascii	"stackSize\000"
 2829      6B53697A 
 2829      6500
 2830              	.LASF51:
 2831 01b1 6F735375 		.ascii	"osSuspend\000"
 2831      7370656E 
 2831      6400
 2832              	.LASF31:
 2833 01bb 6F73496E 		.ascii	"osInit\000"
 2833      697400
 2834              	.LASF40:
 2835 01c2 73636865 		.ascii	"schedule\000"
 2835      64756C65 
 2835      00
 2836              	.LASF56:
 2837 01cb 704E7874 		.ascii	"pNxtToRun\000"
 2837      546F5275 
 2837      6E00
 2838              	.LASF38:
 2839 01d5 6F734953 		.ascii	"osISREnter\000"
 2839      52456E74 
 2839      657200
 2840              	.LASF28:
 2841 01e0 61646454 		.ascii	"addToTimeList\000"
 2841      6F54696D 
 2841      654C6973 
 2841      7400
 2842              	.LASF53:
 2843 01ee 6F73536C 		.ascii	"osSleep\000"
 2843      65657000 
 2844              	.LASF57:
 2845 01f6 6973724E 		.ascii	"isrNesting\000"
 2845      65737469 
 2845      6E6700
 2846              	.LASF62:
 2847 0201 6F735275 		.ascii	"osRunning\000"
 2847      6E6E696E 
 2847      6700
 2848              	.LASF21:
 2849 020b 5F745072 		.ascii	"_tPrioQueue_\000"
 2849      696F5175 
 2849      6575655F 
 2849      00
 2850              	.LASF0:
 2851 0218 74553136 		.ascii	"tU16\000"
 2851      00
 2852              	.LASF65:
 2853 021d 2F637967 		.ascii	"/cygdrive/c/Documents and Settings/Anders Rosvall/M"
 2853      64726976 
 2853      652F632F 
 2853      446F6375 
 2853      6D656E74 
 2854 0250 696E6120 		.ascii	"ina dokument/Embedded Artists/Products/LPC2148 Educ"
ARM GAS  /cygdrive/c/DOCUME~1/ANDERS~1/LOKALA~1/Temp/ccd2VsKb.s 			page 67


 2854      646F6B75 
 2854      6D656E74 
 2854      2F456D62 
 2854      65646465 
 2855 0283 6174696F 		.ascii	"ation Board/Test program/v1.2/pre_emptive_os\000"
 2855      6E20426F 
 2855      6172642F 
 2855      54657374 
 2855      2070726F 
 2856              	.LASF3:
 2857 02b0 74553332 		.ascii	"tU32\000"
 2857      00
 2858              	.LASF34:
 2859 02b5 7050726F 		.ascii	"pProc\000"
 2859      6300
 2860              	.LASF52:
 2861 02bb 6F734465 		.ascii	"osDeleteProcess\000"
 2861      6C657465 
 2861      50726F63 
 2861      65737300 
 2862              	.LASF17:
 2863 02cb 7053746B 		.ascii	"pStkOrg\000"
 2863      4F726700 
 2864              	.LASF43:
 2865 02d3 726D7646 		.ascii	"rmvFromTimeList\000"
 2865      726F6D54 
 2865      696D654C 
 2865      69737400 
 2866              	.LASF6:
 2867 02e3 73686F72 		.ascii	"short int\000"
 2867      7420696E 
 2867      7400
 2868              	.LASF29:
 2869 02ed 70504342 		.ascii	"pPCB\000"
 2869      00
 2870              	.LASF49:
 2871 02f2 6F735374 		.ascii	"osStartProcess\000"
 2871      61727450 
 2871      726F6365 
 2871      737300
 2872              	.LASF58:
 2873 0301 6F734C6F 		.ascii	"osLockNesting\000"
 2873      636B4E65 
 2873      7374696E 
 2873      6700
 2874              	.LASF13:
 2875 030f 704E6578 		.ascii	"pNextTimeQueue\000"
 2875      7454696D 
 2875      65517565 
 2875      756500
 2876              	.LASF5:
 2877 031e 7369676E 		.ascii	"signed char\000"
 2877      65642063 
 2877      68617200 
 2878              	.LASF30:
 2879 032a 70507265 		.ascii	"pPrev\000"
 2879      7600
ARM GAS  /cygdrive/c/DOCUME~1/ANDERS~1/LOKALA~1/Temp/ccd2VsKb.s 			page 68


 2880              	.LASF16:
 2881 0330 736C6565 		.ascii	"sleep\000"
 2881      7000
 2882              	.LASF42:
 2883 0336 6F735374 		.ascii	"osStart\000"
 2883      61727400 
 2884              	.LASF7:
 2885 033e 74426F6F 		.ascii	"tBool\000"
 2885      6C00
 2886              	.LASF60:
 2887 0344 72647951 		.ascii	"rdyQueue\000"
 2887      75657565 
 2887      00
 2888              	.LASF61:
 2889 034d 7054696D 		.ascii	"pTimeList\000"
 2889      654C6973 
 2889      7400
 2890              	.LASF48:
 2891 0357 6F735469 		.ascii	"osTick\000"
 2891      636B00
 2892              		.ident	"GCC: (GNU) 3.4.3"
ARM GAS  /cygdrive/c/DOCUME~1/ANDERS~1/LOKALA~1/Temp/ccd2VsKb.s 			page 69


DEFINED SYMBOLS
                            *ABS*:00000000 kernel.c
/cygdrive/c/DOCUME~1/ANDERS~1/LOKALA~1/Temp/ccd2VsKb.s:1      .text:00000000 $t
/cygdrive/c/DOCUME~1/ANDERS~1/LOKALA~1/Temp/ccd2VsKb.s:15     .bss:00000000 osLockNesting
                             .bss:00000000 $d
/cygdrive/c/DOCUME~1/ANDERS~1/LOKALA~1/Temp/ccd2VsKb.s:20     .bss:00000001 isrNesting
/cygdrive/c/DOCUME~1/ANDERS~1/LOKALA~1/Temp/ccd2VsKb.s:26     .bss:00000004 pNxtToRun
/cygdrive/c/DOCUME~1/ANDERS~1/LOKALA~1/Temp/ccd2VsKb.s:32     .bss:00000008 pRunProc
/cygdrive/c/DOCUME~1/ANDERS~1/LOKALA~1/Temp/ccd2VsKb.s:35     .bss:0000000c pTimeList
/cygdrive/c/DOCUME~1/ANDERS~1/LOKALA~1/Temp/ccd2VsKb.s:37     .bss:00000010 osRunning
/cygdrive/c/DOCUME~1/ANDERS~1/LOKALA~1/Temp/ccd2VsKb.s:45     .text:00000000 osPid
/cygdrive/c/DOCUME~1/ANDERS~1/LOKALA~1/Temp/ccd2VsKb.s:105    .text:00000044 $d
/cygdrive/c/DOCUME~1/ANDERS~1/LOKALA~1/Temp/ccd2VsKb.s:114    .text:0000004c addToTimeList
/cygdrive/c/DOCUME~1/ANDERS~1/LOKALA~1/Temp/ccd2VsKb.s:111    .text:0000004c $t
/cygdrive/c/DOCUME~1/ANDERS~1/LOKALA~1/Temp/ccd2VsKb.s:193    .text:000000a8 $d
/cygdrive/c/DOCUME~1/ANDERS~1/LOKALA~1/Temp/ccd2VsKb.s:202    .text:000000b0 osInit
/cygdrive/c/DOCUME~1/ANDERS~1/LOKALA~1/Temp/ccd2VsKb.s:199    .text:000000b0 $t
/cygdrive/c/DOCUME~1/ANDERS~1/LOKALA~1/Temp/ccd2VsKb.s:232    .text:000000d4 $d
                            *COM*:000000f0 processControlBlocks
/cygdrive/c/DOCUME~1/ANDERS~1/LOKALA~1/Temp/ccd2VsKb.s:1118   .bss:00000014 rdyQueue
/cygdrive/c/DOCUME~1/ANDERS~1/LOKALA~1/Temp/ccd2VsKb.s:241    .text:000000dc osISREnter
/cygdrive/c/DOCUME~1/ANDERS~1/LOKALA~1/Temp/ccd2VsKb.s:238    .text:000000dc $t
/cygdrive/c/DOCUME~1/ANDERS~1/LOKALA~1/Temp/ccd2VsKb.s:267    .text:000000f8 $d
/cygdrive/c/DOCUME~1/ANDERS~1/LOKALA~1/Temp/ccd2VsKb.s:276    .text:00000100 osCreateProcess
/cygdrive/c/DOCUME~1/ANDERS~1/LOKALA~1/Temp/ccd2VsKb.s:273    .text:00000100 $t
/cygdrive/c/DOCUME~1/ANDERS~1/LOKALA~1/Temp/ccd2VsKb.s:400    .text:00000198 $d
/cygdrive/c/DOCUME~1/ANDERS~1/LOKALA~1/Temp/ccd2VsKb.s:408    .text:0000019c osGetHighPrioProc
/cygdrive/c/DOCUME~1/ANDERS~1/LOKALA~1/Temp/ccd2VsKb.s:405    .text:0000019c $t
/cygdrive/c/DOCUME~1/ANDERS~1/LOKALA~1/Temp/ccd2VsKb.s:425    .text:000001b0 $d
/cygdrive/c/DOCUME~1/ANDERS~1/LOKALA~1/Temp/ccd2VsKb.s:434    .text:000001b8 schedule
/cygdrive/c/DOCUME~1/ANDERS~1/LOKALA~1/Temp/ccd2VsKb.s:431    .text:000001b8 $t
/cygdrive/c/DOCUME~1/ANDERS~1/LOKALA~1/Temp/ccd2VsKb.s:504    .text:00000218 $d
/cygdrive/c/DOCUME~1/ANDERS~1/LOKALA~1/Temp/ccd2VsKb.s:514    .text:00000224 osISRExit
/cygdrive/c/DOCUME~1/ANDERS~1/LOKALA~1/Temp/ccd2VsKb.s:511    .text:00000224 $t
/cygdrive/c/DOCUME~1/ANDERS~1/LOKALA~1/Temp/ccd2VsKb.s:578    .text:00000278 $d
/cygdrive/c/DOCUME~1/ANDERS~1/LOKALA~1/Temp/ccd2VsKb.s:590    .text:0000028c osStart
/cygdrive/c/DOCUME~1/ANDERS~1/LOKALA~1/Temp/ccd2VsKb.s:587    .text:0000028c $t
/cygdrive/c/DOCUME~1/ANDERS~1/LOKALA~1/Temp/ccd2VsKb.s:622    .text:000002b4 $d
/cygdrive/c/DOCUME~1/ANDERS~1/LOKALA~1/Temp/ccd2VsKb.s:630    .text:000002b8 rmvFromTimeList
/cygdrive/c/DOCUME~1/ANDERS~1/LOKALA~1/Temp/ccd2VsKb.s:627    .text:000002b8 $t
/cygdrive/c/DOCUME~1/ANDERS~1/LOKALA~1/Temp/ccd2VsKb.s:688    .text:000002f8 $d
/cygdrive/c/DOCUME~1/ANDERS~1/LOKALA~1/Temp/ccd2VsKb.s:696    .text:000002fc addToRdyList
/cygdrive/c/DOCUME~1/ANDERS~1/LOKALA~1/Temp/ccd2VsKb.s:693    .text:000002fc $t
/cygdrive/c/DOCUME~1/ANDERS~1/LOKALA~1/Temp/ccd2VsKb.s:713    .text:0000030c $d
/cygdrive/c/DOCUME~1/ANDERS~1/LOKALA~1/Temp/ccd2VsKb.s:721    .text:00000310 osResume
/cygdrive/c/DOCUME~1/ANDERS~1/LOKALA~1/Temp/ccd2VsKb.s:718    .text:00000310 $t
/cygdrive/c/DOCUME~1/ANDERS~1/LOKALA~1/Temp/ccd2VsKb.s:796    .text:00000374 $d
/cygdrive/c/DOCUME~1/ANDERS~1/LOKALA~1/Temp/ccd2VsKb.s:805    .text:0000037c osTick
/cygdrive/c/DOCUME~1/ANDERS~1/LOKALA~1/Temp/ccd2VsKb.s:802    .text:0000037c $t
/cygdrive/c/DOCUME~1/ANDERS~1/LOKALA~1/Temp/ccd2VsKb.s:869    .text:000003d4 $d
/cygdrive/c/DOCUME~1/ANDERS~1/LOKALA~1/Temp/ccd2VsKb.s:877    .text:000003d8 osStartProcess
/cygdrive/c/DOCUME~1/ANDERS~1/LOKALA~1/Temp/ccd2VsKb.s:874    .text:000003d8 $t
/cygdrive/c/DOCUME~1/ANDERS~1/LOKALA~1/Temp/ccd2VsKb.s:953    .text:00000438 $d
/cygdrive/c/DOCUME~1/ANDERS~1/LOKALA~1/Temp/ccd2VsKb.s:962    .text:00000440 rmvFromRdyList
/cygdrive/c/DOCUME~1/ANDERS~1/LOKALA~1/Temp/ccd2VsKb.s:959    .text:00000440 $t
/cygdrive/c/DOCUME~1/ANDERS~1/LOKALA~1/Temp/ccd2VsKb.s:979    .text:00000454 $d
/cygdrive/c/DOCUME~1/ANDERS~1/LOKALA~1/Temp/ccd2VsKb.s:988    .text:0000045c osSuspend
ARM GAS  /cygdrive/c/DOCUME~1/ANDERS~1/LOKALA~1/Temp/ccd2VsKb.s 			page 70


/cygdrive/c/DOCUME~1/ANDERS~1/LOKALA~1/Temp/ccd2VsKb.s:985    .text:0000045c $t
/cygdrive/c/DOCUME~1/ANDERS~1/LOKALA~1/Temp/ccd2VsKb.s:1023   .text:0000048c $d
/cygdrive/c/DOCUME~1/ANDERS~1/LOKALA~1/Temp/ccd2VsKb.s:1031   .text:00000490 osDeleteProcess
/cygdrive/c/DOCUME~1/ANDERS~1/LOKALA~1/Temp/ccd2VsKb.s:1028   .text:00000490 $t
/cygdrive/c/DOCUME~1/ANDERS~1/LOKALA~1/Temp/ccd2VsKb.s:1064   .text:000004bc $d
/cygdrive/c/DOCUME~1/ANDERS~1/LOKALA~1/Temp/ccd2VsKb.s:1072   .text:000004c0 osSleep
/cygdrive/c/DOCUME~1/ANDERS~1/LOKALA~1/Temp/ccd2VsKb.s:1069   .text:000004c0 $t
/cygdrive/c/DOCUME~1/ANDERS~1/LOKALA~1/Temp/ccd2VsKb.s:1112   .text:000004f4 $d

UNDEFINED SYMBOLS
halDisableInterrupts_oshal
halRestoreInterrupts_oshal
initPrioQueue
createStackPattern
stkFrameInit_oshal
getHighPrioQueue
ctxSwitch_oshal
ctxSwitchIsr_oshal
initTimer_oshal
startHighProc_oshal
addToPrioQueue
timerTick
appTick
rmvFromPrioQueue
