ARM GAS  /cygdrive/c/DOCUME~1/ANDERS~1/LOKALA~1/Temp/ccIbXYyo.s 			page 1


   1              		.code	16
   2              		.file	"prioqueue.c"
   3              		.section	.debug_abbrev,"",%progbits
   4              	.Ldebug_abbrev0:
   5              		.section	.debug_info,"",%progbits
   6              	.Ldebug_info0:
   7              		.section	.debug_line,"",%progbits
   8              	.Ldebug_line0:
   9 0000 B7000000 		.text
   9      02005500 
   9      00000201 
   9      FB0E0A00 
   9      01010101 
  10              	.Ltext0:
  11              		.align	2
  12              		.global	initPrioQueue
  13              		.code 16
  14              		.thumb_func
  15              		.type	initPrioQueue, %function
  16              	initPrioQueue:
  17              	.LFB2:
  18              		.file 1 "core/prioqueue.c"
   1:core/prioqueue.c **** /******************************************************************************
   2:core/prioqueue.c ****  *
   3:core/prioqueue.c ****  * Copyright:
   4:core/prioqueue.c ****  *    (C) 2000 - 2005 Embedded Artists AB
   5:core/prioqueue.c ****  *
   6:core/prioqueue.c ****  * Description:
   7:core/prioqueue.c ****  *
   8:core/prioqueue.c ****  * ESIC:
   9:core/prioqueue.c ****  *    pre_emptive_os
  10:core/prioqueue.c ****  *
  11:core/prioqueue.c ****  * Version:
  12:core/prioqueue.c ****  *    1.4.0
  13:core/prioqueue.c ****  *
  14:core/prioqueue.c ****  * Generate date:
  15:core/prioqueue.c ****  *    2005-03-15 at 20:27:15
  16:core/prioqueue.c ****  *
  17:core/prioqueue.c ****  * NOTE:
  18:core/prioqueue.c ****  *    DO NOT EDIT THIS FILE. IT IS AUTO GENERATED.
  19:core/prioqueue.c ****  *    CHANGES TO THIS FILE WILL BE LOST IF THE FILE IS RE-GENERATED
  20:core/prioqueue.c ****  *
  21:core/prioqueue.c ****  * Signature:
  22:core/prioqueue.c ****  *   7072655F656D70746976655F6F73,312E342E302E30,020235
  23:core/prioqueue.c ****  *   ,35,10104021013134373435363030,07323838,3732,01013
  24:core/prioqueue.c ****  *   830,0101013138303030303030,3135,33,3135,0232323530
  25:core/prioqueue.c ****  *   ,01020130,0231343734353539,3238313831,020101100302
  26:core/prioqueue.c ****  *   103030310010133,0163130,3230,3330,3430,3530,3630,3
  27:core/prioqueue.c ****  *   730,3830,3930,313030,313130,313230,313330,313430,3
  28:core/prioqueue.c ****  *   13530,313630,,35,35,35,35,35,35,35,35,35,35,35,35,
  29:core/prioqueue.c ****  *   35,35,35,35,,,,1001001100011000000000]484152445741
  30:core/prioqueue.c ****  *   5245,4C5043323130365F32,545538,756E7369676E6564206
  31:core/prioqueue.c ****  *   3686172,414C49474E4D454E54,34,54424F4F4C,756E73696
  32:core/prioqueue.c ****  *   76E65642063686172,54553332,756E7369676E656420696E7
  33:core/prioqueue.c ****  *   4,544D505F46494C4553,2A2E656C663B2A2E6C73743B2A2E6
  34:core/prioqueue.c ****  *   D61703B2A2E6F3B2A2E6F626A3B2A2E64,454E4449414E,4C4
  35:core/prioqueue.c ****  *   954544C45,54533332,7369676E656420696E74,545338,736
ARM GAS  /cygdrive/c/DOCUME~1/ANDERS~1/LOKALA~1/Temp/ccIbXYyo.s 			page 2


  36:core/prioqueue.c ****  *   9676E65642063686172,54553136,756E7369676E656420736
  37:core/prioqueue.c ****  *   86F7274,54533136,7369676E65642073686F7274,44455343
  38:core/prioqueue.c ****  *   52495054494F4E,,44454255475F4C4556454C,30,434F4445
  39:core/prioqueue.c ****  *   5F524F4F54,,47454E5F52554C4553,,4C494E455F5445524D
  40:core/prioqueue.c ****  *   ,43524C46,4252414345,,43524541544F52,416E646572732
  41:core/prioqueue.c ****  *   0526F7376616C6C,4352454154494F4E5F44415445,3230303
  42:core/prioqueue.c ****  *   52D30332D31352032303A31373A3432,524F4F54,433A2F446
  43:core/prioqueue.c ****  *   F63756D656E747320616E642053657474696E67732F416E646
  44:core/prioqueue.c ****  *   5727320526F7376616C6C2F4D696E6120646F6B756D656E742
  45:core/prioqueue.c ****  *   F456D62656464656420417274697374732F50726F647563747
  46:core/prioqueue.c ****  *   32F4C50433231303620525332333220517569636B537461727
  47:core/prioqueue.c ****  *   420426F6172642F72746F732F]505245464958,,4445425547
  48:core/prioqueue.c ****  *   5F4C4556454C,30,555345525F434F4D4D454E54,]64656661
  49:core/prioqueue.c ****  *   756C74,
  50:core/prioqueue.c ****  *
  51:core/prioqueue.c ****  * Checksum:
  52:core/prioqueue.c ****  *    437586
  53:core/prioqueue.c ****  *
  54:core/prioqueue.c ****  *****************************************************************************/
  55:core/prioqueue.c **** 
  56:core/prioqueue.c **** 
  57:core/prioqueue.c **** /******************************************************************************
  58:core/prioqueue.c ****  * Includes
  59:core/prioqueue.c ****  *****************************************************************************/
  60:core/prioqueue.c **** 
  61:core/prioqueue.c **** #include "kernel.h"
  62:core/prioqueue.c **** #include "prioqueue.h"
  63:core/prioqueue.c **** 
  64:core/prioqueue.c **** /******************************************************************************
  65:core/prioqueue.c ****  * Public variables
  66:core/prioqueue.c ****  *****************************************************************************/
  67:core/prioqueue.c **** 
  68:core/prioqueue.c **** /******************************************************************************
  69:core/prioqueue.c ****  * Local variables
  70:core/prioqueue.c ****  *****************************************************************************/
  71:core/prioqueue.c **** 
  72:core/prioqueue.c **** 
  73:core/prioqueue.c **** /******************************************************************************
  74:core/prioqueue.c ****  * Local functions
  75:core/prioqueue.c ****  *****************************************************************************/
  76:core/prioqueue.c **** 
  77:core/prioqueue.c **** /******************************************************************************
  78:core/prioqueue.c ****  * Implementation of public functions
  79:core/prioqueue.c ****  *****************************************************************************/
  80:core/prioqueue.c **** 
  81:core/prioqueue.c **** 
  82:core/prioqueue.c **** /*****************************************************************************
  83:core/prioqueue.c ****  *
  84:core/prioqueue.c ****  * Description:
  85:core/prioqueue.c ****  *    Initializes a priority queue. This function must be called before any 
  86:core/prioqueue.c ****  *    other operation on the queue is performed. A priority queue is a process 
  87:core/prioqueue.c ****  *    queue sorted by priority. The process with highest priority is first in 
  88:core/prioqueue.c ****  *    the queue. 
  89:core/prioqueue.c ****  *
  90:core/prioqueue.c ****  * Params:
  91:core/prioqueue.c ****  *    [in] pPrioQueue - A pointer to an allocated priority queue structure. 
  92:core/prioqueue.c ****  *    [in] pPCBs      - A pointer to the array of process control blocks 
ARM GAS  /cygdrive/c/DOCUME~1/ANDERS~1/LOKALA~1/Temp/ccIbXYyo.s 			page 3


  93:core/prioqueue.c ****  *                      allocated to the operating system. 
  94:core/prioqueue.c ****  *
  95:core/prioqueue.c ****  ****************************************************************************/
  96:core/prioqueue.c **** void
  97:core/prioqueue.c **** initPrioQueue(tPrioQueue* pPrioQueue,
  98:core/prioqueue.c ****               tOSPCB*     pPCBs)
  99:core/prioqueue.c **** {
  19              		.loc 1 99 0
  20 0000 10B5     		push	{r4, lr}
  21              	.LCFI0:
  22              		.loc 1 99 0
  23 0002 0C1C     		mov	r4, r1
 100:core/prioqueue.c ****   tU8 i;
 101:core/prioqueue.c ****   for(i=0; i<NUM_PRIO; i++)
  24              		.loc 1 101 0
  25 0004 0021     		mov	r1, #0
  26              	.L5:
 102:core/prioqueue.c ****   {
 103:core/prioqueue.c ****     pPrioQueue->pPrioList[i] = NULL;
  27              		.loc 1 103 0
  28 0006 8A00     		lsl	r2, r1, #2
  29 0008 0023     		mov	r3, #0
  30 000a 1350     		str	r3, [r2, r0]
  31              		.loc 1 101 0
  32 000c 4B1C     		add	r3, r1, #1
  33 000e 1B06     		lsl	r3, r3, #24
  34 0010 190E     		lsr	r1, r3, #24
  35 0012 0429     		cmp	r1, #4
  36 0014 F7D9     		bls	.L5
 104:core/prioqueue.c ****   }
 105:core/prioqueue.c ****   pPrioQueue->pPCBs = pPCBs;
  37              		.loc 1 105 0
  38 0016 4461     		str	r4, [r0, #20]
  39              		@ sp needed for prologue
  40 0018 10BC     		pop	{r4}
  41 001a 01BC     		pop	{r0}
  42 001c 0047     		bx	r0
  43              	.LFE2:
  44              		.size	initPrioQueue, .-initPrioQueue
  45 001e 0000     		.align	2
  46              		.global	addToPrioQueue
  47              		.code 16
  48              		.thumb_func
  49              		.type	addToPrioQueue, %function
  50              	addToPrioQueue:
  51              	.LFB3:
 106:core/prioqueue.c **** }
 107:core/prioqueue.c **** 
 108:core/prioqueue.c **** 
 109:core/prioqueue.c **** /*****************************************************************************
 110:core/prioqueue.c ****  *
 111:core/prioqueue.c ****  * Description:
 112:core/prioqueue.c ****  *    This function adds a process to the priority queue. 
 113:core/prioqueue.c ****  *
 114:core/prioqueue.c ****  * Params:
 115:core/prioqueue.c ****  *    [in] pPrioQueue - A pointer to an initialized priority queue 
 116:core/prioqueue.c ****  *    [in] pPCB       - A pointer to the process control block of the process 
ARM GAS  /cygdrive/c/DOCUME~1/ANDERS~1/LOKALA~1/Temp/ccIbXYyo.s 			page 4


 117:core/prioqueue.c ****  *                      to be added. 
 118:core/prioqueue.c ****  *    [in] queueType  - Specifies if operation applies for the ready or event 
 119:core/prioqueue.c ****  *                      queue. 
 120:core/prioqueue.c ****  *
 121:core/prioqueue.c ****  ****************************************************************************/
 122:core/prioqueue.c **** void
 123:core/prioqueue.c **** addToPrioQueue(tPrioQueue* pPrioQueue,
 124:core/prioqueue.c ****                tOSPCB*     pPCB,
 125:core/prioqueue.c ****                tU8         queueType)
 126:core/prioqueue.c **** {
  52              		.loc 1 126 0
  53 0020 00B5     		push	{lr}
  54              	.LCFI1:
 127:core/prioqueue.c ****   tOSPCB *pFirst; 
 128:core/prioqueue.c **** 
 129:core/prioqueue.c ****   pFirst = pPrioQueue->pPrioList[pPCB->prio];
  55              		.loc 1 129 0
  56 0022 4B7E     		ldrb	r3, [r1, #25]
  57 0024 9B00     		lsl	r3, r3, #2
  58 0026 1B18     		add	r3, r3, r0
  59 0028 1868     		ldr	r0, [r3]
  60              		.loc 1 126 0
  61 002a 1206     		lsl	r2, r2, #24
  62 002c 120E     		lsr	r2, r2, #24
 130:core/prioqueue.c **** 
 131:core/prioqueue.c ****   if(pFirst != NULL)
  63              		.loc 1 131 0
  64 002e 0028     		cmp	r0, #0
  65 0030 0FD0     		beq	.L9
 132:core/prioqueue.c ****   {
 133:core/prioqueue.c ****     if (queueType == READY_QUEUE)
  66              		.loc 1 133 0
  67 0032 002A     		cmp	r2, #0
  68 0034 06D1     		bne	.L10
 134:core/prioqueue.c ****     {
 135:core/prioqueue.c ****       pPCB->pNextPrioQueueReady = pFirst;
 136:core/prioqueue.c ****       pPCB->pPrevPrioQueueReady = pFirst->pPrevPrioQueueReady;    
  69              		.loc 1 136 0
  70 0036 8368     		ldr	r3, [r0, #8]
  71 0038 8B60     		str	r3, [r1, #8]
 137:core/prioqueue.c ****       pFirst->pPrevPrioQueueReady->pNextPrioQueueReady = pPCB;
  72              		.loc 1 137 0
  73 003a 8368     		ldr	r3, [r0, #8]
  74              		.loc 1 135 0
  75 003c 4860     		str	r0, [r1, #4]
 138:core/prioqueue.c ****       pFirst->pPrevPrioQueueReady = pPCB;
  76              		.loc 1 138 0
  77 003e 8160     		str	r1, [r0, #8]
  78              		.loc 1 137 0
  79 0040 5960     		str	r1, [r3, #4]
  80              		.loc 1 138 0
  81 0042 0EE0     		b	.L8
  82              	.L10:
 139:core/prioqueue.c ****     }
 140:core/prioqueue.c ****     else
 141:core/prioqueue.c ****     {
 142:core/prioqueue.c ****       pPCB->pNextPrioQueueEvent = pFirst;
ARM GAS  /cygdrive/c/DOCUME~1/ANDERS~1/LOKALA~1/Temp/ccIbXYyo.s 			page 5


 143:core/prioqueue.c ****       pPCB->pPrevPrioQueueEvent = pFirst->pPrevPrioQueueEvent;
  83              		.loc 1 143 0
  84 0044 0369     		ldr	r3, [r0, #16]
  85 0046 0B61     		str	r3, [r1, #16]
 144:core/prioqueue.c ****       pFirst->pPrevPrioQueueEvent->pNextPrioQueueEvent = pPCB;
  86              		.loc 1 144 0
  87 0048 0369     		ldr	r3, [r0, #16]
  88              		.loc 1 142 0
  89 004a C860     		str	r0, [r1, #12]
 145:core/prioqueue.c ****       pFirst->pPrevPrioQueueEvent = pPCB;
  90              		.loc 1 145 0
  91 004c 0161     		str	r1, [r0, #16]
  92              		.loc 1 144 0
  93 004e D960     		str	r1, [r3, #12]
  94              		.loc 1 145 0
  95 0050 07E0     		b	.L8
  96              	.L9:
 146:core/prioqueue.c ****     }
 147:core/prioqueue.c ****   }
 148:core/prioqueue.c ****   else
 149:core/prioqueue.c ****   {
 150:core/prioqueue.c ****     pPrioQueue->pPrioList[pPCB->prio] = pPCB; 
  97              		.loc 1 150 0
  98 0052 1960     		str	r1, [r3]
 151:core/prioqueue.c ****     if (queueType == READY_QUEUE)
  99              		.loc 1 151 0
 100 0054 002A     		cmp	r2, #0
 101 0056 02D1     		bne	.L13
 152:core/prioqueue.c ****     {
 153:core/prioqueue.c ****       pPCB->pNextPrioQueueReady = pPCB;
 102              		.loc 1 153 0
 103 0058 4960     		str	r1, [r1, #4]
 154:core/prioqueue.c ****       pPCB->pPrevPrioQueueReady = pPCB;
 104              		.loc 1 154 0
 105 005a 8960     		str	r1, [r1, #8]
 106 005c 01E0     		b	.L8
 107              	.L13:
 155:core/prioqueue.c ****     }
 156:core/prioqueue.c ****     else
 157:core/prioqueue.c ****     {
 158:core/prioqueue.c ****       pPCB->pNextPrioQueueEvent = pPCB;
 108              		.loc 1 158 0
 109 005e C960     		str	r1, [r1, #12]
 159:core/prioqueue.c ****       pPCB->pPrevPrioQueueEvent = pPCB;
 110              		.loc 1 159 0
 111 0060 0961     		str	r1, [r1, #16]
 112              	.L8:
 160:core/prioqueue.c ****     }
 161:core/prioqueue.c ****   }  
 162:core/prioqueue.c **** }
 113              		.loc 1 162 0
 114              		@ sp needed for prologue
 115 0062 01BC     		pop	{r0}
 116 0064 0047     		bx	r0
 117              	.LFE3:
 118              		.size	addToPrioQueue, .-addToPrioQueue
 119 0066 0000     		.align	2
ARM GAS  /cygdrive/c/DOCUME~1/ANDERS~1/LOKALA~1/Temp/ccIbXYyo.s 			page 6


 120              		.global	rmvFromPrioQueue
 121              		.code 16
 122              		.thumb_func
 123              		.type	rmvFromPrioQueue, %function
 124              	rmvFromPrioQueue:
 125              	.LFB4:
 163:core/prioqueue.c **** 
 164:core/prioqueue.c **** 
 165:core/prioqueue.c **** /*****************************************************************************
 166:core/prioqueue.c ****  *
 167:core/prioqueue.c ****  * Description:
 168:core/prioqueue.c ****  *    This function removes a process from the queue. 
 169:core/prioqueue.c ****  *
 170:core/prioqueue.c ****  * Params:
 171:core/prioqueue.c ****  *    [in] pPrioQueue - A pointer to an initialized priority queue. 
 172:core/prioqueue.c ****  *    [in] pPCB       - A pointer to the process control block of the process 
 173:core/prioqueue.c ****  *                      to be removed from the queue. 
 174:core/prioqueue.c ****  *    [in] queueType  - Specifies if operation applies for the ready or event 
 175:core/prioqueue.c ****  *                      queue. 
 176:core/prioqueue.c ****  *
 177:core/prioqueue.c ****  ****************************************************************************/
 178:core/prioqueue.c **** void
 179:core/prioqueue.c **** rmvFromPrioQueue(tPrioQueue* pPrioQueue,
 180:core/prioqueue.c ****                  tOSPCB*     pPCB,
 181:core/prioqueue.c ****                  tU8         queueType)
 182:core/prioqueue.c **** {
 126              		.loc 1 182 0
 127 0068 10B5     		push	{r4, lr}
 128              	.LCFI2:
 129              		.loc 1 182 0
 130 006a 1206     		lsl	r2, r2, #24
 131 006c 120E     		lsr	r2, r2, #24
 183:core/prioqueue.c ****   if (queueType == READY_QUEUE)
 132              		.loc 1 183 0
 133 006e 002A     		cmp	r2, #0
 134 0070 14D1     		bne	.L16
 184:core/prioqueue.c ****   {
 185:core/prioqueue.c ****     if(pPCB->pNextPrioQueueReady == pPCB)
 135              		.loc 1 185 0
 136 0072 4C68     		ldr	r4, [r1, #4]
 137 0074 4B7E     		ldrb	r3, [r1, #25]
 138 0076 8C42     		cmp	r4, r1
 139 0078 03D1     		bne	.L17
 186:core/prioqueue.c ****       pPrioQueue->pPrioList[pPCB->prio] = NULL;
 140              		.loc 1 186 0
 141 007a 1B06     		lsl	r3, r3, #24
 142 007c 9B0D     		lsr	r3, r3, #22
 143 007e 1A50     		str	r2, [r3, r0]
 144 0080 06E0     		b	.L18
 145              	.L17:
 187:core/prioqueue.c ****     else if(pPrioQueue->pPrioList[pPCB->prio] == pPCB)
 146              		.loc 1 187 0
 147 0082 1B06     		lsl	r3, r3, #24
 148 0084 9B0D     		lsr	r3, r3, #22
 149 0086 1818     		add	r0, r3, r0
 150 0088 0368     		ldr	r3, [r0]
 151 008a 8B42     		cmp	r3, r1
ARM GAS  /cygdrive/c/DOCUME~1/ANDERS~1/LOKALA~1/Temp/ccIbXYyo.s 			page 7


 152 008c 00D1     		bne	.L18
 188:core/prioqueue.c ****       pPrioQueue->pPrioList[pPCB->prio] = pPCB->pNextPrioQueueReady;
 153              		.loc 1 188 0
 154 008e 0460     		str	r4, [r0]
 155              	.L18:
 189:core/prioqueue.c **** 
 190:core/prioqueue.c ****     /* unlink the process from the double-linked prio list */
 191:core/prioqueue.c ****     pPCB->pPrevPrioQueueReady->pNextPrioQueueReady = pPCB->pNextPrioQueueReady;
 156              		.loc 1 191 0
 157 0090 8B68     		ldr	r3, [r1, #8]
 158 0092 4A68     		ldr	r2, [r1, #4]
 159 0094 5A60     		str	r2, [r3, #4]
 192:core/prioqueue.c ****     pPCB->pNextPrioQueueReady->pPrevPrioQueueReady = pPCB->pPrevPrioQueueReady;
 160              		.loc 1 192 0
 161 0096 4A68     		ldr	r2, [r1, #4]
 162 0098 9360     		str	r3, [r2, #8]
 163 009a 14E0     		b	.L15
 164              	.L16:
 193:core/prioqueue.c ****   }
 194:core/prioqueue.c ****   else
 195:core/prioqueue.c ****   {
 196:core/prioqueue.c ****     if(pPCB->pNextPrioQueueEvent == pPCB)
 165              		.loc 1 196 0
 166 009c CA68     		ldr	r2, [r1, #12]
 167 009e 4B7E     		ldrb	r3, [r1, #25]
 168 00a0 8A42     		cmp	r2, r1
 169 00a2 04D1     		bne	.L21
 197:core/prioqueue.c ****       pPrioQueue->pPrioList[pPCB->prio] = NULL;
 170              		.loc 1 197 0
 171 00a4 1B06     		lsl	r3, r3, #24
 172 00a6 9B0D     		lsr	r3, r3, #22
 173 00a8 0022     		mov	r2, #0
 174 00aa 1A50     		str	r2, [r3, r0]
 175 00ac 06E0     		b	.L22
 176              	.L21:
 198:core/prioqueue.c ****     else if(pPrioQueue->pPrioList[pPCB->prio] == pPCB)
 177              		.loc 1 198 0
 178 00ae 1B06     		lsl	r3, r3, #24
 179 00b0 9B0D     		lsr	r3, r3, #22
 180 00b2 1818     		add	r0, r3, r0
 181 00b4 0368     		ldr	r3, [r0]
 182 00b6 8B42     		cmp	r3, r1
 183 00b8 00D1     		bne	.L22
 199:core/prioqueue.c ****       pPrioQueue->pPrioList[pPCB->prio] = pPCB->pNextPrioQueueEvent;
 184              		.loc 1 199 0
 185 00ba 0260     		str	r2, [r0]
 186              	.L22:
 200:core/prioqueue.c **** 
 201:core/prioqueue.c ****     /* unlink the process from the double-linked prio list */
 202:core/prioqueue.c ****     pPCB->pPrevPrioQueueEvent->pNextPrioQueueEvent = pPCB->pNextPrioQueueEvent;
 187              		.loc 1 202 0
 188 00bc 0B69     		ldr	r3, [r1, #16]
 189 00be CA68     		ldr	r2, [r1, #12]
 190 00c0 DA60     		str	r2, [r3, #12]
 203:core/prioqueue.c ****     pPCB->pNextPrioQueueEvent->pPrevPrioQueueEvent = pPCB->pPrevPrioQueueEvent;
 191              		.loc 1 203 0
 192 00c2 CA68     		ldr	r2, [r1, #12]
ARM GAS  /cygdrive/c/DOCUME~1/ANDERS~1/LOKALA~1/Temp/ccIbXYyo.s 			page 8


 193 00c4 1361     		str	r3, [r2, #16]
 194              	.L15:
 204:core/prioqueue.c ****   }
 205:core/prioqueue.c **** }
 195              		.loc 1 205 0
 196              		@ sp needed for prologue
 197 00c6 10BC     		pop	{r4}
 198 00c8 01BC     		pop	{r0}
 199 00ca 0047     		bx	r0
 200              	.LFE4:
 201              		.size	rmvFromPrioQueue, .-rmvFromPrioQueue
 202              		.align	2
 203              		.global	getHighPrioQueue
 204              		.code 16
 205              		.thumb_func
 206              		.type	getHighPrioQueue, %function
 207              	getHighPrioQueue:
 208              	.LFB5:
 206:core/prioqueue.c **** 
 207:core/prioqueue.c **** 
 208:core/prioqueue.c **** /*****************************************************************************
 209:core/prioqueue.c ****  *
 210:core/prioqueue.c ****  * Description:
 211:core/prioqueue.c ****  *    This function returns a pointer to the process control block of the 
 212:core/prioqueue.c ****  *    process with highest priority. 
 213:core/prioqueue.c ****  *
 214:core/prioqueue.c ****  * Params:
 215:core/prioqueue.c ****  *    [in] pPrioQueue - A pointer to an initialized priority queue structure. 
 216:core/prioqueue.c ****  *    [in] queueType  - Specifies if operation applies for the ready or event 
 217:core/prioqueue.c ****  *                      queue. 
 218:core/prioqueue.c ****  *
 219:core/prioqueue.c ****  * Returns:
 220:core/prioqueue.c ****  *    A pointer to the process control block of the process with highest 
 221:core/prioqueue.c ****  *    priority. 
 222:core/prioqueue.c ****  *
 223:core/prioqueue.c ****  ****************************************************************************/
 224:core/prioqueue.c **** tOSPCB*
 225:core/prioqueue.c **** getHighPrioQueue(tPrioQueue* pPrioQueue,
 226:core/prioqueue.c ****                  tU8         queueType)
 227:core/prioqueue.c **** {
 209              		.loc 1 227 0
 210 00cc 30B5     		push	{r4, r5, lr}
 211              	.LCFI3:
 212              		.loc 1 227 0
 213 00ce 0906     		lsl	r1, r1, #24
 214 00d0 041C     		mov	r4, r0
 215 00d2 0D0E     		lsr	r5, r1, #24
 228:core/prioqueue.c ****   tU8 i;
 229:core/prioqueue.c ****   tOSPCB* ret = NULL;
 216              		.loc 1 229 0
 217 00d4 0020     		mov	r0, #0
 230:core/prioqueue.c **** 
 231:core/prioqueue.c ****   for(i=0; i<NUM_PRIO; i++)
 218              		.loc 1 231 0
 219 00d6 0021     		mov	r1, #0
 220              	.L31:
 232:core/prioqueue.c ****   {
ARM GAS  /cygdrive/c/DOCUME~1/ANDERS~1/LOKALA~1/Temp/ccIbXYyo.s 			page 9


 233:core/prioqueue.c ****     if(pPrioQueue->pPrioList[i] != NULL)
 221              		.loc 1 233 0
 222 00d8 8B00     		lsl	r3, r1, #2
 223 00da 1A19     		add	r2, r3, r4
 224 00dc 1368     		ldr	r3, [r2]
 225 00de 002B     		cmp	r3, #0
 226 00e0 07D0     		beq	.L27
 234:core/prioqueue.c ****     {
 235:core/prioqueue.c ****       ret = pPrioQueue->pPrioList[i];
 227              		.loc 1 235 0
 228 00e2 181C     		mov	r0, r3
 236:core/prioqueue.c ****       if (queueType == READY_QUEUE)
 229              		.loc 1 236 0
 230 00e4 002D     		cmp	r5, #0
 231 00e6 01D1     		bne	.L29
 237:core/prioqueue.c ****         pPrioQueue->pPrioList[i] = pPrioQueue->pPrioList[i]->pNextPrioQueueReady;
 232              		.loc 1 237 0
 233 00e8 5B68     		ldr	r3, [r3, #4]
 234 00ea 00E0     		b	.L33
 235              	.L29:
 238:core/prioqueue.c ****       else
 239:core/prioqueue.c ****         pPrioQueue->pPrioList[i] = pPrioQueue->pPrioList[i]->pNextPrioQueueEvent;
 236              		.loc 1 239 0
 237 00ec DB68     		ldr	r3, [r3, #12]
 238              	.L33:
 239 00ee 1360     		str	r3, [r2]
 240:core/prioqueue.c ****       break;
 240              		.loc 1 240 0
 241 00f0 04E0     		b	.L26
 242              	.L27:
 243              		.loc 1 231 0
 244 00f2 4B1C     		add	r3, r1, #1
 245 00f4 1B06     		lsl	r3, r3, #24
 246 00f6 190E     		lsr	r1, r3, #24
 247 00f8 0429     		cmp	r1, #4
 248 00fa EDD9     		bls	.L31
 249              	.L26:
 241:core/prioqueue.c ****     }
 242:core/prioqueue.c ****   }
 243:core/prioqueue.c ****   return ret;
 244:core/prioqueue.c **** }
 250              		.loc 1 244 0
 251              		@ sp needed for prologue
 252 00fc 30BC     		pop	{r4, r5}
 253 00fe 02BC     		pop	{r1}
 254 0100 0847     		bx	r1
 255              	.LFE5:
 256              		.size	getHighPrioQueue, .-getHighPrioQueue
 257 0102 0000     		.align	2
 258              		.global	isEmptyPrioQueue
 259              		.code 16
 260              		.thumb_func
 261              		.type	isEmptyPrioQueue, %function
 262              	isEmptyPrioQueue:
 263              	.LFB6:
 245:core/prioqueue.c **** 
 246:core/prioqueue.c **** 
ARM GAS  /cygdrive/c/DOCUME~1/ANDERS~1/LOKALA~1/Temp/ccIbXYyo.s 			page 10


 247:core/prioqueue.c **** /*****************************************************************************
 248:core/prioqueue.c ****  *
 249:core/prioqueue.c ****  * Description:
 250:core/prioqueue.c ****  *    This function checks if the supplied priority queue is empty or not. 
 251:core/prioqueue.c ****  *
 252:core/prioqueue.c ****  * Params:
 253:core/prioqueue.c ****  *    [in] pPrioQueue - A pointer to an initialized priority queue structure. 
 254:core/prioqueue.c ****  *
 255:core/prioqueue.c ****  * Returns:
 256:core/prioqueue.c ****  *    TRUE if the priority queue is empty, else FALSE. 
 257:core/prioqueue.c ****  *
 258:core/prioqueue.c ****  ****************************************************************************/
 259:core/prioqueue.c **** tBool
 260:core/prioqueue.c **** isEmptyPrioQueue(tPrioQueue* pPrioQueue)
 261:core/prioqueue.c **** {
 264              		.loc 1 261 0
 265 0104 00B5     		push	{lr}
 266              	.LCFI4:
 262:core/prioqueue.c ****   tU8 i;
 263:core/prioqueue.c ****   for(i=0; i<NUM_PRIO; i++)
 267              		.loc 1 263 0
 268 0106 0022     		mov	r2, #0
 269              	.L39:
 264:core/prioqueue.c ****   {
 265:core/prioqueue.c ****     if(pPrioQueue->pPrioList[i] != NULL)
 270              		.loc 1 265 0
 271 0108 9300     		lsl	r3, r2, #2
 272 010a 1B58     		ldr	r3, [r3, r0]
 273 010c 002B     		cmp	r3, #0
 274 010e 01D0     		beq	.L37
 266:core/prioqueue.c ****       return FALSE;
 275              		.loc 1 266 0
 276 0110 0020     		mov	r0, #0
 277 0112 05E0     		b	.L34
 278              	.L37:
 279              		.loc 1 263 0
 280 0114 531C     		add	r3, r2, #1
 281 0116 1B06     		lsl	r3, r3, #24
 282 0118 1A0E     		lsr	r2, r3, #24
 283 011a 042A     		cmp	r2, #4
 284 011c F4D9     		bls	.L39
 267:core/prioqueue.c ****   }
 268:core/prioqueue.c ****   return TRUE;
 285              		.loc 1 268 0
 286 011e 0120     		mov	r0, #1
 287              	.L34:
 269:core/prioqueue.c **** }
 288              		.loc 1 269 0
 289              		@ sp needed for prologue
 290 0120 02BC     		pop	{r1}
 291 0122 0847     		bx	r1
 292              	.LFE6:
 293              		.size	isEmptyPrioQueue, .-isEmptyPrioQueue
 294              		.section	.debug_frame,"",%progbits
 295              	.Lframe0:
 296 0000 0C000000 		.4byte	.LECIE0-.LSCIE0
 297              	.LSCIE0:
ARM GAS  /cygdrive/c/DOCUME~1/ANDERS~1/LOKALA~1/Temp/ccIbXYyo.s 			page 11


 298 0004 FFFFFFFF 		.4byte	0xffffffff
 299 0008 01       		.byte	0x1
 300 0009 00       		.ascii	"\000"
 301 000a 01       		.uleb128 0x1
 302 000b 7C       		.sleb128 -4
 303 000c 0E       		.byte	0xe
 304 000d 0C       		.byte	0xc
 305 000e 0D       		.uleb128 0xd
 306 000f 00       		.uleb128 0x0
 307              		.align	2
 308              	.LECIE0:
 309              	.LSFDE0:
 310 0010 14000000 		.4byte	.LEFDE0-.LASFDE0
 311              	.LASFDE0:
 312 0014 00000000 		.4byte	.Lframe0
 313 0018 00000000 		.4byte	.LFB2
 314 001c 1E000000 		.4byte	.LFE2-.LFB2
 315 0020 42       		.byte	0x4
 316              		.4byte	.LCFI0-.LFB2
 317 0021 0E       		.byte	0xe
 318 0022 08       		.uleb128 0x8
 319 0023 84       		.byte	0x84
 320 0024 02       		.uleb128 0x2
 321 0025 8E       		.byte	0x8e
 322 0026 01       		.uleb128 0x1
 323 0027 00       		.align	2
 324              	.LEFDE0:
 325              	.LSFDE2:
 326 0028 14000000 		.4byte	.LEFDE2-.LASFDE2
 327              	.LASFDE2:
 328 002c 00000000 		.4byte	.Lframe0
 329 0030 20000000 		.4byte	.LFB3
 330 0034 46000000 		.4byte	.LFE3-.LFB3
 331 0038 42       		.byte	0x4
 332              		.4byte	.LCFI1-.LFB3
 333 0039 0E       		.byte	0xe
 334 003a 04       		.uleb128 0x4
 335 003b 8E       		.byte	0x8e
 336 003c 01       		.uleb128 0x1
 337 003d 000000   		.align	2
 338              	.LEFDE2:
 339              	.LSFDE4:
 340 0040 14000000 		.4byte	.LEFDE4-.LASFDE4
 341              	.LASFDE4:
 342 0044 00000000 		.4byte	.Lframe0
 343 0048 68000000 		.4byte	.LFB4
 344 004c 64000000 		.4byte	.LFE4-.LFB4
 345 0050 42       		.byte	0x4
 346              		.4byte	.LCFI2-.LFB4
 347 0051 0E       		.byte	0xe
 348 0052 08       		.uleb128 0x8
 349 0053 84       		.byte	0x84
 350 0054 02       		.uleb128 0x2
 351 0055 8E       		.byte	0x8e
 352 0056 01       		.uleb128 0x1
 353 0057 00       		.align	2
 354              	.LEFDE4:
ARM GAS  /cygdrive/c/DOCUME~1/ANDERS~1/LOKALA~1/Temp/ccIbXYyo.s 			page 12


 355              	.LSFDE6:
 356 0058 18000000 		.4byte	.LEFDE6-.LASFDE6
 357              	.LASFDE6:
 358 005c 00000000 		.4byte	.Lframe0
 359 0060 CC000000 		.4byte	.LFB5
 360 0064 36000000 		.4byte	.LFE5-.LFB5
 361 0068 42       		.byte	0x4
 362              		.4byte	.LCFI3-.LFB5
 363 0069 0E       		.byte	0xe
 364 006a 0C       		.uleb128 0xc
 365 006b 84       		.byte	0x84
 366 006c 03       		.uleb128 0x3
 367 006d 85       		.byte	0x85
 368 006e 02       		.uleb128 0x2
 369 006f 8E       		.byte	0x8e
 370 0070 01       		.uleb128 0x1
 371 0071 000000   		.align	2
 372              	.LEFDE6:
 373              	.LSFDE8:
 374 0074 14000000 		.4byte	.LEFDE8-.LASFDE8
 375              	.LASFDE8:
 376 0078 00000000 		.4byte	.Lframe0
 377 007c 04010000 		.4byte	.LFB6
 378 0080 20000000 		.4byte	.LFE6-.LFB6
 379 0084 42       		.byte	0x4
 380              		.4byte	.LCFI4-.LFB6
 381 0085 0E       		.byte	0xe
 382 0086 04       		.uleb128 0x4
 383 0087 8E       		.byte	0x8e
 384 0088 01       		.uleb128 0x1
 385 0089 000000   		.align	2
 386              	.LEFDE8:
 387              		.file 2 "core/prioqueue.h"
 388              		.file 3 "core/pcb.h"
 389              		.file 4 "core/../api/general.h"
 390              		.text
 391              	.Letext0:
 392              		.section	.debug_info
 393 0000 E4020000 		.4byte	0x2e4
 394 0004 0200     		.2byte	0x2
 395 0006 00000000 		.4byte	.Ldebug_abbrev0
 396 000a 04       		.byte	0x4
 397 000b 01       		.uleb128 0x1
 398 000c 00000000 		.4byte	.Ldebug_line0
 399 0010 24010000 		.4byte	.Letext0
 400 0014 00000000 		.4byte	.Ltext0
 401 0018 12010000 		.4byte	.LASF34
 402 001c 01       		.byte	0x1
 403 001d 35000000 		.4byte	.LASF35
 404 0021 B3010000 		.4byte	.LASF36
 405 0025 02       		.uleb128 0x2
 406 0026 74553800 		.ascii	"tU8\000"
 407 002a 04       		.byte	0x4
 408 002b 47       		.byte	0x47
 409 002c 30000000 		.4byte	0x30
 410 0030 03       		.uleb128 0x3
 411 0031 D5000000 		.4byte	.LASF1
ARM GAS  /cygdrive/c/DOCUME~1/ANDERS~1/LOKALA~1/Temp/ccIbXYyo.s 			page 13


 412 0035 01       		.byte	0x1
 413 0036 08       		.byte	0x8
 414 0037 04       		.uleb128 0x4
 415 0038 7B010000 		.4byte	.LASF0
 416 003c 04       		.byte	0x4
 417 003d 48       		.byte	0x48
 418 003e 42000000 		.4byte	0x42
 419 0042 03       		.uleb128 0x3
 420 0043 52010000 		.4byte	.LASF2
 421 0047 02       		.byte	0x2
 422 0048 07       		.byte	0x7
 423 0049 04       		.uleb128 0x4
 424 004a 46000000 		.4byte	.LASF3
 425 004e 04       		.byte	0x4
 426 004f 49       		.byte	0x49
 427 0050 54000000 		.4byte	0x54
 428 0054 03       		.uleb128 0x3
 429 0055 11000000 		.4byte	.LASF4
 430 0059 04       		.byte	0x4
 431 005a 07       		.byte	0x7
 432 005b 03       		.uleb128 0x3
 433 005c 65010000 		.4byte	.LASF5
 434 0060 01       		.byte	0x1
 435 0061 06       		.byte	0x6
 436 0062 03       		.uleb128 0x3
 437 0063 86010000 		.4byte	.LASF6
 438 0067 02       		.byte	0x2
 439 0068 05       		.byte	0x5
 440 0069 05       		.uleb128 0x5
 441 006a 696E7400 		.ascii	"int\000"
 442 006e 04       		.byte	0x4
 443 006f 05       		.byte	0x5
 444 0070 04       		.uleb128 0x4
 445 0071 80010000 		.4byte	.LASF7
 446 0075 04       		.byte	0x4
 447 0076 4D       		.byte	0x4d
 448 0077 30000000 		.4byte	0x30
 449 007b 06       		.uleb128 0x6
 450 007c 30010000 		.4byte	0x130
 451 0080 71010000 		.4byte	.LASF20
 452 0084 28       		.byte	0x28
 453 0085 03       		.byte	0x3
 454 0086 4D       		.byte	0x4d
 455 0087 07       		.uleb128 0x7
 456 0088 90010000 		.4byte	.LASF8
 457 008c 03       		.byte	0x3
 458 008d 4E       		.byte	0x4e
 459 008e 30010000 		.4byte	0x130
 460 0092 02       		.byte	0x2
 461 0093 23       		.byte	0x23
 462 0094 00       		.uleb128 0x0
 463 0095 07       		.uleb128 0x7
 464 0096 6E000000 		.4byte	.LASF9
 465 009a 03       		.byte	0x3
 466 009b 4F       		.byte	0x4f
 467 009c 36010000 		.4byte	0x136
 468 00a0 02       		.byte	0x2
ARM GAS  /cygdrive/c/DOCUME~1/ANDERS~1/LOKALA~1/Temp/ccIbXYyo.s 			page 14


 469 00a1 23       		.byte	0x23
 470 00a2 04       		.uleb128 0x4
 471 00a3 07       		.uleb128 0x7
 472 00a4 95010000 		.4byte	.LASF10
 473 00a8 03       		.byte	0x3
 474 00a9 50       		.byte	0x50
 475 00aa 36010000 		.4byte	0x136
 476 00ae 02       		.byte	0x2
 477 00af 23       		.byte	0x23
 478 00b0 08       		.uleb128 0x8
 479 00b1 07       		.uleb128 0x7
 480 00b2 E3000000 		.4byte	.LASF11
 481 00b6 03       		.byte	0x3
 482 00b7 51       		.byte	0x51
 483 00b8 36010000 		.4byte	0x136
 484 00bc 02       		.byte	0x2
 485 00bd 23       		.byte	0x23
 486 00be 0C       		.uleb128 0xc
 487 00bf 07       		.uleb128 0x7
 488 00c0 4B000000 		.4byte	.LASF12
 489 00c4 03       		.byte	0x3
 490 00c5 52       		.byte	0x52
 491 00c6 36010000 		.4byte	0x136
 492 00ca 02       		.byte	0x2
 493 00cb 23       		.byte	0x23
 494 00cc 10       		.uleb128 0x10
 495 00cd 07       		.uleb128 0x7
 496 00ce 5F000000 		.4byte	.LASF13
 497 00d2 03       		.byte	0x3
 498 00d3 53       		.byte	0x53
 499 00d4 36010000 		.4byte	0x136
 500 00d8 02       		.byte	0x2
 501 00d9 23       		.byte	0x23
 502 00da 14       		.uleb128 0x14
 503 00db 08       		.uleb128 0x8
 504 00dc 70696400 		.ascii	"pid\000"
 505 00e0 03       		.byte	0x3
 506 00e1 54       		.byte	0x54
 507 00e2 25000000 		.4byte	0x25
 508 00e6 02       		.byte	0x2
 509 00e7 23       		.byte	0x23
 510 00e8 18       		.uleb128 0x18
 511 00e9 07       		.uleb128 0x7
 512 00ea B4000000 		.4byte	.LASF14
 513 00ee 03       		.byte	0x3
 514 00ef 55       		.byte	0x55
 515 00f0 25000000 		.4byte	0x25
 516 00f4 02       		.byte	0x2
 517 00f5 23       		.byte	0x23
 518 00f6 19       		.uleb128 0x19
 519 00f7 07       		.uleb128 0x7
 520 00f8 AF000000 		.4byte	.LASF15
 521 00fc 03       		.byte	0x3
 522 00fd 56       		.byte	0x56
 523 00fe 25000000 		.4byte	0x25
 524 0102 02       		.byte	0x2
 525 0103 23       		.byte	0x23
ARM GAS  /cygdrive/c/DOCUME~1/ANDERS~1/LOKALA~1/Temp/ccIbXYyo.s 			page 15


 526 0104 1A       		.uleb128 0x1a
 527 0105 07       		.uleb128 0x7
 528 0106 FF000000 		.4byte	.LASF16
 529 010a 03       		.byte	0x3
 530 010b 57       		.byte	0x57
 531 010c 49000000 		.4byte	0x49
 532 0110 02       		.byte	0x2
 533 0111 23       		.byte	0x23
 534 0112 1C       		.uleb128 0x1c
 535 0113 07       		.uleb128 0x7
 536 0114 F7000000 		.4byte	.LASF17
 537 0118 03       		.byte	0x3
 538 0119 5A       		.byte	0x5a
 539 011a 30010000 		.4byte	0x130
 540 011e 02       		.byte	0x2
 541 011f 23       		.byte	0x23
 542 0120 20       		.uleb128 0x20
 543 0121 07       		.uleb128 0x7
 544 0122 82000000 		.4byte	.LASF18
 545 0126 03       		.byte	0x3
 546 0127 5B       		.byte	0x5b
 547 0128 37000000 		.4byte	0x37
 548 012c 02       		.byte	0x2
 549 012d 23       		.byte	0x23
 550 012e 24       		.uleb128 0x24
 551 012f 00       		.byte	0x0
 552 0130 09       		.uleb128 0x9
 553 0131 04       		.byte	0x4
 554 0132 25000000 		.4byte	0x25
 555 0136 09       		.uleb128 0x9
 556 0137 04       		.byte	0x4
 557 0138 7B000000 		.4byte	0x7b
 558 013c 04       		.uleb128 0x4
 559 013d 1E000000 		.4byte	.LASF19
 560 0141 03       		.byte	0x3
 561 0142 5D       		.byte	0x5d
 562 0143 7B000000 		.4byte	0x7b
 563 0147 06       		.uleb128 0x6
 564 0148 70010000 		.4byte	0x170
 565 014c 05010000 		.4byte	.LASF21
 566 0150 18       		.byte	0x18
 567 0151 02       		.byte	0x2
 568 0152 49       		.byte	0x49
 569 0153 07       		.uleb128 0x7
 570 0154 A9010000 		.4byte	.LASF22
 571 0158 02       		.byte	0x2
 572 0159 4A       		.byte	0x4a
 573 015a 70010000 		.4byte	0x170
 574 015e 02       		.byte	0x2
 575 015f 23       		.byte	0x23
 576 0160 00       		.uleb128 0x0
 577 0161 07       		.uleb128 0x7
 578 0162 25000000 		.4byte	.LASF23
 579 0166 02       		.byte	0x2
 580 0167 4B       		.byte	0x4b
 581 0168 87010000 		.4byte	0x187
 582 016c 02       		.byte	0x2
ARM GAS  /cygdrive/c/DOCUME~1/ANDERS~1/LOKALA~1/Temp/ccIbXYyo.s 			page 16


 583 016d 23       		.byte	0x23
 584 016e 14       		.uleb128 0x14
 585 016f 00       		.byte	0x0
 586 0170 0A       		.uleb128 0xa
 587 0171 80010000 		.4byte	0x180
 588 0175 87010000 		.4byte	0x187
 589 0179 0B       		.uleb128 0xb
 590 017a 80010000 		.4byte	0x180
 591 017e 04       		.byte	0x4
 592 017f 00       		.byte	0x0
 593 0180 03       		.uleb128 0x3
 594 0181 8C000000 		.4byte	.LASF24
 595 0185 04       		.byte	0x4
 596 0186 07       		.byte	0x7
 597 0187 09       		.uleb128 0x9
 598 0188 04       		.byte	0x4
 599 0189 3C010000 		.4byte	0x13c
 600 018d 04       		.uleb128 0x4
 601 018e B9000000 		.4byte	.LASF25
 602 0192 02       		.byte	0x2
 603 0193 4C       		.byte	0x4c
 604 0194 47010000 		.4byte	0x147
 605 0198 0C       		.uleb128 0xc
 606 0199 D5010000 		.4byte	0x1d5
 607 019d 01       		.byte	0x1
 608 019e 1E010000 		.4byte	.LASF27
 609 01a2 01       		.byte	0x1
 610 01a3 63       		.byte	0x63
 611 01a4 01       		.byte	0x1
 612 01a5 00000000 		.4byte	.LFB2
 613 01a9 1E000000 		.4byte	.LFE2
 614 01ad 01       		.byte	0x1
 615 01ae 5D       		.byte	0x5d
 616 01af 0D       		.uleb128 0xd
 617 01b0 3B010000 		.4byte	.LASF26
 618 01b4 01       		.byte	0x1
 619 01b5 61       		.byte	0x61
 620 01b6 D5010000 		.4byte	0x1d5
 621 01ba 01       		.byte	0x1
 622 01bb 50       		.byte	0x50
 623 01bc 0D       		.uleb128 0xd
 624 01bd 25000000 		.4byte	.LASF23
 625 01c1 01       		.byte	0x1
 626 01c2 62       		.byte	0x62
 627 01c3 87010000 		.4byte	0x187
 628 01c7 01       		.byte	0x1
 629 01c8 54       		.byte	0x54
 630 01c9 0E       		.uleb128 0xe
 631 01ca 6900     		.ascii	"i\000"
 632 01cc 01       		.byte	0x1
 633 01cd 64       		.byte	0x64
 634 01ce 25000000 		.4byte	0x25
 635 01d2 01       		.byte	0x1
 636 01d3 51       		.byte	0x51
 637 01d4 00       		.byte	0x0
 638 01d5 09       		.uleb128 0x9
 639 01d6 04       		.byte	0x4
ARM GAS  /cygdrive/c/DOCUME~1/ANDERS~1/LOKALA~1/Temp/ccIbXYyo.s 			page 17


 640 01d7 8D010000 		.4byte	0x18d
 641 01db 0C       		.uleb128 0xc
 642 01dc 27020000 		.4byte	0x227
 643 01e0 01       		.byte	0x1
 644 01e1 2C010000 		.4byte	.LASF28
 645 01e5 01       		.byte	0x1
 646 01e6 7E       		.byte	0x7e
 647 01e7 01       		.byte	0x1
 648 01e8 20000000 		.4byte	.LFB3
 649 01ec 66000000 		.4byte	.LFE3
 650 01f0 01       		.byte	0x1
 651 01f1 5D       		.byte	0x5d
 652 01f2 0D       		.uleb128 0xd
 653 01f3 3B010000 		.4byte	.LASF26
 654 01f7 01       		.byte	0x1
 655 01f8 7B       		.byte	0x7b
 656 01f9 D5010000 		.4byte	0x1d5
 657 01fd 01       		.byte	0x1
 658 01fe 50       		.byte	0x50
 659 01ff 0D       		.uleb128 0xd
 660 0200 46010000 		.4byte	.LASF29
 661 0204 01       		.byte	0x1
 662 0205 7C       		.byte	0x7c
 663 0206 87010000 		.4byte	0x187
 664 020a 01       		.byte	0x1
 665 020b 51       		.byte	0x51
 666 020c 0D       		.uleb128 0xd
 667 020d 2B000000 		.4byte	.LASF30
 668 0211 01       		.byte	0x1
 669 0212 7D       		.byte	0x7d
 670 0213 25000000 		.4byte	0x25
 671 0217 01       		.byte	0x1
 672 0218 52       		.byte	0x52
 673 0219 0F       		.uleb128 0xf
 674 021a 4B010000 		.4byte	.LASF31
 675 021e 01       		.byte	0x1
 676 021f 7F       		.byte	0x7f
 677 0220 87010000 		.4byte	0x187
 678 0224 01       		.byte	0x1
 679 0225 50       		.byte	0x50
 680 0226 00       		.byte	0x0
 681 0227 0C       		.uleb128 0xc
 682 0228 66020000 		.4byte	0x266
 683 022c 01       		.byte	0x1
 684 022d C4000000 		.4byte	.LASF32
 685 0231 01       		.byte	0x1
 686 0232 B6       		.byte	0xb6
 687 0233 01       		.byte	0x1
 688 0234 68000000 		.4byte	.LFB4
 689 0238 CC000000 		.4byte	.LFE4
 690 023c 01       		.byte	0x1
 691 023d 5D       		.byte	0x5d
 692 023e 0D       		.uleb128 0xd
 693 023f 3B010000 		.4byte	.LASF26
 694 0243 01       		.byte	0x1
 695 0244 B3       		.byte	0xb3
 696 0245 D5010000 		.4byte	0x1d5
ARM GAS  /cygdrive/c/DOCUME~1/ANDERS~1/LOKALA~1/Temp/ccIbXYyo.s 			page 18


 697 0249 01       		.byte	0x1
 698 024a 50       		.byte	0x50
 699 024b 0D       		.uleb128 0xd
 700 024c 46010000 		.4byte	.LASF29
 701 0250 01       		.byte	0x1
 702 0251 B4       		.byte	0xb4
 703 0252 87010000 		.4byte	0x187
 704 0256 01       		.byte	0x1
 705 0257 51       		.byte	0x51
 706 0258 0D       		.uleb128 0xd
 707 0259 2B000000 		.4byte	.LASF30
 708 025d 01       		.byte	0x1
 709 025e B5       		.byte	0xb5
 710 025f 25000000 		.4byte	0x25
 711 0263 01       		.byte	0x1
 712 0264 52       		.byte	0x52
 713 0265 00       		.byte	0x0
 714 0266 10       		.uleb128 0x10
 715 0267 B4020000 		.4byte	0x2b4
 716 026b 01       		.byte	0x1
 717 026c 00000000 		.4byte	.LASF33
 718 0270 01       		.byte	0x1
 719 0271 E3       		.byte	0xe3
 720 0272 01       		.byte	0x1
 721 0273 87010000 		.4byte	0x187
 722 0277 CC000000 		.4byte	.LFB5
 723 027b 02010000 		.4byte	.LFE5
 724 027f 01       		.byte	0x1
 725 0280 5D       		.byte	0x5d
 726 0281 0D       		.uleb128 0xd
 727 0282 3B010000 		.4byte	.LASF26
 728 0286 01       		.byte	0x1
 729 0287 E1       		.byte	0xe1
 730 0288 D5010000 		.4byte	0x1d5
 731 028c 01       		.byte	0x1
 732 028d 54       		.byte	0x54
 733 028e 0D       		.uleb128 0xd
 734 028f 2B000000 		.4byte	.LASF30
 735 0293 01       		.byte	0x1
 736 0294 E2       		.byte	0xe2
 737 0295 25000000 		.4byte	0x25
 738 0299 01       		.byte	0x1
 739 029a 55       		.byte	0x55
 740 029b 0E       		.uleb128 0xe
 741 029c 6900     		.ascii	"i\000"
 742 029e 01       		.byte	0x1
 743 029f E4       		.byte	0xe4
 744 02a0 25000000 		.4byte	0x25
 745 02a4 01       		.byte	0x1
 746 02a5 51       		.byte	0x51
 747 02a6 0E       		.uleb128 0xe
 748 02a7 72657400 		.ascii	"ret\000"
 749 02ab 01       		.byte	0x1
 750 02ac E5       		.byte	0xe5
 751 02ad 87010000 		.4byte	0x187
 752 02b1 01       		.byte	0x1
 753 02b2 50       		.byte	0x50
ARM GAS  /cygdrive/c/DOCUME~1/ANDERS~1/LOKALA~1/Temp/ccIbXYyo.s 			page 19


 754 02b3 00       		.byte	0x0
 755 02b4 11       		.uleb128 0x11
 756 02b5 01       		.byte	0x1
 757 02b6 9E000000 		.4byte	.LASF37
 758 02ba 01       		.byte	0x1
 759 02bb 0501     		.2byte	0x105
 760 02bd 01       		.byte	0x1
 761 02be 70000000 		.4byte	0x70
 762 02c2 04010000 		.4byte	.LFB6
 763 02c6 24010000 		.4byte	.LFE6
 764 02ca 01       		.byte	0x1
 765 02cb 5D       		.byte	0x5d
 766 02cc 12       		.uleb128 0x12
 767 02cd 3B010000 		.4byte	.LASF26
 768 02d1 01       		.byte	0x1
 769 02d2 0401     		.2byte	0x104
 770 02d4 D5010000 		.4byte	0x1d5
 771 02d8 01       		.byte	0x1
 772 02d9 50       		.byte	0x50
 773 02da 13       		.uleb128 0x13
 774 02db 6900     		.ascii	"i\000"
 775 02dd 01       		.byte	0x1
 776 02de 0601     		.2byte	0x106
 777 02e0 25000000 		.4byte	0x25
 778 02e4 01       		.byte	0x1
 779 02e5 52       		.byte	0x52
 780 02e6 00       		.byte	0x0
 781 02e7 00       		.byte	0x0
 782              		.section	.debug_abbrev
 783 0000 01       		.uleb128 0x1
 784 0001 11       		.uleb128 0x11
 785 0002 01       		.byte	0x1
 786 0003 10       		.uleb128 0x10
 787 0004 06       		.uleb128 0x6
 788 0005 12       		.uleb128 0x12
 789 0006 01       		.uleb128 0x1
 790 0007 11       		.uleb128 0x11
 791 0008 01       		.uleb128 0x1
 792 0009 25       		.uleb128 0x25
 793 000a 0E       		.uleb128 0xe
 794 000b 13       		.uleb128 0x13
 795 000c 0B       		.uleb128 0xb
 796 000d 03       		.uleb128 0x3
 797 000e 0E       		.uleb128 0xe
 798 000f 1B       		.uleb128 0x1b
 799 0010 0E       		.uleb128 0xe
 800 0011 00       		.byte	0x0
 801 0012 00       		.byte	0x0
 802 0013 02       		.uleb128 0x2
 803 0014 16       		.uleb128 0x16
 804 0015 00       		.byte	0x0
 805 0016 03       		.uleb128 0x3
 806 0017 08       		.uleb128 0x8
 807 0018 3A       		.uleb128 0x3a
 808 0019 0B       		.uleb128 0xb
 809 001a 3B       		.uleb128 0x3b
 810 001b 0B       		.uleb128 0xb
ARM GAS  /cygdrive/c/DOCUME~1/ANDERS~1/LOKALA~1/Temp/ccIbXYyo.s 			page 20


 811 001c 49       		.uleb128 0x49
 812 001d 13       		.uleb128 0x13
 813 001e 00       		.byte	0x0
 814 001f 00       		.byte	0x0
 815 0020 03       		.uleb128 0x3
 816 0021 24       		.uleb128 0x24
 817 0022 00       		.byte	0x0
 818 0023 03       		.uleb128 0x3
 819 0024 0E       		.uleb128 0xe
 820 0025 0B       		.uleb128 0xb
 821 0026 0B       		.uleb128 0xb
 822 0027 3E       		.uleb128 0x3e
 823 0028 0B       		.uleb128 0xb
 824 0029 00       		.byte	0x0
 825 002a 00       		.byte	0x0
 826 002b 04       		.uleb128 0x4
 827 002c 16       		.uleb128 0x16
 828 002d 00       		.byte	0x0
 829 002e 03       		.uleb128 0x3
 830 002f 0E       		.uleb128 0xe
 831 0030 3A       		.uleb128 0x3a
 832 0031 0B       		.uleb128 0xb
 833 0032 3B       		.uleb128 0x3b
 834 0033 0B       		.uleb128 0xb
 835 0034 49       		.uleb128 0x49
 836 0035 13       		.uleb128 0x13
 837 0036 00       		.byte	0x0
 838 0037 00       		.byte	0x0
 839 0038 05       		.uleb128 0x5
 840 0039 24       		.uleb128 0x24
 841 003a 00       		.byte	0x0
 842 003b 03       		.uleb128 0x3
 843 003c 08       		.uleb128 0x8
 844 003d 0B       		.uleb128 0xb
 845 003e 0B       		.uleb128 0xb
 846 003f 3E       		.uleb128 0x3e
 847 0040 0B       		.uleb128 0xb
 848 0041 00       		.byte	0x0
 849 0042 00       		.byte	0x0
 850 0043 06       		.uleb128 0x6
 851 0044 13       		.uleb128 0x13
 852 0045 01       		.byte	0x1
 853 0046 01       		.uleb128 0x1
 854 0047 13       		.uleb128 0x13
 855 0048 03       		.uleb128 0x3
 856 0049 0E       		.uleb128 0xe
 857 004a 0B       		.uleb128 0xb
 858 004b 0B       		.uleb128 0xb
 859 004c 3A       		.uleb128 0x3a
 860 004d 0B       		.uleb128 0xb
 861 004e 3B       		.uleb128 0x3b
 862 004f 0B       		.uleb128 0xb
 863 0050 00       		.byte	0x0
 864 0051 00       		.byte	0x0
 865 0052 07       		.uleb128 0x7
 866 0053 0D       		.uleb128 0xd
 867 0054 00       		.byte	0x0
ARM GAS  /cygdrive/c/DOCUME~1/ANDERS~1/LOKALA~1/Temp/ccIbXYyo.s 			page 21


 868 0055 03       		.uleb128 0x3
 869 0056 0E       		.uleb128 0xe
 870 0057 3A       		.uleb128 0x3a
 871 0058 0B       		.uleb128 0xb
 872 0059 3B       		.uleb128 0x3b
 873 005a 0B       		.uleb128 0xb
 874 005b 49       		.uleb128 0x49
 875 005c 13       		.uleb128 0x13
 876 005d 38       		.uleb128 0x38
 877 005e 0A       		.uleb128 0xa
 878 005f 00       		.byte	0x0
 879 0060 00       		.byte	0x0
 880 0061 08       		.uleb128 0x8
 881 0062 0D       		.uleb128 0xd
 882 0063 00       		.byte	0x0
 883 0064 03       		.uleb128 0x3
 884 0065 08       		.uleb128 0x8
 885 0066 3A       		.uleb128 0x3a
 886 0067 0B       		.uleb128 0xb
 887 0068 3B       		.uleb128 0x3b
 888 0069 0B       		.uleb128 0xb
 889 006a 49       		.uleb128 0x49
 890 006b 13       		.uleb128 0x13
 891 006c 38       		.uleb128 0x38
 892 006d 0A       		.uleb128 0xa
 893 006e 00       		.byte	0x0
 894 006f 00       		.byte	0x0
 895 0070 09       		.uleb128 0x9
 896 0071 0F       		.uleb128 0xf
 897 0072 00       		.byte	0x0
 898 0073 0B       		.uleb128 0xb
 899 0074 0B       		.uleb128 0xb
 900 0075 49       		.uleb128 0x49
 901 0076 13       		.uleb128 0x13
 902 0077 00       		.byte	0x0
 903 0078 00       		.byte	0x0
 904 0079 0A       		.uleb128 0xa
 905 007a 01       		.uleb128 0x1
 906 007b 01       		.byte	0x1
 907 007c 01       		.uleb128 0x1
 908 007d 13       		.uleb128 0x13
 909 007e 49       		.uleb128 0x49
 910 007f 13       		.uleb128 0x13
 911 0080 00       		.byte	0x0
 912 0081 00       		.byte	0x0
 913 0082 0B       		.uleb128 0xb
 914 0083 21       		.uleb128 0x21
 915 0084 00       		.byte	0x0
 916 0085 49       		.uleb128 0x49
 917 0086 13       		.uleb128 0x13
 918 0087 2F       		.uleb128 0x2f
 919 0088 0B       		.uleb128 0xb
 920 0089 00       		.byte	0x0
 921 008a 00       		.byte	0x0
 922 008b 0C       		.uleb128 0xc
 923 008c 2E       		.uleb128 0x2e
 924 008d 01       		.byte	0x1
ARM GAS  /cygdrive/c/DOCUME~1/ANDERS~1/LOKALA~1/Temp/ccIbXYyo.s 			page 22


 925 008e 01       		.uleb128 0x1
 926 008f 13       		.uleb128 0x13
 927 0090 3F       		.uleb128 0x3f
 928 0091 0C       		.uleb128 0xc
 929 0092 03       		.uleb128 0x3
 930 0093 0E       		.uleb128 0xe
 931 0094 3A       		.uleb128 0x3a
 932 0095 0B       		.uleb128 0xb
 933 0096 3B       		.uleb128 0x3b
 934 0097 0B       		.uleb128 0xb
 935 0098 27       		.uleb128 0x27
 936 0099 0C       		.uleb128 0xc
 937 009a 11       		.uleb128 0x11
 938 009b 01       		.uleb128 0x1
 939 009c 12       		.uleb128 0x12
 940 009d 01       		.uleb128 0x1
 941 009e 40       		.uleb128 0x40
 942 009f 0A       		.uleb128 0xa
 943 00a0 00       		.byte	0x0
 944 00a1 00       		.byte	0x0
 945 00a2 0D       		.uleb128 0xd
 946 00a3 05       		.uleb128 0x5
 947 00a4 00       		.byte	0x0
 948 00a5 03       		.uleb128 0x3
 949 00a6 0E       		.uleb128 0xe
 950 00a7 3A       		.uleb128 0x3a
 951 00a8 0B       		.uleb128 0xb
 952 00a9 3B       		.uleb128 0x3b
 953 00aa 0B       		.uleb128 0xb
 954 00ab 49       		.uleb128 0x49
 955 00ac 13       		.uleb128 0x13
 956 00ad 02       		.uleb128 0x2
 957 00ae 0A       		.uleb128 0xa
 958 00af 00       		.byte	0x0
 959 00b0 00       		.byte	0x0
 960 00b1 0E       		.uleb128 0xe
 961 00b2 34       		.uleb128 0x34
 962 00b3 00       		.byte	0x0
 963 00b4 03       		.uleb128 0x3
 964 00b5 08       		.uleb128 0x8
 965 00b6 3A       		.uleb128 0x3a
 966 00b7 0B       		.uleb128 0xb
 967 00b8 3B       		.uleb128 0x3b
 968 00b9 0B       		.uleb128 0xb
 969 00ba 49       		.uleb128 0x49
 970 00bb 13       		.uleb128 0x13
 971 00bc 02       		.uleb128 0x2
 972 00bd 0A       		.uleb128 0xa
 973 00be 00       		.byte	0x0
 974 00bf 00       		.byte	0x0
 975 00c0 0F       		.uleb128 0xf
 976 00c1 34       		.uleb128 0x34
 977 00c2 00       		.byte	0x0
 978 00c3 03       		.uleb128 0x3
 979 00c4 0E       		.uleb128 0xe
 980 00c5 3A       		.uleb128 0x3a
 981 00c6 0B       		.uleb128 0xb
ARM GAS  /cygdrive/c/DOCUME~1/ANDERS~1/LOKALA~1/Temp/ccIbXYyo.s 			page 23


 982 00c7 3B       		.uleb128 0x3b
 983 00c8 0B       		.uleb128 0xb
 984 00c9 49       		.uleb128 0x49
 985 00ca 13       		.uleb128 0x13
 986 00cb 02       		.uleb128 0x2
 987 00cc 0A       		.uleb128 0xa
 988 00cd 00       		.byte	0x0
 989 00ce 00       		.byte	0x0
 990 00cf 10       		.uleb128 0x10
 991 00d0 2E       		.uleb128 0x2e
 992 00d1 01       		.byte	0x1
 993 00d2 01       		.uleb128 0x1
 994 00d3 13       		.uleb128 0x13
 995 00d4 3F       		.uleb128 0x3f
 996 00d5 0C       		.uleb128 0xc
 997 00d6 03       		.uleb128 0x3
 998 00d7 0E       		.uleb128 0xe
 999 00d8 3A       		.uleb128 0x3a
 1000 00d9 0B       		.uleb128 0xb
 1001 00da 3B       		.uleb128 0x3b
 1002 00db 0B       		.uleb128 0xb
 1003 00dc 27       		.uleb128 0x27
 1004 00dd 0C       		.uleb128 0xc
 1005 00de 49       		.uleb128 0x49
 1006 00df 13       		.uleb128 0x13
 1007 00e0 11       		.uleb128 0x11
 1008 00e1 01       		.uleb128 0x1
 1009 00e2 12       		.uleb128 0x12
 1010 00e3 01       		.uleb128 0x1
 1011 00e4 40       		.uleb128 0x40
 1012 00e5 0A       		.uleb128 0xa
 1013 00e6 00       		.byte	0x0
 1014 00e7 00       		.byte	0x0
 1015 00e8 11       		.uleb128 0x11
 1016 00e9 2E       		.uleb128 0x2e
 1017 00ea 01       		.byte	0x1
 1018 00eb 3F       		.uleb128 0x3f
 1019 00ec 0C       		.uleb128 0xc
 1020 00ed 03       		.uleb128 0x3
 1021 00ee 0E       		.uleb128 0xe
 1022 00ef 3A       		.uleb128 0x3a
 1023 00f0 0B       		.uleb128 0xb
 1024 00f1 3B       		.uleb128 0x3b
 1025 00f2 05       		.uleb128 0x5
 1026 00f3 27       		.uleb128 0x27
 1027 00f4 0C       		.uleb128 0xc
 1028 00f5 49       		.uleb128 0x49
 1029 00f6 13       		.uleb128 0x13
 1030 00f7 11       		.uleb128 0x11
 1031 00f8 01       		.uleb128 0x1
 1032 00f9 12       		.uleb128 0x12
 1033 00fa 01       		.uleb128 0x1
 1034 00fb 40       		.uleb128 0x40
 1035 00fc 0A       		.uleb128 0xa
 1036 00fd 00       		.byte	0x0
 1037 00fe 00       		.byte	0x0
 1038 00ff 12       		.uleb128 0x12
ARM GAS  /cygdrive/c/DOCUME~1/ANDERS~1/LOKALA~1/Temp/ccIbXYyo.s 			page 24


 1039 0100 05       		.uleb128 0x5
 1040 0101 00       		.byte	0x0
 1041 0102 03       		.uleb128 0x3
 1042 0103 0E       		.uleb128 0xe
 1043 0104 3A       		.uleb128 0x3a
 1044 0105 0B       		.uleb128 0xb
 1045 0106 3B       		.uleb128 0x3b
 1046 0107 05       		.uleb128 0x5
 1047 0108 49       		.uleb128 0x49
 1048 0109 13       		.uleb128 0x13
 1049 010a 02       		.uleb128 0x2
 1050 010b 0A       		.uleb128 0xa
 1051 010c 00       		.byte	0x0
 1052 010d 00       		.byte	0x0
 1053 010e 13       		.uleb128 0x13
 1054 010f 34       		.uleb128 0x34
 1055 0110 00       		.byte	0x0
 1056 0111 03       		.uleb128 0x3
 1057 0112 08       		.uleb128 0x8
 1058 0113 3A       		.uleb128 0x3a
 1059 0114 0B       		.uleb128 0xb
 1060 0115 3B       		.uleb128 0x3b
 1061 0116 05       		.uleb128 0x5
 1062 0117 49       		.uleb128 0x49
 1063 0118 13       		.uleb128 0x13
 1064 0119 02       		.uleb128 0x2
 1065 011a 0A       		.uleb128 0xa
 1066 011b 00       		.byte	0x0
 1067 011c 00       		.byte	0x0
 1068 011d 00       		.byte	0x0
 1069              		.section	.debug_pubnames,"",%progbits
 1070 0000 72000000 		.4byte	0x72
 1071 0004 0200     		.2byte	0x2
 1072 0006 00000000 		.4byte	.Ldebug_info0
 1073 000a E8020000 		.4byte	0x2e8
 1074 000e 98010000 		.4byte	0x198
 1075 0012 696E6974 		.ascii	"initPrioQueue\000"
 1075      5072696F 
 1075      51756575 
 1075      6500
 1076 0020 DB010000 		.4byte	0x1db
 1077 0024 61646454 		.ascii	"addToPrioQueue\000"
 1077      6F507269 
 1077      6F517565 
 1077      756500
 1078 0033 27020000 		.4byte	0x227
 1079 0037 726D7646 		.ascii	"rmvFromPrioQueue\000"
 1079      726F6D50 
 1079      72696F51 
 1079      75657565 
 1079      00
 1080 0048 66020000 		.4byte	0x266
 1081 004c 67657448 		.ascii	"getHighPrioQueue\000"
 1081      69676850 
 1081      72696F51 
 1081      75657565 
 1081      00
ARM GAS  /cygdrive/c/DOCUME~1/ANDERS~1/LOKALA~1/Temp/ccIbXYyo.s 			page 25


 1082 005d B4020000 		.4byte	0x2b4
 1083 0061 6973456D 		.ascii	"isEmptyPrioQueue\000"
 1083      70747950 
 1083      72696F51 
 1083      75657565 
 1083      00
 1084 0072 00000000 		.4byte	0x0
 1085              		.section	.debug_aranges,"",%progbits
 1086 0000 1C000000 		.4byte	0x1c
 1087 0004 0200     		.2byte	0x2
 1088 0006 00000000 		.4byte	.Ldebug_info0
 1089 000a 04       		.byte	0x4
 1090 000b 00       		.byte	0x0
 1091 000c 0000     		.2byte	0x0
 1092 000e 0000     		.2byte	0x0
 1093 0010 00000000 		.4byte	.Ltext0
 1094 0014 24010000 		.4byte	.Letext0-.Ltext0
 1095 0018 00000000 		.4byte	0x0
 1096 001c 00000000 		.4byte	0x0
 1097              		.section	.debug_str,"MS",%progbits,1
 1098              	.LASF33:
 1099 0000 67657448 		.ascii	"getHighPrioQueue\000"
 1099      69676850 
 1099      72696F51 
 1099      75657565 
 1099      00
 1100              	.LASF4:
 1101 0011 756E7369 		.ascii	"unsigned int\000"
 1101      676E6564 
 1101      20696E74 
 1101      00
 1102              	.LASF19:
 1103 001e 744F5350 		.ascii	"tOSPCB\000"
 1103      434200
 1104              	.LASF23:
 1105 0025 70504342 		.ascii	"pPCBs\000"
 1105      7300
 1106              	.LASF30:
 1107 002b 71756575 		.ascii	"queueType\000"
 1107      65547970 
 1107      6500
 1108              	.LASF35:
 1109 0035 636F7265 		.ascii	"core/prioqueue.c\000"
 1109      2F707269 
 1109      6F717565 
 1109      75652E63 
 1109      00
 1110              	.LASF3:
 1111 0046 74553332 		.ascii	"tU32\000"
 1111      00
 1112              	.LASF12:
 1113 004b 70507265 		.ascii	"pPrevPrioQueueEvent\000"
 1113      76507269 
 1113      6F517565 
 1113      75654576 
 1113      656E7400 
 1114              	.LASF13:
ARM GAS  /cygdrive/c/DOCUME~1/ANDERS~1/LOKALA~1/Temp/ccIbXYyo.s 			page 26


 1115 005f 704E6578 		.ascii	"pNextTimeQueue\000"
 1115      7454696D 
 1115      65517565 
 1115      756500
 1116              	.LASF9:
 1117 006e 704E6578 		.ascii	"pNextPrioQueueReady\000"
 1117      74507269 
 1117      6F517565 
 1117      75655265 
 1117      61647900 
 1118              	.LASF18:
 1119 0082 73746163 		.ascii	"stackSize\000"
 1119      6B53697A 
 1119      6500
 1120              	.LASF24:
 1121 008c 6C6F6E67 		.ascii	"long unsigned int\000"
 1121      20756E73 
 1121      69676E65 
 1121      6420696E 
 1121      7400
 1122              	.LASF37:
 1123 009e 6973456D 		.ascii	"isEmptyPrioQueue\000"
 1123      70747950 
 1123      72696F51 
 1123      75657565 
 1123      00
 1124              	.LASF15:
 1125 00af 666C6167 		.ascii	"flag\000"
 1125      00
 1126              	.LASF14:
 1127 00b4 7072696F 		.ascii	"prio\000"
 1127      00
 1128              	.LASF25:
 1129 00b9 74507269 		.ascii	"tPrioQueue\000"
 1129      6F517565 
 1129      756500
 1130              	.LASF32:
 1131 00c4 726D7646 		.ascii	"rmvFromPrioQueue\000"
 1131      726F6D50 
 1131      72696F51 
 1131      75657565 
 1131      00
 1132              	.LASF1:
 1133 00d5 756E7369 		.ascii	"unsigned char\000"
 1133      676E6564 
 1133      20636861 
 1133      7200
 1134              	.LASF11:
 1135 00e3 704E6578 		.ascii	"pNextPrioQueueEvent\000"
 1135      74507269 
 1135      6F517565 
 1135      75654576 
 1135      656E7400 
 1136              	.LASF17:
 1137 00f7 7053746B 		.ascii	"pStkOrg\000"
 1137      4F726700 
 1138              	.LASF16:
ARM GAS  /cygdrive/c/DOCUME~1/ANDERS~1/LOKALA~1/Temp/ccIbXYyo.s 			page 27


 1139 00ff 736C6565 		.ascii	"sleep\000"
 1139      7000
 1140              	.LASF21:
 1141 0105 5F745072 		.ascii	"_tPrioQueue_\000"
 1141      696F5175 
 1141      6575655F 
 1141      00
 1142              	.LASF34:
 1143 0112 474E5520 		.ascii	"GNU C 3.4.3\000"
 1143      4320332E 
 1143      342E3300 
 1144              	.LASF27:
 1145 011e 696E6974 		.ascii	"initPrioQueue\000"
 1145      5072696F 
 1145      51756575 
 1145      6500
 1146              	.LASF28:
 1147 012c 61646454 		.ascii	"addToPrioQueue\000"
 1147      6F507269 
 1147      6F517565 
 1147      756500
 1148              	.LASF26:
 1149 013b 70507269 		.ascii	"pPrioQueue\000"
 1149      6F517565 
 1149      756500
 1150              	.LASF29:
 1151 0146 70504342 		.ascii	"pPCB\000"
 1151      00
 1152              	.LASF31:
 1153 014b 70466972 		.ascii	"pFirst\000"
 1153      737400
 1154              	.LASF2:
 1155 0152 73686F72 		.ascii	"short unsigned int\000"
 1155      7420756E 
 1155      7369676E 
 1155      65642069 
 1155      6E7400
 1156              	.LASF5:
 1157 0165 7369676E 		.ascii	"signed char\000"
 1157      65642063 
 1157      68617200 
 1158              	.LASF20:
 1159 0171 5F744F53 		.ascii	"_tOSPCB__\000"
 1159      5043425F 
 1159      5F00
 1160              	.LASF0:
 1161 017b 74553136 		.ascii	"tU16\000"
 1161      00
 1162              	.LASF7:
 1163 0180 74426F6F 		.ascii	"tBool\000"
 1163      6C00
 1164              	.LASF6:
 1165 0186 73686F72 		.ascii	"short int\000"
 1165      7420696E 
 1165      7400
 1166              	.LASF8:
 1167 0190 7053746B 		.ascii	"pStk\000"
ARM GAS  /cygdrive/c/DOCUME~1/ANDERS~1/LOKALA~1/Temp/ccIbXYyo.s 			page 28


 1167      00
 1168              	.LASF10:
 1169 0195 70507265 		.ascii	"pPrevPrioQueueReady\000"
 1169      76507269 
 1169      6F517565 
 1169      75655265 
 1169      61647900 
 1170              	.LASF22:
 1171 01a9 70507269 		.ascii	"pPrioList\000"
 1171      6F4C6973 
 1171      7400
 1172              	.LASF36:
 1173 01b3 2F637967 		.ascii	"/cygdrive/c/Documents and Settings/Anders Rosvall/M"
 1173      64726976 
 1173      652F632F 
 1173      446F6375 
 1173      6D656E74 
 1174 01e6 696E6120 		.ascii	"ina dokument/Embedded Artists/Products/LPC2148 Educ"
 1174      646F6B75 
 1174      6D656E74 
 1174      2F456D62 
 1174      65646465 
 1175 0219 6174696F 		.ascii	"ation Board/Test program/v1.2/pre_emptive_os\000"
 1175      6E20426F 
 1175      6172642F 
 1175      54657374 
 1175      2070726F 
 1176              		.ident	"GCC: (GNU) 3.4.3"
ARM GAS  /cygdrive/c/DOCUME~1/ANDERS~1/LOKALA~1/Temp/ccIbXYyo.s 			page 29


DEFINED SYMBOLS
                            *ABS*:00000000 prioqueue.c
/cygdrive/c/DOCUME~1/ANDERS~1/LOKALA~1/Temp/ccIbXYyo.s:1      .text:00000000 $t
/cygdrive/c/DOCUME~1/ANDERS~1/LOKALA~1/Temp/ccIbXYyo.s:16     .text:00000000 initPrioQueue
/cygdrive/c/DOCUME~1/ANDERS~1/LOKALA~1/Temp/ccIbXYyo.s:50     .text:00000020 addToPrioQueue
/cygdrive/c/DOCUME~1/ANDERS~1/LOKALA~1/Temp/ccIbXYyo.s:124    .text:00000068 rmvFromPrioQueue
/cygdrive/c/DOCUME~1/ANDERS~1/LOKALA~1/Temp/ccIbXYyo.s:207    .text:000000cc getHighPrioQueue
/cygdrive/c/DOCUME~1/ANDERS~1/LOKALA~1/Temp/ccIbXYyo.s:262    .text:00000104 isEmptyPrioQueue

NO UNDEFINED SYMBOLS
