ARM GAS  /cygdrive/c/DOCUME~1/ANDERS~1/LOKALA~1/Temp/ccUyM2as.s 			page 1


   1              		.file	"a7hal.c"
   2              		.section	.debug_abbrev,"",%progbits
   3              	.Ldebug_abbrev0:
   4              		.section	.debug_info,"",%progbits
   5              	.Ldebug_info0:
   6              		.section	.debug_line,"",%progbits
   7              	.Ldebug_line0:
   8 0000 88000000 		.text
   8      02003900 
   8      00000201 
   8      FB0E0A00 
   8      01010101 
   9              	.Ltext0:
  10              		.align	2
  11              		.global	timerIsr_oshal
  12              		.type	timerIsr_oshal, %function
  13              	timerIsr_oshal:
  14              	.LFB2:
  15              		.file 1 "core/a7hal.c"
   1:core/a7hal.c  **** /******************************************************************************
   2:core/a7hal.c  ****  *
   3:core/a7hal.c  ****  * Copyright:
   4:core/a7hal.c  ****  *    (C) 2000 - 2005 Embedded Artists AB
   5:core/a7hal.c  ****  *
   6:core/a7hal.c  ****  * Description:
   7:core/a7hal.c  ****  *    C functions in ARM7 HAL
   8:core/a7hal.c  ****  *
   9:core/a7hal.c  ****  * ESIC:
  10:core/a7hal.c  ****  *    oshal_arm7_gcc
  11:core/a7hal.c  ****  *
  12:core/a7hal.c  ****  * Version:
  13:core/a7hal.c  ****  *    1.1.0
  14:core/a7hal.c  ****  *
  15:core/a7hal.c  ****  * Generate date:
  16:core/a7hal.c  ****  *    2005-03-15 at 20:27:15
  17:core/a7hal.c  ****  *
  18:core/a7hal.c  ****  * NOTE:
  19:core/a7hal.c  ****  *    DO NOT EDIT THIS FILE. IT IS AUTO GENERATED.
  20:core/a7hal.c  ****  *    CHANGES TO THIS FILE WILL BE LOST IF THE FILE IS RE-GENERATED
  21:core/a7hal.c  ****  *
  22:core/a7hal.c  ****  * Signature:
  23:core/a7hal.c  ****  *   7072655F656D70746976655F6F73,312E342E302E30,020235
  24:core/a7hal.c  ****  *   ,35,10104021013134373435363030,07323838,3732,01013
  25:core/a7hal.c  ****  *   830,0101013138303030303030,3135,33,3135,0232323530
  26:core/a7hal.c  ****  *   ,01020130,0231343734353539,3238313831,020101100302
  27:core/a7hal.c  ****  *   103030310010133,0163130,3230,3330,3430,3530,3630,3
  28:core/a7hal.c  ****  *   730,3830,3930,313030,313130,313230,313330,313430,3
  29:core/a7hal.c  ****  *   13530,313630,,35,35,35,35,35,35,35,35,35,35,35,35,
  30:core/a7hal.c  ****  *   35,35,35,35,,,,1001001100011000000000]484152445741
  31:core/a7hal.c  ****  *   5245,4C5043323130365F32,545538,756E7369676E6564206
  32:core/a7hal.c  ****  *   3686172,414C49474E4D454E54,34,54424F4F4C,756E73696
  33:core/a7hal.c  ****  *   76E65642063686172,54553332,756E7369676E656420696E7
  34:core/a7hal.c  ****  *   4,544D505F46494C4553,2A2E656C663B2A2E6C73743B2A2E6
  35:core/a7hal.c  ****  *   D61703B2A2E6F3B2A2E6F626A3B2A2E64,454E4449414E,4C4
  36:core/a7hal.c  ****  *   954544C45,54533332,7369676E656420696E74,545338,736
  37:core/a7hal.c  ****  *   9676E65642063686172,54553136,756E7369676E656420736
  38:core/a7hal.c  ****  *   86F7274,54533136,7369676E65642073686F7274,44455343
ARM GAS  /cygdrive/c/DOCUME~1/ANDERS~1/LOKALA~1/Temp/ccUyM2as.s 			page 2


  39:core/a7hal.c  ****  *   52495054494F4E,,44454255475F4C4556454C,30,434F4445
  40:core/a7hal.c  ****  *   5F524F4F54,,47454E5F52554C4553,,4C494E455F5445524D
  41:core/a7hal.c  ****  *   ,43524C46,4252414345,,43524541544F52,416E646572732
  42:core/a7hal.c  ****  *   0526F7376616C6C,4352454154494F4E5F44415445,3230303
  43:core/a7hal.c  ****  *   52D30332D31352032303A31373A3432,524F4F54,433A2F446
  44:core/a7hal.c  ****  *   F63756D656E747320616E642053657474696E67732F416E646
  45:core/a7hal.c  ****  *   5727320526F7376616C6C2F4D696E6120646F6B756D656E742
  46:core/a7hal.c  ****  *   F456D62656464656420417274697374732F50726F647563747
  47:core/a7hal.c  ****  *   32F4C50433231303620525332333220517569636B537461727
  48:core/a7hal.c  ****  *   420426F6172642F72746F732F]505245464958,,4445425547
  49:core/a7hal.c  ****  *   5F4C4556454C,30,555345525F434F4D4D454E54,]64656661
  50:core/a7hal.c  ****  *   756C74,
  51:core/a7hal.c  ****  *
  52:core/a7hal.c  ****  * Checksum:
  53:core/a7hal.c  ****  *    370882
  54:core/a7hal.c  ****  *
  55:core/a7hal.c  ****  *****************************************************************************/
  56:core/a7hal.c  **** 
  57:core/a7hal.c  **** 
  58:core/a7hal.c  **** /******************************************************************************
  59:core/a7hal.c  ****  * Includes
  60:core/a7hal.c  ****  *****************************************************************************/
  61:core/a7hal.c  **** 
  62:core/a7hal.c  **** #include <LPC2xxx.H>                            /* LPC210x definitions */
  63:core/a7hal.c  **** #include "../api/general.h"
  64:core/a7hal.c  **** #include "../../../api/osapi.h"
  65:core/a7hal.c  **** #include <framework.h>
  66:core/a7hal.c  **** 
  67:core/a7hal.c  **** /******************************************************************************
  68:core/a7hal.c  ****  * Defines, macros, and typedefs
  69:core/a7hal.c  ****  *****************************************************************************/
  70:core/a7hal.c  **** 
  71:core/a7hal.c  **** #define SYS_MODE     0x0000001f
  72:core/a7hal.c  **** #define THUMB_MODE   0x00000020
  73:core/a7hal.c  **** #define TICKS        (5*120000) //(147459)
  74:core/a7hal.c  **** 
  75:core/a7hal.c  **** #define PRESCALER    (0)
  76:core/a7hal.c  **** 
  77:core/a7hal.c  **** /******************************************************************************
  78:core/a7hal.c  ****  * External functions
  79:core/a7hal.c  ****  *****************************************************************************/
  80:core/a7hal.c  **** 
  81:core/a7hal.c  **** extern void generalIRQ_oshal(void);
  82:core/a7hal.c  **** 
  83:core/a7hal.c  **** /******************************************************************************
  84:core/a7hal.c  ****  * Implementation of local functions
  85:core/a7hal.c  ****  *****************************************************************************/
  86:core/a7hal.c  **** 
  87:core/a7hal.c  **** 
  88:core/a7hal.c  **** /*****************************************************************************
  89:core/a7hal.c  ****  *
  90:core/a7hal.c  ****  * Description:
  91:core/a7hal.c  ****  *    Routine called by timer irq to execute timer ISR and to acknowledge the 
  92:core/a7hal.c  ****  *    interrupt. 
  93:core/a7hal.c  ****  *
  94:core/a7hal.c  ****  ****************************************************************************/
  95:core/a7hal.c  **** void
ARM GAS  /cygdrive/c/DOCUME~1/ANDERS~1/LOKALA~1/Temp/ccUyM2as.s 			page 3


  96:core/a7hal.c  **** timerIsr_oshal(void)
  97:core/a7hal.c  **** {
  16              		.loc 1 97 0
  17              		@ Function supports interworking.
  18              		@ args = 0, pretend = 0, frame = 0
  19              		@ frame_needed = 1, uses_anonymous_args = 0
  98:core/a7hal.c  ****   TIMER0_IR   = 0xff;        /* reset all IRQ flags             */
  20              		.loc 1 98 0
  21 0000 28309FE5 		ldr	r3, .L2
  22              		.loc 1 97 0
  23 0004 0DC0A0E1 		mov	ip, sp
  24              	.LCFI0:
  25              		.loc 1 98 0
  26 0008 FF20A0E3 		mov	r2, #255
  27              		.loc 1 97 0
  28 000c 00D82DE9 		stmfd	sp!, {fp, ip, lr, pc}
  29              	.LCFI1:
  30              		.loc 1 98 0
  31 0010 002083E5 		str	r2, [r3, #0]
  32              		.loc 1 97 0
  33 0014 04B04CE2 		sub	fp, ip, #4
  34              	.LCFI2:
  99:core/a7hal.c  ****   osTick();                  /* call OS tick handler            */
  35              		.loc 1 99 0
  36 0018 FEFFFFEB 		bl	osTick
 100:core/a7hal.c  ****   VICVectAddr = 0x0;         /* dummy write to end interrupt    */
  37              		.loc 1 100 0
  38 001c 10309FE5 		ldr	r3, .L2+4
  39 0020 0020A0E3 		mov	r2, #0
  40 0024 002083E5 		str	r2, [r3, #0]
  41 0028 00689DE8 		ldmfd	sp, {fp, sp, lr}
  42 002c 1EFF2FE1 		bx	lr
  43              	.L3:
  44              		.align	2
  45              	.L2:
  46 0030 004000E0 		.word	-536854528
  47 0034 30F0FFFF 		.word	-4048
  48              	.LFE2:
  49              		.size	timerIsr_oshal, .-timerIsr_oshal
  50              		.align	2
  51              		.global	stkFrameInit_oshal
  52              		.type	stkFrameInit_oshal, %function
  53              	stkFrameInit_oshal:
  54              	.LFB3:
 101:core/a7hal.c  **** 
 102:core/a7hal.c  **** }
 103:core/a7hal.c  **** /******************************************************************************
 104:core/a7hal.c  ****  * Implementation of public functions
 105:core/a7hal.c  ****  *****************************************************************************/
 106:core/a7hal.c  **** 
 107:core/a7hal.c  **** 
 108:core/a7hal.c  **** /*****************************************************************************
 109:core/a7hal.c  ****  *
 110:core/a7hal.c  ****  * Description:
 111:core/a7hal.c  ****  *    Initializes a stack frame 
 112:core/a7hal.c  ****  *
 113:core/a7hal.c  ****  * Params:
ARM GAS  /cygdrive/c/DOCUME~1/ANDERS~1/LOKALA~1/Temp/ccUyM2as.s 			page 4


 114:core/a7hal.c  ****  *    [in] task     - Address of process entry point 
 115:core/a7hal.c  ****  * 
 116:core/a7hal.c  ****  *               Params (callback):
 117:core/a7hal.c  ****  *                  arg - 
 118:core/a7hal.c  ****  *    [in] ptos     - Pointer to top of stack 
 119:core/a7hal.c  ****  *    [in] pParam   - Parameter to pass to process entry (a void pointer) 
 120:core/a7hal.c  ****  *    [in] onReturn - Address of return address, if process returns (only 
 121:core/a7hal.c  ****  *                     allowed for cyclic processes) 
 122:core/a7hal.c  ****  *
 123:core/a7hal.c  ****  * Returns:
 124:core/a7hal.c  ****  *    Stack pointer after initialization (new top-of-stack) 
 125:core/a7hal.c  ****  *
 126:core/a7hal.c  ****  ****************************************************************************/
 127:core/a7hal.c  **** void*
 128:core/a7hal.c  **** stkFrameInit_oshal(void  (*task) (void* arg),
 129:core/a7hal.c  ****                    void* ptos,
 130:core/a7hal.c  ****                    void* pParam,
 131:core/a7hal.c  ****                    void  (*onReturn) (void))
 132:core/a7hal.c  **** {
  55              		.loc 1 132 0
  56              		@ Function supports interworking.
  57              		@ args = 0, pretend = 0, frame = 0
  58              		@ frame_needed = 0, uses_anonymous_args = 0
  59              		@ link register save eliminated.
 133:core/a7hal.c  ****   tU32 *stk;
 134:core/a7hal.c  **** 
 135:core/a7hal.c  ****   stk = (tU32 *)ptos;
 136:core/a7hal.c  ****   *(--stk) = (tU32)task;            /* PC (R15) = Entry point                      */
  60              		.loc 1 136 0
  61 0038 04C041E2 		sub	ip, r1, #4
  62 003c 040001E5 		str	r0, [r1, #-4]
 137:core/a7hal.c  ****   *(--stk) = (tU32)onReturn;        /* LR (R14) = Return address                   */
  63              		.loc 1 137 0
  64 0040 04302CE5 		str	r3, [ip, #-4]!
 138:core/a7hal.c  ****   *(--stk) = (tU32)0xCCCCCCCCL;     /* IP (R12)                                    */
  65              		.loc 1 138 0
  66 0044 6C309FE5 		ldr	r3, .L5
  67 0048 04302CE5 		str	r3, [ip, #-4]!
 139:core/a7hal.c  ****   *(--stk) = (tU32)0xBBBBBBBBL;     /* FP (R11)                                    */
  68              		.loc 1 139 0
  69 004c 68309FE5 		ldr	r3, .L5+4
  70 0050 04302CE5 		str	r3, [ip, #-4]!
 140:core/a7hal.c  ****   *(--stk) = (tU32)0xAAAAAAAAL;     /* R10                                         */
  71              		.loc 1 140 0
  72 0054 64309FE5 		ldr	r3, .L5+8
  73 0058 04302CE5 		str	r3, [ip, #-4]!
 141:core/a7hal.c  ****   *(--stk) = (tU32)0x99999999L;     /* R9                                          */
  74              		.loc 1 141 0
  75 005c 60309FE5 		ldr	r3, .L5+12
  76 0060 04302CE5 		str	r3, [ip, #-4]!
 142:core/a7hal.c  ****   *(--stk) = (tU32)0x88888888L;     /* R8                                          */
  77              		.loc 1 142 0
  78 0064 5C309FE5 		ldr	r3, .L5+16
  79 0068 04302CE5 		str	r3, [ip, #-4]!
 143:core/a7hal.c  ****   *(--stk) = (tU32)0x77777777L;     /* R7                                          */
  80              		.loc 1 143 0
  81 006c 58309FE5 		ldr	r3, .L5+20
ARM GAS  /cygdrive/c/DOCUME~1/ANDERS~1/LOKALA~1/Temp/ccUyM2as.s 			page 5


  82 0070 04302CE5 		str	r3, [ip, #-4]!
 144:core/a7hal.c  ****   *(--stk) = (tU32)0x66666666L;     /* R6                                          */
  83              		.loc 1 144 0
  84 0074 54309FE5 		ldr	r3, .L5+24
  85 0078 04302CE5 		str	r3, [ip, #-4]!
 145:core/a7hal.c  ****   *(--stk) = (tU32)0x55555555L;     /* R5                                          */
  86              		.loc 1 145 0
  87 007c 50309FE5 		ldr	r3, .L5+28
  88 0080 04302CE5 		str	r3, [ip, #-4]!
 146:core/a7hal.c  ****   *(--stk) = (tU32)0x44444444L;     /* R4                                          */
  89              		.loc 1 146 0
  90 0084 4C309FE5 		ldr	r3, .L5+32
  91 0088 04302CE5 		str	r3, [ip, #-4]!
 147:core/a7hal.c  ****   *(--stk) = (tU32)0x33333333L;     /* R3                                          */
  92              		.loc 1 147 0
  93 008c 48309FE5 		ldr	r3, .L5+36
  94 0090 04302CE5 		str	r3, [ip, #-4]!
 148:core/a7hal.c  ****   *(--stk) = (tU32)0x22222222L;     /* R2                                          */
  95              		.loc 1 148 0
  96 0094 44309FE5 		ldr	r3, .L5+40
  97 0098 04302CE5 		str	r3, [ip, #-4]!
 149:core/a7hal.c  ****   *(--stk) = (tU32)0x11111111L;     /* R1                                          */
  98              		.loc 1 149 0
  99 009c 40309FE5 		ldr	r3, .L5+44
 100 00a0 04302CE5 		str	r3, [ip, #-4]!
 150:core/a7hal.c  ****   *(--stk) = (tU32)pParam;          /* R0 = argument to process                    */
 101              		.loc 1 150 0
 102 00a4 04202CE5 		str	r2, [ip, #-4]!
 151:core/a7hal.c  ****   *(--stk) = (tU32)(SYS_MODE | THUMB_MODE); /* CPSR (THUMB & Enable IRQ/FIQ)       */
 103              		.loc 1 151 0
 104 00a8 3F30A0E3 		mov	r3, #63
 105 00ac 04302CE5 		str	r3, [ip, #-4]!
 152:core/a7hal.c  **** 
 153:core/a7hal.c  ****   return((void *)stk);
 154:core/a7hal.c  **** }
 106              		.loc 1 154 0
 107 00b0 0C00A0E1 		mov	r0, ip
 108              		.loc 1 132 0
 109              		@ lr needed for prologue
 110              		.loc 1 154 0
 111 00b4 1EFF2FE1 		bx	lr
 112              	.L6:
 113              		.align	2
 114              	.L5:
 115 00b8 CCCCCCCC 		.word	-858993460
 116 00bc BBBBBBBB 		.word	-1145324613
 117 00c0 AAAAAAAA 		.word	-1431655766
 118 00c4 99999999 		.word	-1717986919
 119 00c8 88888888 		.word	-2004318072
 120 00cc 77777777 		.word	2004318071
 121 00d0 66666666 		.word	1717986918
 122 00d4 55555555 		.word	1431655765
 123 00d8 44444444 		.word	1145324612
 124 00dc 33333333 		.word	858993459
 125 00e0 22222222 		.word	572662306
 126 00e4 11111111 		.word	286331153
 127              	.LFE3:
ARM GAS  /cygdrive/c/DOCUME~1/ANDERS~1/LOKALA~1/Temp/ccUyM2as.s 			page 6


 128              		.size	stkFrameInit_oshal, .-stkFrameInit_oshal
 129              		.align	2
 130              		.global	halDisableInterrupts_oshal
 131              		.type	halDisableInterrupts_oshal, %function
 132              	halDisableInterrupts_oshal:
 133              	.LFB4:
 155:core/a7hal.c  **** 
 156:core/a7hal.c  **** /*****************************************************************************
 157:core/a7hal.c  ****  *
 158:core/a7hal.c  ****  * Description:
 159:core/a7hal.c  ****  *    Disable interrupts 
 160:core/a7hal.c  ****  *
 161:core/a7hal.c  ****  * Returns:
 162:core/a7hal.c  ****  *    The current status register, before disabling interrupts. 
 163:core/a7hal.c  ****  *
 164:core/a7hal.c  ****  ****************************************************************************/
 165:core/a7hal.c  **** tU32
 166:core/a7hal.c  **** halDisableInterrupts_oshal(void)
 167:core/a7hal.c  **** {
 134              		.loc 1 167 0
 135              		@ Function supports interworking.
 136              		@ args = 0, pretend = 0, frame = 0
 137              		@ frame_needed = 0, uses_anonymous_args = 0
 138              		@ link register save eliminated.
 139              		@ lr needed for prologue
 168:core/a7hal.c  ****   tSR returnReg;
 169:core/a7hal.c  **** 
 170:core/a7hal.c  ****   asm volatile ("halDisableInterrupts_1_oshal: mrs %0, cpsr  \n\t"
 171:core/a7hal.c  ****                 "orr r1, %0, #0xC0                           \n\t"
 172:core/a7hal.c  ****                 "msr cpsr_c, r1                              \n\t"
 173:core/a7hal.c  ****                 "mrs r1, cpsr                                \n\t"
 174:core/a7hal.c  ****                 "and r1, r1, #0xC0                           \n\t"
 175:core/a7hal.c  ****                 "cmp r1, #0xC0                               \n\t"
 176:core/a7hal.c  ****                 "bne halDisableInterrupts_1_oshal            \n\t"
 177:core/a7hal.c  ****                 : "=r"(returnReg)
 178:core/a7hal.c  ****                 :
 179:core/a7hal.c  ****                 : "r1"
 180:core/a7hal.c  ****                );
 181:core/a7hal.c  ****   return returnReg;
 182:core/a7hal.c  **** }
 140              		.loc 1 182 0
 141 00e8 00000FE1 		halDisableInterrupts_1_oshal: mrs r0, cpsr  
 142 00ec C01080E3 		orr r1, r0, #0xC0                           
 143 00f0 01F021E1 		msr cpsr_c, r1                              
 144 00f4 00100FE1 		mrs r1, cpsr                                
 145 00f8 C01001E2 		and r1, r1, #0xC0                           
 146 00fc C00051E3 		cmp r1, #0xC0                               
 147 0100 3800001A 		bne halDisableInterrupts_1_oshal            
 148              		
 149 0104 1EFF2FE1 		bx	lr
 150              	.LFE4:
 151              		.size	halDisableInterrupts_oshal, .-halDisableInterrupts_oshal
 152              		.align	2
 153              		.global	halEnableInterrupts_oshal
 154              		.type	halEnableInterrupts_oshal, %function
 155              	halEnableInterrupts_oshal:
 156              	.LFB5:
ARM GAS  /cygdrive/c/DOCUME~1/ANDERS~1/LOKALA~1/Temp/ccUyM2as.s 			page 7


 183:core/a7hal.c  **** 
 184:core/a7hal.c  **** /*****************************************************************************
 185:core/a7hal.c  ****  *
 186:core/a7hal.c  ****  * Description:
 187:core/a7hal.c  ****  *    Enable interrupts. 
 188:core/a7hal.c  ****  *
 189:core/a7hal.c  ****  ****************************************************************************/
 190:core/a7hal.c  **** void
 191:core/a7hal.c  **** halEnableInterrupts_oshal(void)
 192:core/a7hal.c  **** {
 157              		.loc 1 192 0
 158              		@ Function supports interworking.
 159              		@ args = 0, pretend = 0, frame = 0
 160              		@ frame_needed = 0, uses_anonymous_args = 0
 161              		@ link register save eliminated.
 162              		@ lr needed for prologue
 193:core/a7hal.c  ****   asm volatile ("mrs r3, cpsr       \n\t"                          
 163              		.loc 1 193 0
 164 0108 00300FE1 		mrs r3, cpsr       
 165 010c C030C3E3 		bic r3, r3, #0xC0  
 166 0110 03F029E1 		msr cpsr, r3       
 167              		
 168 0114 1EFF2FE1 		bx	lr
 169              	.LFE5:
 170              		.size	halEnableInterrupts_oshal, .-halEnableInterrupts_oshal
 171              		.align	2
 172              		.global	halRestoreInterrupts_oshal
 173              		.type	halRestoreInterrupts_oshal, %function
 174              	halRestoreInterrupts_oshal:
 175              	.LFB6:
 194:core/a7hal.c  ****                 "bic r3, r3, #0xC0  \n\t"                      
 195:core/a7hal.c  ****                 "msr cpsr, r3       \n\t"                           
 196:core/a7hal.c  ****                 :                                       
 197:core/a7hal.c  ****                 :                                       
 198:core/a7hal.c  ****                 : "r3"                                  
 199:core/a7hal.c  ****                );
 200:core/a7hal.c  **** }
 201:core/a7hal.c  **** 
 202:core/a7hal.c  **** /*****************************************************************************
 203:core/a7hal.c  ****  *
 204:core/a7hal.c  ****  * Description:
 205:core/a7hal.c  ****  *    Restore interrupt state. 
 206:core/a7hal.c  ****  *
 207:core/a7hal.c  ****  * Params:
 208:core/a7hal.c  ****  *    [in] restoreValue - The value of the new status register. 
 209:core/a7hal.c  ****  *
 210:core/a7hal.c  ****  ****************************************************************************/
 211:core/a7hal.c  **** void
 212:core/a7hal.c  **** halRestoreInterrupts_oshal(tU32 restoreValue)
 213:core/a7hal.c  **** {
 176              		.loc 1 213 0
 177              		@ Function supports interworking.
 178              		@ args = 0, pretend = 0, frame = 0
 179              		@ frame_needed = 0, uses_anonymous_args = 0
 180              		@ link register save eliminated.
 181              		@ lr needed for prologue
 214:core/a7hal.c  ****   asm volatile ("msr cpsr_c, %0  \n\t"
ARM GAS  /cygdrive/c/DOCUME~1/ANDERS~1/LOKALA~1/Temp/ccUyM2as.s 			page 8


 182              		.loc 1 214 0
 183 0118 00F021E1 		msr cpsr_c, r0  
 184              		
 185 011c 1EFF2FE1 		bx	lr
 186              	.LFE6:
 187              		.size	halRestoreInterrupts_oshal, .-halRestoreInterrupts_oshal
 188              		.align	2
 189              		.global	initTimer_oshal
 190              		.type	initTimer_oshal, %function
 191              	initTimer_oshal:
 192              	.LFB7:
 215:core/a7hal.c  ****                 :
 216:core/a7hal.c  ****                 : "r" (restoreValue)
 217:core/a7hal.c  ****                 : "r1"
 218:core/a7hal.c  ****                );
 219:core/a7hal.c  **** }
 220:core/a7hal.c  **** 
 221:core/a7hal.c  **** /*****************************************************************************
 222:core/a7hal.c  ****  *
 223:core/a7hal.c  ****  * Description:
 224:core/a7hal.c  ****  *    Setup the timer 
 225:core/a7hal.c  ****  *
 226:core/a7hal.c  ****  ****************************************************************************/
 227:core/a7hal.c  **** void
 228:core/a7hal.c  **** initTimer_oshal(void)
 229:core/a7hal.c  **** {
 193              		.loc 1 229 0
 194              		@ Function supports interworking.
 195              		@ args = 0, pretend = 0, frame = 0
 196              		@ frame_needed = 0, uses_anonymous_args = 0
 197              		@ link register save eliminated.
 230:core/a7hal.c  **** 
 231:core/a7hal.c  ****   /* Setup timer */
 232:core/a7hal.c  ****   TIMER0_TCR = 0x01;
 198              		.loc 1 232 0
 199 0120 78309FE5 		ldr	r3, .L11
 200 0124 0120A0E3 		mov	r2, #1
 201 0128 002083E5 		str	r2, [r3, #0]
 233:core/a7hal.c  ****   TIMER0_PR  = PRESCALER;    /* Prescale register; prescale with PR + 1   */
 202              		.loc 1 233 0
 203 012c 012042E2 		sub	r2, r2, #1
 204 0130 083083E2 		add	r3, r3, #8
 205 0134 002083E5 		str	r2, [r3, #0]
 234:core/a7hal.c  ****   TIMER0_MR0 = TICKS;        /* Peripheral clock rate / TICKS = tick rate */
 206              		.loc 1 234 0
 207 0138 64209FE5 		ldr	r2, .L11+4
 208 013c 0C3083E2 		add	r3, r3, #12
 209 0140 002083E5 		str	r2, [r3, #0]
 235:core/a7hal.c  ****   TIMER0_IR  = 0xff;         /* reset all flags before enable IRQs        */
 210              		.loc 1 235 0
 211 0144 FF20A0E3 		mov	r2, #255
 212 0148 183043E2 		sub	r3, r3, #24
 213 014c 002083E5 		str	r2, [r3, #0]
 236:core/a7hal.c  ****   TIMER0_MCR = 0x03;
 214              		.loc 1 236 0
 215 0150 FC2042E2 		sub	r2, r2, #252
 216 0154 143083E2 		add	r3, r3, #20
ARM GAS  /cygdrive/c/DOCUME~1/ANDERS~1/LOKALA~1/Temp/ccUyM2as.s 			page 9


 217 0158 002083E5 		str	r2, [r3, #0]
 237:core/a7hal.c  **** 
 238:core/a7hal.c  ****   /* Register the general interrupt handler in the OS as the IRQ handler */
 239:core/a7hal.c  ****   pISR_IRQ    = (tU32)generalIRQ_oshal;
 240:core/a7hal.c  ****   
 241:core/a7hal.c  ****   /* Setup VIC */
 242:core/a7hal.c  ****   VICIntSelect &= ~0x10;
 218              		.loc 1 242 0
 219 015c 44209FE5 		ldr	r2, .L11+8
 220 0160 003092E5 		ldr	r3, [r2, #0]
 221 0164 1030C3E3 		bic	r3, r3, #16
 222 0168 043082E4 		str	r3, [r2], #4
 243:core/a7hal.c  ****   VICIntEnable  = VICIntEnable | 0x10;
 223              		.loc 1 243 0
 224 016c 003092E5 		ldr	r3, [r2, #0]
 225 0170 103083E3 		orr	r3, r3, #16
 226 0174 003082E5 		str	r3, [r2, #0]
 227              		.loc 1 239 0
 228 0178 2C209FE5 		ldr	r2, .L11+12
 229 017c D131A0E3 		mov	r3, #1073741876
 230 0180 002083E5 		str	r2, [r3, #0]
 244:core/a7hal.c  ****   VICVectAddr4  = (tU32)timerIsr_oshal;
 231              		.loc 1 244 0
 232 0184 24209FE5 		ldr	r2, .L11+16
 233 0188 24309FE5 		ldr	r3, .L11+20
 234 018c 002083E5 		str	r2, [r3, #0]
 245:core/a7hal.c  ****   VICVectCntl4  = 0x24;
 235              		.loc 1 245 0
 236 0190 2420A0E3 		mov	r2, #36
 237 0194 013C83E2 		add	r3, r3, #256
 238              		.loc 1 229 0
 239              		@ lr needed for prologue
 240              		.loc 1 245 0
 241 0198 002083E5 		str	r2, [r3, #0]
 242 019c 1EFF2FE1 		bx	lr
 243              	.L12:
 244              		.align	2
 245              	.L11:
 246 01a0 044000E0 		.word	-536854524
 247 01a4 C0270900 		.word	600000
 248 01a8 0CF0FFFF 		.word	-4084
 249 01ac 00000000 		.word	generalIRQ_oshal
 250 01b0 00000000 		.word	timerIsr_oshal
 251 01b4 10F1FFFF 		.word	-3824
 252              	.LFE7:
 253              		.size	initTimer_oshal, .-initTimer_oshal
 254              		.align	2
 255              		.global	handleIRQs_oshal
 256              		.type	handleIRQs_oshal, %function
 257              	handleIRQs_oshal:
 258              	.LFB8:
 246:core/a7hal.c  **** }
 247:core/a7hal.c  **** 
 248:core/a7hal.c  **** /*****************************************************************************
 249:core/a7hal.c  ****  *
 250:core/a7hal.c  ****  * Description:
 251:core/a7hal.c  ****  *    The routine is called whenever an IRQ occurs, and it should dispatch the 
ARM GAS  /cygdrive/c/DOCUME~1/ANDERS~1/LOKALA~1/Temp/ccUyM2as.s 			page 10


 252:core/a7hal.c  ****  *    correct IRQ handler. 
 253:core/a7hal.c  ****  *
 254:core/a7hal.c  ****  ****************************************************************************/
 255:core/a7hal.c  **** void
 256:core/a7hal.c  **** handleIRQs_oshal(void)
 257:core/a7hal.c  **** {
 259              		.loc 1 257 0
 260              		@ Function supports interworking.
 261              		@ args = 0, pretend = 0, frame = 0
 262              		@ frame_needed = 1, uses_anonymous_args = 0
 263 01b8 0DC0A0E1 		mov	ip, sp
 264              	.LCFI3:
 265 01bc 00D82DE9 		stmfd	sp!, {fp, ip, lr, pc}
 266              	.LCFI4:
 267 01c0 04B04CE2 		sub	fp, ip, #4
 268              	.LCFI5:
 269              	.L19:
 258:core/a7hal.c  ****   void (*pfnct)(void);                   /* pfnct is declared to be a function pointer      */
 259:core/a7hal.c  ****   
 260:core/a7hal.c  ****   pfnct = (void (*)(void))VICVectAddr;   /* read interrupt vector from the VIC              */
 270              		.loc 1 260 0
 271 01c4 1C309FE5 		ldr	r3, .L20
 272 01c8 003093E5 		ldr	r3, [r3, #0]
 261:core/a7hal.c  **** 
 262:core/a7hal.c  ****   /* loop through all currently active interrupts */
 263:core/a7hal.c  ****   while (pfnct != (void (*)(void))0)
 264:core/a7hal.c  ****   {
 265:core/a7hal.c  ****     (*pfnct)();                          /* call the registered ISR for interrupting device */
 266:core/a7hal.c  ****     pfnct = (void (*)(void))VICVectAddr; /* read next interrupt vector from the VIC         */
 273              		.loc 1 266 0
 274 01cc 000053E3 		cmp	r3, #0
 275 01d0 7600000A 		beq	.L18
 276              		.loc 1 265 0
 277 01d4 0FE0A0E1 		mov	lr, pc
 278 01d8 13FF2FE1 		bx	r3
 279 01dc 6F0000EA 		b	.L19
 280              	.L18:
 281              		.loc 1 266 0
 282 01e0 00689DE8 		ldmfd	sp, {fp, sp, lr}
 283 01e4 1EFF2FE1 		bx	lr
 284              	.L21:
 285              		.align	2
 286              	.L20:
 287 01e8 30F0FFFF 		.word	-4048
 288              	.LFE8:
 289              		.size	handleIRQs_oshal, .-handleIRQs_oshal
 290              		.section	.debug_frame,"",%progbits
 291              	.Lframe0:
 292 0000 0C000000 		.4byte	.LECIE0-.LSCIE0
 293              	.LSCIE0:
 294 0004 FFFFFFFF 		.4byte	0xffffffff
 295 0008 01       		.byte	0x1
 296 0009 00       		.ascii	"\000"
 297 000a 01       		.uleb128 0x1
 298 000b 7C       		.sleb128 -4
 299 000c 0E       		.byte	0xe
 300 000d 0C       		.byte	0xc
ARM GAS  /cygdrive/c/DOCUME~1/ANDERS~1/LOKALA~1/Temp/ccUyM2as.s 			page 11


 301 000e 0D       		.uleb128 0xd
 302 000f 00       		.uleb128 0x0
 303              		.align	2
 304              	.LECIE0:
 305              	.LSFDE0:
 306 0010 1C000000 		.4byte	.LEFDE0-.LASFDE0
 307              	.LASFDE0:
 308 0014 00000000 		.4byte	.Lframe0
 309 0018 00000000 		.4byte	.LFB2
 310 001c 38000000 		.4byte	.LFE2-.LFB2
 311 0020 48       		.byte	0x4
 312              		.4byte	.LCFI0-.LFB2
 313 0021 0D       		.byte	0xd
 314 0022 0C       		.uleb128 0xc
 315 0023 48       		.byte	0x4
 316              		.4byte	.LCFI1-.LCFI0
 317 0024 8E       		.byte	0x8e
 318 0025 02       		.uleb128 0x2
 319 0026 8D       		.byte	0x8d
 320 0027 03       		.uleb128 0x3
 321 0028 8B       		.byte	0x8b
 322 0029 04       		.uleb128 0x4
 323 002a 48       		.byte	0x4
 324              		.4byte	.LCFI2-.LCFI1
 325 002b 0C       		.byte	0xc
 326 002c 0B       		.uleb128 0xb
 327 002d 04       		.uleb128 0x4
 328 002e 0000     		.align	2
 329              	.LEFDE0:
 330              	.LSFDE2:
 331 0030 0C000000 		.4byte	.LEFDE2-.LASFDE2
 332              	.LASFDE2:
 333 0034 00000000 		.4byte	.Lframe0
 334 0038 38000000 		.4byte	.LFB3
 335 003c B0000000 		.4byte	.LFE3-.LFB3
 336              		.align	2
 337              	.LEFDE2:
 338              	.LSFDE4:
 339 0040 0C000000 		.4byte	.LEFDE4-.LASFDE4
 340              	.LASFDE4:
 341 0044 00000000 		.4byte	.Lframe0
 342 0048 E8000000 		.4byte	.LFB4
 343 004c 20000000 		.4byte	.LFE4-.LFB4
 344              		.align	2
 345              	.LEFDE4:
 346              	.LSFDE6:
 347 0050 0C000000 		.4byte	.LEFDE6-.LASFDE6
 348              	.LASFDE6:
 349 0054 00000000 		.4byte	.Lframe0
 350 0058 08010000 		.4byte	.LFB5
 351 005c 10000000 		.4byte	.LFE5-.LFB5
 352              		.align	2
 353              	.LEFDE6:
 354              	.LSFDE8:
 355 0060 0C000000 		.4byte	.LEFDE8-.LASFDE8
 356              	.LASFDE8:
 357 0064 00000000 		.4byte	.Lframe0
ARM GAS  /cygdrive/c/DOCUME~1/ANDERS~1/LOKALA~1/Temp/ccUyM2as.s 			page 12


 358 0068 18010000 		.4byte	.LFB6
 359 006c 08000000 		.4byte	.LFE6-.LFB6
 360              		.align	2
 361              	.LEFDE8:
 362              	.LSFDE10:
 363 0070 0C000000 		.4byte	.LEFDE10-.LASFDE10
 364              	.LASFDE10:
 365 0074 00000000 		.4byte	.Lframe0
 366 0078 20010000 		.4byte	.LFB7
 367 007c 98000000 		.4byte	.LFE7-.LFB7
 368              		.align	2
 369              	.LEFDE10:
 370              	.LSFDE12:
 371 0080 1C000000 		.4byte	.LEFDE12-.LASFDE12
 372              	.LASFDE12:
 373 0084 00000000 		.4byte	.Lframe0
 374 0088 B8010000 		.4byte	.LFB8
 375 008c 34000000 		.4byte	.LFE8-.LFB8
 376 0090 44       		.byte	0x4
 377              		.4byte	.LCFI3-.LFB8
 378 0091 0D       		.byte	0xd
 379 0092 0C       		.uleb128 0xc
 380 0093 44       		.byte	0x4
 381              		.4byte	.LCFI4-.LCFI3
 382 0094 8E       		.byte	0x8e
 383 0095 02       		.uleb128 0x2
 384 0096 8D       		.byte	0x8d
 385 0097 03       		.uleb128 0x3
 386 0098 8B       		.byte	0x8b
 387 0099 04       		.uleb128 0x4
 388 009a 44       		.byte	0x4
 389              		.4byte	.LCFI5-.LCFI4
 390 009b 0C       		.byte	0xc
 391 009c 0B       		.uleb128 0xb
 392 009d 04       		.uleb128 0x4
 393 009e 0000     		.align	2
 394              	.LEFDE12:
 395              		.file 2 "core/../api/general.h"
 396              		.text
 397              	.Letext0:
 398              		.section	.debug_info
 399 0000 85010000 		.4byte	0x185
 400 0004 0200     		.2byte	0x2
 401 0006 00000000 		.4byte	.Ldebug_abbrev0
 402 000a 04       		.byte	0x4
 403 000b 01       		.uleb128 0x1
 404 000c 00000000 		.4byte	.Ldebug_line0
 405 0010 EC010000 		.4byte	.Letext0
 406 0014 00000000 		.4byte	.Ltext0
 407 0018 00000000 		.4byte	.LASF19
 408 001c 01       		.byte	0x1
 409 001d 3F010000 		.4byte	.LASF20
 410 0021 63000000 		.4byte	.LASF21
 411 0025 02       		.uleb128 0x2
 412 0026 02010000 		.4byte	.LASF0
 413 002a 01       		.byte	0x1
 414 002b 08       		.byte	0x8
ARM GAS  /cygdrive/c/DOCUME~1/ANDERS~1/LOKALA~1/Temp/ccUyM2as.s 			page 13


 415 002c 02       		.uleb128 0x2
 416 002d 2C010000 		.4byte	.LASF1
 417 0031 02       		.byte	0x2
 418 0032 07       		.byte	0x7
 419 0033 03       		.uleb128 0x3
 420 0034 94010000 		.4byte	.LASF22
 421 0038 02       		.byte	0x2
 422 0039 4A       		.byte	0x4a
 423 003a 3E000000 		.4byte	0x3e
 424 003e 02       		.uleb128 0x2
 425 003f 67010000 		.4byte	.LASF2
 426 0043 04       		.byte	0x4
 427 0044 07       		.byte	0x7
 428 0045 02       		.uleb128 0x2
 429 0046 A8010000 		.4byte	.LASF3
 430 004a 01       		.byte	0x1
 431 004b 06       		.byte	0x6
 432 004c 02       		.uleb128 0x2
 433 004d 99010000 		.4byte	.LASF4
 434 0051 02       		.byte	0x2
 435 0052 05       		.byte	0x5
 436 0053 04       		.uleb128 0x4
 437 0054 696E7400 		.ascii	"int\000"
 438 0058 04       		.byte	0x4
 439 0059 05       		.byte	0x5
 440 005a 02       		.uleb128 0x2
 441 005b 1A010000 		.4byte	.LASF5
 442 005f 04       		.byte	0x4
 443 0060 07       		.byte	0x7
 444 0061 05       		.uleb128 0x5
 445 0062 04       		.byte	0x4
 446 0063 06       		.uleb128 0x6
 447 0064 01       		.byte	0x1
 448 0065 07       		.uleb128 0x7
 449 0066 04       		.byte	0x4
 450 0067 63000000 		.4byte	0x63
 451 006b 08       		.uleb128 0x8
 452 006c 01       		.byte	0x1
 453 006d B4010000 		.4byte	.LASF13
 454 0071 01       		.byte	0x1
 455 0072 61       		.byte	0x61
 456 0073 01       		.byte	0x1
 457 0074 00000000 		.4byte	.LFB2
 458 0078 38000000 		.4byte	.LFE2
 459 007c 01       		.byte	0x1
 460 007d 5B       		.byte	0x5b
 461 007e 09       		.uleb128 0x9
 462 007f DB000000 		.4byte	0xdb
 463 0083 01       		.byte	0x1
 464 0084 74010000 		.4byte	.LASF10
 465 0088 01       		.byte	0x1
 466 0089 84       		.byte	0x84
 467 008a 01       		.byte	0x1
 468 008b 61000000 		.4byte	0x61
 469 008f 38000000 		.4byte	.LFB3
 470 0093 E8000000 		.4byte	.LFE3
 471 0097 01       		.byte	0x1
ARM GAS  /cygdrive/c/DOCUME~1/ANDERS~1/LOKALA~1/Temp/ccUyM2as.s 			page 14


 472 0098 5D       		.byte	0x5d
 473 0099 0A       		.uleb128 0xa
 474 009a 15000000 		.4byte	.LASF6
 475 009e 01       		.byte	0x1
 476 009f 80       		.byte	0x80
 477 00a0 E7000000 		.4byte	0xe7
 478 00a4 01       		.byte	0x1
 479 00a5 50       		.byte	0x50
 480 00a6 0A       		.uleb128 0xa
 481 00a7 A3010000 		.4byte	.LASF7
 482 00ab 01       		.byte	0x1
 483 00ac 81       		.byte	0x81
 484 00ad 61000000 		.4byte	0x61
 485 00b1 01       		.byte	0x1
 486 00b2 51       		.byte	0x51
 487 00b3 0A       		.uleb128 0xa
 488 00b4 3B000000 		.4byte	.LASF8
 489 00b8 01       		.byte	0x1
 490 00b9 82       		.byte	0x82
 491 00ba 61000000 		.4byte	0x61
 492 00be 01       		.byte	0x1
 493 00bf 52       		.byte	0x52
 494 00c0 0A       		.uleb128 0xa
 495 00c1 0C000000 		.4byte	.LASF9
 496 00c5 01       		.byte	0x1
 497 00c6 83       		.byte	0x83
 498 00c7 65000000 		.4byte	0x65
 499 00cb 01       		.byte	0x1
 500 00cc 53       		.byte	0x53
 501 00cd 0B       		.uleb128 0xb
 502 00ce 73746B00 		.ascii	"stk\000"
 503 00d2 01       		.byte	0x1
 504 00d3 85       		.byte	0x85
 505 00d4 ED000000 		.4byte	0xed
 506 00d8 01       		.byte	0x1
 507 00d9 5C       		.byte	0x5c
 508 00da 00       		.byte	0x0
 509 00db 0C       		.uleb128 0xc
 510 00dc E7000000 		.4byte	0xe7
 511 00e0 01       		.byte	0x1
 512 00e1 0D       		.uleb128 0xd
 513 00e2 61000000 		.4byte	0x61
 514 00e6 00       		.byte	0x0
 515 00e7 07       		.uleb128 0x7
 516 00e8 04       		.byte	0x4
 517 00e9 DB000000 		.4byte	0xdb
 518 00ed 07       		.uleb128 0x7
 519 00ee 04       		.byte	0x4
 520 00ef 33000000 		.4byte	0x33
 521 00f3 09       		.uleb128 0x9
 522 00f4 1A010000 		.4byte	0x11a
 523 00f8 01       		.byte	0x1
 524 00f9 4C010000 		.4byte	.LASF11
 525 00fd 01       		.byte	0x1
 526 00fe A7       		.byte	0xa7
 527 00ff 01       		.byte	0x1
 528 0100 33000000 		.4byte	0x33
ARM GAS  /cygdrive/c/DOCUME~1/ANDERS~1/LOKALA~1/Temp/ccUyM2as.s 			page 15


 529 0104 E8000000 		.4byte	.LFB4
 530 0108 08010000 		.4byte	.LFE4
 531 010c 01       		.byte	0x1
 532 010d 5D       		.byte	0x5d
 533 010e 0E       		.uleb128 0xe
 534 010f 10010000 		.4byte	.LASF12
 535 0113 01       		.byte	0x1
 536 0114 A8       		.byte	0xa8
 537 0115 33000000 		.4byte	0x33
 538 0119 00       		.byte	0x0
 539 011a 08       		.uleb128 0x8
 540 011b 01       		.byte	0x1
 541 011c C3010000 		.4byte	.LASF14
 542 0120 01       		.byte	0x1
 543 0121 C0       		.byte	0xc0
 544 0122 01       		.byte	0x1
 545 0123 08010000 		.4byte	.LFB5
 546 0127 18010000 		.4byte	.LFE5
 547 012b 01       		.byte	0x1
 548 012c 5D       		.byte	0x5d
 549 012d 0F       		.uleb128 0xf
 550 012e 52010000 		.4byte	0x152
 551 0132 01       		.byte	0x1
 552 0133 1A000000 		.4byte	.LASF15
 553 0137 01       		.byte	0x1
 554 0138 D5       		.byte	0xd5
 555 0139 01       		.byte	0x1
 556 013a 18010000 		.4byte	.LFB6
 557 013e 20010000 		.4byte	.LFE6
 558 0142 01       		.byte	0x1
 559 0143 5D       		.byte	0x5d
 560 0144 0A       		.uleb128 0xa
 561 0145 87010000 		.4byte	.LASF16
 562 0149 01       		.byte	0x1
 563 014a D4       		.byte	0xd4
 564 014b 33000000 		.4byte	0x33
 565 014f 01       		.byte	0x1
 566 0150 50       		.byte	0x50
 567 0151 00       		.byte	0x0
 568 0152 08       		.uleb128 0x8
 569 0153 01       		.byte	0x1
 570 0154 42000000 		.4byte	.LASF17
 571 0158 01       		.byte	0x1
 572 0159 E5       		.byte	0xe5
 573 015a 01       		.byte	0x1
 574 015b 20010000 		.4byte	.LFB7
 575 015f B8010000 		.4byte	.LFE7
 576 0163 01       		.byte	0x1
 577 0164 5D       		.byte	0x5d
 578 0165 10       		.uleb128 0x10
 579 0166 01       		.byte	0x1
 580 0167 52000000 		.4byte	.LASF23
 581 016b 01       		.byte	0x1
 582 016c 0101     		.2byte	0x101
 583 016e 01       		.byte	0x1
 584 016f B8010000 		.4byte	.LFB8
 585 0173 EC010000 		.4byte	.LFE8
ARM GAS  /cygdrive/c/DOCUME~1/ANDERS~1/LOKALA~1/Temp/ccUyM2as.s 			page 16


 586 0177 01       		.byte	0x1
 587 0178 5B       		.byte	0x5b
 588 0179 11       		.uleb128 0x11
 589 017a 35000000 		.4byte	.LASF18
 590 017e 01       		.byte	0x1
 591 017f 0201     		.2byte	0x102
 592 0181 65000000 		.4byte	0x65
 593 0185 01       		.byte	0x1
 594 0186 53       		.byte	0x53
 595 0187 00       		.byte	0x0
 596 0188 00       		.byte	0x0
 597              		.section	.debug_abbrev
 598 0000 01       		.uleb128 0x1
 599 0001 11       		.uleb128 0x11
 600 0002 01       		.byte	0x1
 601 0003 10       		.uleb128 0x10
 602 0004 06       		.uleb128 0x6
 603 0005 12       		.uleb128 0x12
 604 0006 01       		.uleb128 0x1
 605 0007 11       		.uleb128 0x11
 606 0008 01       		.uleb128 0x1
 607 0009 25       		.uleb128 0x25
 608 000a 0E       		.uleb128 0xe
 609 000b 13       		.uleb128 0x13
 610 000c 0B       		.uleb128 0xb
 611 000d 03       		.uleb128 0x3
 612 000e 0E       		.uleb128 0xe
 613 000f 1B       		.uleb128 0x1b
 614 0010 0E       		.uleb128 0xe
 615 0011 00       		.byte	0x0
 616 0012 00       		.byte	0x0
 617 0013 02       		.uleb128 0x2
 618 0014 24       		.uleb128 0x24
 619 0015 00       		.byte	0x0
 620 0016 03       		.uleb128 0x3
 621 0017 0E       		.uleb128 0xe
 622 0018 0B       		.uleb128 0xb
 623 0019 0B       		.uleb128 0xb
 624 001a 3E       		.uleb128 0x3e
 625 001b 0B       		.uleb128 0xb
 626 001c 00       		.byte	0x0
 627 001d 00       		.byte	0x0
 628 001e 03       		.uleb128 0x3
 629 001f 16       		.uleb128 0x16
 630 0020 00       		.byte	0x0
 631 0021 03       		.uleb128 0x3
 632 0022 0E       		.uleb128 0xe
 633 0023 3A       		.uleb128 0x3a
 634 0024 0B       		.uleb128 0xb
 635 0025 3B       		.uleb128 0x3b
 636 0026 0B       		.uleb128 0xb
 637 0027 49       		.uleb128 0x49
 638 0028 13       		.uleb128 0x13
 639 0029 00       		.byte	0x0
 640 002a 00       		.byte	0x0
 641 002b 04       		.uleb128 0x4
 642 002c 24       		.uleb128 0x24
ARM GAS  /cygdrive/c/DOCUME~1/ANDERS~1/LOKALA~1/Temp/ccUyM2as.s 			page 17


 643 002d 00       		.byte	0x0
 644 002e 03       		.uleb128 0x3
 645 002f 08       		.uleb128 0x8
 646 0030 0B       		.uleb128 0xb
 647 0031 0B       		.uleb128 0xb
 648 0032 3E       		.uleb128 0x3e
 649 0033 0B       		.uleb128 0xb
 650 0034 00       		.byte	0x0
 651 0035 00       		.byte	0x0
 652 0036 05       		.uleb128 0x5
 653 0037 0F       		.uleb128 0xf
 654 0038 00       		.byte	0x0
 655 0039 0B       		.uleb128 0xb
 656 003a 0B       		.uleb128 0xb
 657 003b 00       		.byte	0x0
 658 003c 00       		.byte	0x0
 659 003d 06       		.uleb128 0x6
 660 003e 15       		.uleb128 0x15
 661 003f 00       		.byte	0x0
 662 0040 27       		.uleb128 0x27
 663 0041 0C       		.uleb128 0xc
 664 0042 00       		.byte	0x0
 665 0043 00       		.byte	0x0
 666 0044 07       		.uleb128 0x7
 667 0045 0F       		.uleb128 0xf
 668 0046 00       		.byte	0x0
 669 0047 0B       		.uleb128 0xb
 670 0048 0B       		.uleb128 0xb
 671 0049 49       		.uleb128 0x49
 672 004a 13       		.uleb128 0x13
 673 004b 00       		.byte	0x0
 674 004c 00       		.byte	0x0
 675 004d 08       		.uleb128 0x8
 676 004e 2E       		.uleb128 0x2e
 677 004f 00       		.byte	0x0
 678 0050 3F       		.uleb128 0x3f
 679 0051 0C       		.uleb128 0xc
 680 0052 03       		.uleb128 0x3
 681 0053 0E       		.uleb128 0xe
 682 0054 3A       		.uleb128 0x3a
 683 0055 0B       		.uleb128 0xb
 684 0056 3B       		.uleb128 0x3b
 685 0057 0B       		.uleb128 0xb
 686 0058 27       		.uleb128 0x27
 687 0059 0C       		.uleb128 0xc
 688 005a 11       		.uleb128 0x11
 689 005b 01       		.uleb128 0x1
 690 005c 12       		.uleb128 0x12
 691 005d 01       		.uleb128 0x1
 692 005e 40       		.uleb128 0x40
 693 005f 0A       		.uleb128 0xa
 694 0060 00       		.byte	0x0
 695 0061 00       		.byte	0x0
 696 0062 09       		.uleb128 0x9
 697 0063 2E       		.uleb128 0x2e
 698 0064 01       		.byte	0x1
 699 0065 01       		.uleb128 0x1
ARM GAS  /cygdrive/c/DOCUME~1/ANDERS~1/LOKALA~1/Temp/ccUyM2as.s 			page 18


 700 0066 13       		.uleb128 0x13
 701 0067 3F       		.uleb128 0x3f
 702 0068 0C       		.uleb128 0xc
 703 0069 03       		.uleb128 0x3
 704 006a 0E       		.uleb128 0xe
 705 006b 3A       		.uleb128 0x3a
 706 006c 0B       		.uleb128 0xb
 707 006d 3B       		.uleb128 0x3b
 708 006e 0B       		.uleb128 0xb
 709 006f 27       		.uleb128 0x27
 710 0070 0C       		.uleb128 0xc
 711 0071 49       		.uleb128 0x49
 712 0072 13       		.uleb128 0x13
 713 0073 11       		.uleb128 0x11
 714 0074 01       		.uleb128 0x1
 715 0075 12       		.uleb128 0x12
 716 0076 01       		.uleb128 0x1
 717 0077 40       		.uleb128 0x40
 718 0078 0A       		.uleb128 0xa
 719 0079 00       		.byte	0x0
 720 007a 00       		.byte	0x0
 721 007b 0A       		.uleb128 0xa
 722 007c 05       		.uleb128 0x5
 723 007d 00       		.byte	0x0
 724 007e 03       		.uleb128 0x3
 725 007f 0E       		.uleb128 0xe
 726 0080 3A       		.uleb128 0x3a
 727 0081 0B       		.uleb128 0xb
 728 0082 3B       		.uleb128 0x3b
 729 0083 0B       		.uleb128 0xb
 730 0084 49       		.uleb128 0x49
 731 0085 13       		.uleb128 0x13
 732 0086 02       		.uleb128 0x2
 733 0087 0A       		.uleb128 0xa
 734 0088 00       		.byte	0x0
 735 0089 00       		.byte	0x0
 736 008a 0B       		.uleb128 0xb
 737 008b 34       		.uleb128 0x34
 738 008c 00       		.byte	0x0
 739 008d 03       		.uleb128 0x3
 740 008e 08       		.uleb128 0x8
 741 008f 3A       		.uleb128 0x3a
 742 0090 0B       		.uleb128 0xb
 743 0091 3B       		.uleb128 0x3b
 744 0092 0B       		.uleb128 0xb
 745 0093 49       		.uleb128 0x49
 746 0094 13       		.uleb128 0x13
 747 0095 02       		.uleb128 0x2
 748 0096 0A       		.uleb128 0xa
 749 0097 00       		.byte	0x0
 750 0098 00       		.byte	0x0
 751 0099 0C       		.uleb128 0xc
 752 009a 15       		.uleb128 0x15
 753 009b 01       		.byte	0x1
 754 009c 01       		.uleb128 0x1
 755 009d 13       		.uleb128 0x13
 756 009e 27       		.uleb128 0x27
ARM GAS  /cygdrive/c/DOCUME~1/ANDERS~1/LOKALA~1/Temp/ccUyM2as.s 			page 19


 757 009f 0C       		.uleb128 0xc
 758 00a0 00       		.byte	0x0
 759 00a1 00       		.byte	0x0
 760 00a2 0D       		.uleb128 0xd
 761 00a3 05       		.uleb128 0x5
 762 00a4 00       		.byte	0x0
 763 00a5 49       		.uleb128 0x49
 764 00a6 13       		.uleb128 0x13
 765 00a7 00       		.byte	0x0
 766 00a8 00       		.byte	0x0
 767 00a9 0E       		.uleb128 0xe
 768 00aa 34       		.uleb128 0x34
 769 00ab 00       		.byte	0x0
 770 00ac 03       		.uleb128 0x3
 771 00ad 0E       		.uleb128 0xe
 772 00ae 3A       		.uleb128 0x3a
 773 00af 0B       		.uleb128 0xb
 774 00b0 3B       		.uleb128 0x3b
 775 00b1 0B       		.uleb128 0xb
 776 00b2 49       		.uleb128 0x49
 777 00b3 13       		.uleb128 0x13
 778 00b4 00       		.byte	0x0
 779 00b5 00       		.byte	0x0
 780 00b6 0F       		.uleb128 0xf
 781 00b7 2E       		.uleb128 0x2e
 782 00b8 01       		.byte	0x1
 783 00b9 01       		.uleb128 0x1
 784 00ba 13       		.uleb128 0x13
 785 00bb 3F       		.uleb128 0x3f
 786 00bc 0C       		.uleb128 0xc
 787 00bd 03       		.uleb128 0x3
 788 00be 0E       		.uleb128 0xe
 789 00bf 3A       		.uleb128 0x3a
 790 00c0 0B       		.uleb128 0xb
 791 00c1 3B       		.uleb128 0x3b
 792 00c2 0B       		.uleb128 0xb
 793 00c3 27       		.uleb128 0x27
 794 00c4 0C       		.uleb128 0xc
 795 00c5 11       		.uleb128 0x11
 796 00c6 01       		.uleb128 0x1
 797 00c7 12       		.uleb128 0x12
 798 00c8 01       		.uleb128 0x1
 799 00c9 40       		.uleb128 0x40
 800 00ca 0A       		.uleb128 0xa
 801 00cb 00       		.byte	0x0
 802 00cc 00       		.byte	0x0
 803 00cd 10       		.uleb128 0x10
 804 00ce 2E       		.uleb128 0x2e
 805 00cf 01       		.byte	0x1
 806 00d0 3F       		.uleb128 0x3f
 807 00d1 0C       		.uleb128 0xc
 808 00d2 03       		.uleb128 0x3
 809 00d3 0E       		.uleb128 0xe
 810 00d4 3A       		.uleb128 0x3a
 811 00d5 0B       		.uleb128 0xb
 812 00d6 3B       		.uleb128 0x3b
 813 00d7 05       		.uleb128 0x5
ARM GAS  /cygdrive/c/DOCUME~1/ANDERS~1/LOKALA~1/Temp/ccUyM2as.s 			page 20


 814 00d8 27       		.uleb128 0x27
 815 00d9 0C       		.uleb128 0xc
 816 00da 11       		.uleb128 0x11
 817 00db 01       		.uleb128 0x1
 818 00dc 12       		.uleb128 0x12
 819 00dd 01       		.uleb128 0x1
 820 00de 40       		.uleb128 0x40
 821 00df 0A       		.uleb128 0xa
 822 00e0 00       		.byte	0x0
 823 00e1 00       		.byte	0x0
 824 00e2 11       		.uleb128 0x11
 825 00e3 34       		.uleb128 0x34
 826 00e4 00       		.byte	0x0
 827 00e5 03       		.uleb128 0x3
 828 00e6 0E       		.uleb128 0xe
 829 00e7 3A       		.uleb128 0x3a
 830 00e8 0B       		.uleb128 0xb
 831 00e9 3B       		.uleb128 0x3b
 832 00ea 05       		.uleb128 0x5
 833 00eb 49       		.uleb128 0x49
 834 00ec 13       		.uleb128 0x13
 835 00ed 02       		.uleb128 0x2
 836 00ee 0A       		.uleb128 0xa
 837 00ef 00       		.byte	0x0
 838 00f0 00       		.byte	0x0
 839 00f1 00       		.byte	0x0
 840              		.section	.debug_pubnames,"",%progbits
 841 0000 BD000000 		.4byte	0xbd
 842 0004 0200     		.2byte	0x2
 843 0006 00000000 		.4byte	.Ldebug_info0
 844 000a 89010000 		.4byte	0x189
 845 000e 6B000000 		.4byte	0x6b
 846 0012 74696D65 		.ascii	"timerIsr_oshal\000"
 846      72497372 
 846      5F6F7368 
 846      616C00
 847 0021 7E000000 		.4byte	0x7e
 848 0025 73746B46 		.ascii	"stkFrameInit_oshal\000"
 848      72616D65 
 848      496E6974 
 848      5F6F7368 
 848      616C00
 849 0038 F3000000 		.4byte	0xf3
 850 003c 68616C44 		.ascii	"halDisableInterrupts_oshal\000"
 850      69736162 
 850      6C65496E 
 850      74657272 
 850      75707473 
 851 0057 1A010000 		.4byte	0x11a
 852 005b 68616C45 		.ascii	"halEnableInterrupts_oshal\000"
 852      6E61626C 
 852      65496E74 
 852      65727275 
 852      7074735F 
 853 0075 2D010000 		.4byte	0x12d
 854 0079 68616C52 		.ascii	"halRestoreInterrupts_oshal\000"
 854      6573746F 
ARM GAS  /cygdrive/c/DOCUME~1/ANDERS~1/LOKALA~1/Temp/ccUyM2as.s 			page 21


 854      7265496E 
 854      74657272 
 854      75707473 
 855 0094 52010000 		.4byte	0x152
 856 0098 696E6974 		.ascii	"initTimer_oshal\000"
 856      54696D65 
 856      725F6F73 
 856      68616C00 
 857 00a8 65010000 		.4byte	0x165
 858 00ac 68616E64 		.ascii	"handleIRQs_oshal\000"
 858      6C654952 
 858      51735F6F 
 858      7368616C 
 858      00
 859 00bd 00000000 		.4byte	0x0
 860              		.section	.debug_aranges,"",%progbits
 861 0000 1C000000 		.4byte	0x1c
 862 0004 0200     		.2byte	0x2
 863 0006 00000000 		.4byte	.Ldebug_info0
 864 000a 04       		.byte	0x4
 865 000b 00       		.byte	0x0
 866 000c 0000     		.2byte	0x0
 867 000e 0000     		.2byte	0x0
 868 0010 00000000 		.4byte	.Ltext0
 869 0014 EC010000 		.4byte	.Letext0-.Ltext0
 870 0018 00000000 		.4byte	0x0
 871 001c 00000000 		.4byte	0x0
 872              		.section	.debug_str,"MS",%progbits,1
 873              	.LASF19:
 874 0000 474E5520 		.ascii	"GNU C 3.4.3\000"
 874      4320332E 
 874      342E3300 
 875              	.LASF9:
 876 000c 6F6E5265 		.ascii	"onReturn\000"
 876      7475726E 
 876      00
 877              	.LASF6:
 878 0015 7461736B 		.ascii	"task\000"
 878      00
 879              	.LASF15:
 880 001a 68616C52 		.ascii	"halRestoreInterrupts_oshal\000"
 880      6573746F 
 880      7265496E 
 880      74657272 
 880      75707473 
 881              	.LASF18:
 882 0035 70666E63 		.ascii	"pfnct\000"
 882      7400
 883              	.LASF8:
 884 003b 70506172 		.ascii	"pParam\000"
 884      616D00
 885              	.LASF17:
 886 0042 696E6974 		.ascii	"initTimer_oshal\000"
 886      54696D65 
 886      725F6F73 
 886      68616C00 
 887              	.LASF23:
ARM GAS  /cygdrive/c/DOCUME~1/ANDERS~1/LOKALA~1/Temp/ccUyM2as.s 			page 22


 888 0052 68616E64 		.ascii	"handleIRQs_oshal\000"
 888      6C654952 
 888      51735F6F 
 888      7368616C 
 888      00
 889              	.LASF21:
 890 0063 2F637967 		.ascii	"/cygdrive/c/Documents and Settings/Anders Rosvall/M"
 890      64726976 
 890      652F632F 
 890      446F6375 
 890      6D656E74 
 891 0096 696E6120 		.ascii	"ina dokument/Embedded Artists/Products/LPC2148 Educ"
 891      646F6B75 
 891      6D656E74 
 891      2F456D62 
 891      65646465 
 892 00c9 6174696F 		.ascii	"ation Board/Test program/v1.2/pre_emptive_os/core/_"
 892      6E20426F 
 892      6172642F 
 892      54657374 
 892      2070726F 
 893 00fc 6F736861 		.ascii	"oshal\000"
 893      6C00
 894              	.LASF0:
 895 0102 756E7369 		.ascii	"unsigned char\000"
 895      676E6564 
 895      20636861 
 895      7200
 896              	.LASF12:
 897 0110 72657475 		.ascii	"returnReg\000"
 897      726E5265 
 897      6700
 898              	.LASF5:
 899 011a 6C6F6E67 		.ascii	"long unsigned int\000"
 899      20756E73 
 899      69676E65 
 899      6420696E 
 899      7400
 900              	.LASF1:
 901 012c 73686F72 		.ascii	"short unsigned int\000"
 901      7420756E 
 901      7369676E 
 901      65642069 
 901      6E7400
 902              	.LASF20:
 903 013f 636F7265 		.ascii	"core/a7hal.c\000"
 903      2F613768 
 903      616C2E63 
 903      00
 904              	.LASF11:
 905 014c 68616C44 		.ascii	"halDisableInterrupts_oshal\000"
 905      69736162 
 905      6C65496E 
 905      74657272 
 905      75707473 
 906              	.LASF2:
 907 0167 756E7369 		.ascii	"unsigned int\000"
ARM GAS  /cygdrive/c/DOCUME~1/ANDERS~1/LOKALA~1/Temp/ccUyM2as.s 			page 23


 907      676E6564 
 907      20696E74 
 907      00
 908              	.LASF10:
 909 0174 73746B46 		.ascii	"stkFrameInit_oshal\000"
 909      72616D65 
 909      496E6974 
 909      5F6F7368 
 909      616C00
 910              	.LASF16:
 911 0187 72657374 		.ascii	"restoreValue\000"
 911      6F726556 
 911      616C7565 
 911      00
 912              	.LASF22:
 913 0194 74553332 		.ascii	"tU32\000"
 913      00
 914              	.LASF4:
 915 0199 73686F72 		.ascii	"short int\000"
 915      7420696E 
 915      7400
 916              	.LASF7:
 917 01a3 70746F73 		.ascii	"ptos\000"
 917      00
 918              	.LASF3:
 919 01a8 7369676E 		.ascii	"signed char\000"
 919      65642063 
 919      68617200 
 920              	.LASF13:
 921 01b4 74696D65 		.ascii	"timerIsr_oshal\000"
 921      72497372 
 921      5F6F7368 
 921      616C00
 922              	.LASF14:
 923 01c3 68616C45 		.ascii	"halEnableInterrupts_oshal\000"
 923      6E61626C 
 923      65496E74 
 923      65727275 
 923      7074735F 
 924              		.ident	"GCC: (GNU) 3.4.3"
ARM GAS  /cygdrive/c/DOCUME~1/ANDERS~1/LOKALA~1/Temp/ccUyM2as.s 			page 24


DEFINED SYMBOLS
                            *ABS*:00000000 a7hal.c
/cygdrive/c/DOCUME~1/ANDERS~1/LOKALA~1/Temp/ccUyM2as.s:13     .text:00000000 timerIsr_oshal
/cygdrive/c/DOCUME~1/ANDERS~1/LOKALA~1/Temp/ccUyM2as.s:21     .text:00000000 $a
/cygdrive/c/DOCUME~1/ANDERS~1/LOKALA~1/Temp/ccUyM2as.s:46     .text:00000030 $d
/cygdrive/c/DOCUME~1/ANDERS~1/LOKALA~1/Temp/ccUyM2as.s:53     .text:00000038 stkFrameInit_oshal
/cygdrive/c/DOCUME~1/ANDERS~1/LOKALA~1/Temp/ccUyM2as.s:61     .text:00000038 $a
/cygdrive/c/DOCUME~1/ANDERS~1/LOKALA~1/Temp/ccUyM2as.s:115    .text:000000b8 $d
/cygdrive/c/DOCUME~1/ANDERS~1/LOKALA~1/Temp/ccUyM2as.s:132    .text:000000e8 halDisableInterrupts_oshal
/cygdrive/c/DOCUME~1/ANDERS~1/LOKALA~1/Temp/ccUyM2as.s:141    .text:000000e8 halDisableInterrupts_1_oshal
/cygdrive/c/DOCUME~1/ANDERS~1/LOKALA~1/Temp/ccUyM2as.s:141    .text:000000e8 $a
/cygdrive/c/DOCUME~1/ANDERS~1/LOKALA~1/Temp/ccUyM2as.s:155    .text:00000108 halEnableInterrupts_oshal
/cygdrive/c/DOCUME~1/ANDERS~1/LOKALA~1/Temp/ccUyM2as.s:174    .text:00000118 halRestoreInterrupts_oshal
/cygdrive/c/DOCUME~1/ANDERS~1/LOKALA~1/Temp/ccUyM2as.s:191    .text:00000120 initTimer_oshal
/cygdrive/c/DOCUME~1/ANDERS~1/LOKALA~1/Temp/ccUyM2as.s:246    .text:000001a0 $d
/cygdrive/c/DOCUME~1/ANDERS~1/LOKALA~1/Temp/ccUyM2as.s:257    .text:000001b8 handleIRQs_oshal
/cygdrive/c/DOCUME~1/ANDERS~1/LOKALA~1/Temp/ccUyM2as.s:263    .text:000001b8 $a
/cygdrive/c/DOCUME~1/ANDERS~1/LOKALA~1/Temp/ccUyM2as.s:287    .text:000001e8 $d

UNDEFINED SYMBOLS
osTick
generalIRQ_oshal
