ARM GAS  /cygdrive/c/DOCUME~1/mkwapisz/LOCALS~1/Temp/ccTMHT2f.s 			page 1


   1              		.file	"LPC_USB.c"
   8 0000 E6000000 		.text
   8      02002D00 
   8      00000201 
   8      FB0E0D00 
   8      01010101 
   9              	.Ltext0:
  10              		.align	2
  11              		.global	halDisableInterrupts
  12              		.type	halDisableInterrupts, %function
  13              	halDisableInterrupts:
  14              	.LFB2:
  15              		.file 1 "LPC_USB.c"
   1:LPC_USB.c     **** /*************************************************************************
   2:LPC_USB.c     ****  *
   3:LPC_USB.c     **** **************************************************************************/
   4:LPC_USB.c     **** #include <lpc2xxx.h>
   5:LPC_USB.c     **** #include <printf_P.h>
   6:LPC_USB.c     **** #include "lpc_usb.h"
   7:LPC_USB.c     **** 
   8:LPC_USB.c     **** #define USB_INTS         (*((volatile unsigned long *) 0xE01FC1C0))
   9:LPC_USB.c     **** #define PLLCON_PLLE         (1<<0)      /* PLL Enable */
  10:LPC_USB.c     **** #define PLLCON_PLLC         (1<<1)      /* PLL Connect */
  11:LPC_USB.c     **** #define PLLSTAT_PLOCK       (1<<10)     /* PLL Lock Status */
  12:LPC_USB.c     **** 
  13:LPC_USB.c     **** #define tSR unsigned int    /* define the type for status words */
  14:LPC_USB.c     **** #define m_os_dis_int()                                    {localSR = halDisableInterrupts(); asm vo
  15:LPC_USB.c     **** #define m_os_ena_int()                                    {halRestoreInterrupts(localSR); asm volat
  16:LPC_USB.c     **** 
  17:LPC_USB.c     **** 
  18:LPC_USB.c     **** //void USB_ISR (void)__attribute__ ((interrupt));
  19:LPC_USB.c     **** 
  20:LPC_USB.c     **** Fnpr IntrCallback;
  21:LPC_USB.c     **** /*****************************************************************************
  22:LPC_USB.c     ****  *
  23:LPC_USB.c     ****  * Description:
  24:LPC_USB.c     ****  *    Disable interrupts 
  25:LPC_USB.c     ****  *
  26:LPC_USB.c     ****  * Returns:
  27:LPC_USB.c     ****  *    The current status register, before disabling interrupts. 
  28:LPC_USB.c     ****  *
  29:LPC_USB.c     ****  ****************************************************************************/
  30:LPC_USB.c     **** unsigned int
  31:LPC_USB.c     **** halDisableInterrupts(void)
  32:LPC_USB.c     **** {
  16              		.loc 1 32 0
  17              		@ Function supports interworking.
  18              		@ args = 0, pretend = 0, frame = 0
  19              		@ frame_needed = 0, uses_anonymous_args = 0
  20              		@ link register save eliminated.
  21              		@ lr needed for prologue
ARM GAS  /cygdrive/c/DOCUME~1/mkwapisz/LOCALS~1/Temp/ccTMHT2f.s 			page 2


  33:LPC_USB.c     ****   tSR returnReg;
  34:LPC_USB.c     **** 
  35:LPC_USB.c     ****   asm volatile ("0: mrs %0, cpsr  \n\t"
  36:LPC_USB.c     ****                 "orr r1, %0, #0xC0                           \n\t"
  37:LPC_USB.c     ****                 "msr cpsr_c, r1                              \n\t"
  38:LPC_USB.c     ****                 "mrs r1, cpsr                                \n\t"
  39:LPC_USB.c     ****                 "and r1, r1, #0xC0                           \n\t"
  40:LPC_USB.c     ****                 "cmp r1, #0xC0                               \n\t"
  41:LPC_USB.c     ****                 "bne 0            \n\t"
  42:LPC_USB.c     ****                 : "=r"(returnReg)
  43:LPC_USB.c     ****                 :
  44:LPC_USB.c     ****                 : "r1"
  45:LPC_USB.c     ****                );
  46:LPC_USB.c     ****   return returnReg;
  47:LPC_USB.c     **** }
  22              		.loc 1 47 0
  23 0000 00000FE1 		0: mrs r0, cpsr  
  24 0004 C01080E3 		orr r1, r0, #0xC0                           
  25 0008 01F021E1 		msr cpsr_c, r1                              
  26 000c 00100FE1 		mrs r1, cpsr                                
  27 0010 C01001E2 		and r1, r1, #0xC0                           
  28 0014 C00051E3 		cmp r1, #0xC0                               
  29 0018 F8FFFF1A 		bne 0            
  30              		
  31 001c 1EFF2FE1 		bx	lr
  32              	.LFE2:
  33              		.size	halDisableInterrupts, .-halDisableInterrupts
  34              		.align	2
  35              		.global	halEnableInterrupts
  36              		.type	halEnableInterrupts, %function
  37              	halEnableInterrupts:
  38              	.LFB3:
  48:LPC_USB.c     **** 
  49:LPC_USB.c     **** /*****************************************************************************
  50:LPC_USB.c     ****  *
  51:LPC_USB.c     ****  * Description:
  52:LPC_USB.c     ****  *    Enable interrupts. 
  53:LPC_USB.c     ****  *
  54:LPC_USB.c     ****  ****************************************************************************/
  55:LPC_USB.c     **** void
  56:LPC_USB.c     **** halEnableInterrupts(void)
  57:LPC_USB.c     **** {
  39              		.loc 1 57 0
  40              		@ Function supports interworking.
  41              		@ args = 0, pretend = 0, frame = 0
  42              		@ frame_needed = 0, uses_anonymous_args = 0
  43              		@ link register save eliminated.
  44              		@ lr needed for prologue
  58:LPC_USB.c     ****   asm volatile ("mrs r3, cpsr       \n\t"                          
  45              		.loc 1 58 0
  46 0020 00300FE1 		mrs r3, cpsr       
  47 0024 C030C3E3 		bic r3, r3, #0xC0  
  48 0028 03F029E1 		msr cpsr, r3       
  49              		
  59:LPC_USB.c     ****                 "bic r3, r3, #0xC0  \n\t"                      
  60:LPC_USB.c     ****                 "msr cpsr, r3       \n\t"                           
  61:LPC_USB.c     ****                 :                                       
ARM GAS  /cygdrive/c/DOCUME~1/mkwapisz/LOCALS~1/Temp/ccTMHT2f.s 			page 3


  62:LPC_USB.c     ****                 :                                       
  63:LPC_USB.c     ****                 : "r3"                                  
  64:LPC_USB.c     ****                );
  65:LPC_USB.c     **** }
  50              		.loc 1 65 0
  51 002c 1EFF2FE1 		bx	lr
  52              	.LFE3:
  53              		.size	halEnableInterrupts, .-halEnableInterrupts
  54              		.align	2
  55              		.global	halRestoreInterrupts
  56              		.type	halRestoreInterrupts, %function
  57              	halRestoreInterrupts:
  58              	.LFB4:
  66:LPC_USB.c     **** 
  67:LPC_USB.c     **** /*****************************************************************************
  68:LPC_USB.c     ****  *
  69:LPC_USB.c     ****  * Description:
  70:LPC_USB.c     ****  *    Restore interrupt state. 
  71:LPC_USB.c     ****  *
  72:LPC_USB.c     ****  * Params:
  73:LPC_USB.c     ****  *    [in] restoreValue - The value of the new status register. 
  74:LPC_USB.c     ****  *
  75:LPC_USB.c     ****  ****************************************************************************/
  76:LPC_USB.c     **** void
  77:LPC_USB.c     **** halRestoreInterrupts(unsigned int restoreValue)
  78:LPC_USB.c     **** {
  59              		.loc 1 78 0
  60              		@ Function supports interworking.
  61              		@ args = 0, pretend = 0, frame = 0
  62              		@ frame_needed = 0, uses_anonymous_args = 0
  63              		@ link register save eliminated.
  64              	.LVL0:
  65              		@ lr needed for prologue
  79:LPC_USB.c     ****   asm volatile ("msr cpsr_c, %0  \n\t"
  66              		.loc 1 79 0
  67 0030 00F021E1 		msr cpsr_c, r0  
  68              		
  80:LPC_USB.c     ****                 :
  81:LPC_USB.c     ****                 : "r" (restoreValue)
  82:LPC_USB.c     ****                 : "r1"
  83:LPC_USB.c     ****                );
  84:LPC_USB.c     **** }
  69              		.loc 1 84 0
  70 0034 1EFF2FE1 		bx	lr
  71              	.LFE4:
  72              		.size	halRestoreInterrupts, .-halRestoreInterrupts
  73              		.align	2
  74              		.global	USB_Cmd
  75              		.type	USB_Cmd, %function
  76              	USB_Cmd:
  77              	.LFB5:
  85:LPC_USB.c     **** 
  86:LPC_USB.c     **** /*************************************************************************
  87:LPC_USB.c     ****  * Function Name: USB_Cmd
  88:LPC_USB.c     ****  * Parameters:  unsigned char Command
  89:LPC_USB.c     ****  *              unsigned char Data
  90:LPC_USB.c     ****  * Return: unsigned int - command result
ARM GAS  /cygdrive/c/DOCUME~1/mkwapisz/LOCALS~1/Temp/ccTMHT2f.s 			page 4


  91:LPC_USB.c     ****  * Description: Implement a command transmit to USB Engine
  92:LPC_USB.c     ****  *
  93:LPC_USB.c     ****  *************************************************************************/
  94:LPC_USB.c     **** unsigned int USB_Cmd (unsigned short Command, unsigned char Data)
  95:LPC_USB.c     **** {
  78              		.loc 1 95 0
  79              		@ Function supports interworking.
  80              		@ args = 0, pretend = 0, frame = 0
  81              		@ frame_needed = 0, uses_anonymous_args = 0
  82              	.LVL1:
  83 0038 0008A0E1 		mov	r0, r0, asl #16
  84              	.LVL2:
  85 003c 04E02DE5 		str	lr, [sp, #-4]!
  86              	.LCFI0:
  87              		.loc 1 95 0
  88 0040 2008A0E1 		mov	r0, r0, lsr #16
  89              	.LVL3:
  90 0044 FFC001E2 		and	ip, r1, #255
  91              	.LBB6:
  92              	.LBB7:
  93              		.loc 1 35 0
  94 0048 00E00FE1 		0: mrs lr, cpsr  
  95 004c C0108EE3 		orr r1, lr, #0xC0                           
  96 0050 01F021E1 		msr cpsr_c, r1                              
  97 0054 00100FE1 		mrs r1, cpsr                                
  98 0058 C01001E2 		and r1, r1, #0xC0                           
  99 005c C00051E3 		cmp r1, #0xC0                               
 100 0060 E6FFFF1A 		bne 0            
 101              		
 102              	.LVL4:
 103              	.LBE7:
 104              	.LBE6:
  96:LPC_USB.c     **** //EA unsigned int cpu_sr, tmp = 0;
  97:LPC_USB.c     **** unsigned int localSR, tmp = 0;
  98:LPC_USB.c     ****   // Disable interrurp and save current state of the interrupt flags
  99:LPC_USB.c     **** //EA  cpu_sr = disable_interrupts();
 100:LPC_USB.c     **** m_os_dis_int();
 105              		.loc 1 100 0
 106 0064 0000A0E1 		 nop
 101:LPC_USB.c     **** 
 102:LPC_USB.c     ****   // Clear Data reg full and Command reg. empry interrupts
 103:LPC_USB.c     ****   DEV_INT_CLR = USB_CommRegEmptyInterrupt + USB_CommDataFullInterrupt;
 104:LPC_USB.c     **** 
 105:LPC_USB.c     ****   // Load commonad in USB engine
 106:LPC_USB.c     ****   CMD_CODE = (((unsigned int)Command&0xFF) << 16) + USB_CMD_WR;
 107              		.loc 1 106 0
 108 0068 FF3000E2 		and	r3, r0, #255
 109              		.loc 1 103 0
 110 006c A8119FE5 		ldr	r1, .L46
 111              		.loc 1 106 0
 112 0070 0338A0E1 		mov	r3, r3, asl #16
 113 0074 053C83E2 		add	r3, r3, #1280
 114              		.loc 1 103 0
 115 0078 3020A0E3 		mov	r2, #48
 116 007c 082081E5 		str	r2, [r1, #8]
 117              		.loc 1 106 0
 118 0080 103081E5 		str	r3, [r1, #16]
ARM GAS  /cygdrive/c/DOCUME~1/mkwapisz/LOCALS~1/Temp/ccTMHT2f.s 			page 5


 119              	.L8:
 107:LPC_USB.c     **** 
 108:LPC_USB.c     ****   // Wait until command is accepted
 109:LPC_USB.c     **** //EA  while ((DEVINTS & USB_CommRegEmptyInterrupt) == 0);
 110:LPC_USB.c     ****   while ((DEV_INT_STAT & USB_CommRegEmptyInterrupt) == 0);
 120              		.loc 1 110 0
 121 0084 90219FE5 		ldr	r2, .L46
 122 0088 003092E5 		ldr	r3, [r2, #0]
 123 008c 100013E3 		tst	r3, #16
 124 0090 FBFFFF0A 		beq	.L8
 111:LPC_USB.c     **** 
 112:LPC_USB.c     ****   // clear Command reg. empry interrupt
 113:LPC_USB.c     ****   DEV_INT_CLR = USB_CommRegEmptyInterrupt;
 125              		.loc 1 113 0
 126 0094 1030A0E3 		mov	r3, #16
 114:LPC_USB.c     **** 
 115:LPC_USB.c     ****   // determinate next phase of the command
 116:LPC_USB.c     ****   switch (Command)
 127              		.loc 1 116 0
 128 0098 F50050E3 		cmp	r0, #245
 129              		.loc 1 113 0
 130 009c 083082E5 		str	r3, [r2, #8]
 131              		.loc 1 116 0
 132 00a0 1E00000A 		beq	.L13
 133 00a4 0800008A 		bhi	.L14
 134 00a8 D80050E3 		cmp	r0, #216
 135 00ac 1200000A 		beq	.L11
 136 00b0 0100008A 		bhi	.L15
 137 00b4 D00050E3 		cmp	r0, #208
 138 00b8 0E0000EA 		b	.L44
 139              	.L15:
 140 00bc F20050E3 		cmp	r0, #242
 141 00c0 2B00000A 		beq	.L12
 142 00c4 F30050E3 		cmp	r0, #243
 143 00c8 0A0000EA 		b	.L44
 144              	.L14:
 145 00cc FF0050E3 		cmp	r0, #255
 146 00d0 0600008A 		bhi	.L16
 147 00d4 FE0050E3 		cmp	r0, #254
 148 00d8 2500002A 		bcs	.L12
 149 00dc FB0050E3 		cmp	r0, #251
 150 00e0 2300000A 		beq	.L12
 151 00e4 FD0050E3 		cmp	r0, #253
 152 00e8 2A00001A 		bne	.L10
 153 00ec 0B0000EA 		b	.L13
 154              	.L16:
 155 00f0 28319FE5 		ldr	r3, .L46+4
 156 00f4 030050E1 		cmp	r0, r3
 157              	.L44:
 158 00f8 2600001A 		bne	.L10
 159              	.L11:
 117:LPC_USB.c     ****   {
 118:LPC_USB.c     ****   case CMD_USB_SET_ADDRESS:
 119:LPC_USB.c     ****   case CMD_USB_CFG_DEV:
 120:LPC_USB.c     ****   case CMD_USB_SET_MODE:
 121:LPC_USB.c     ****   case CMD_USB_SET_DEV_STAT:
 122:LPC_USB.c     ****     CMD_CODE = ((unsigned int)Data << 16) + USB_DATA_WR;
ARM GAS  /cygdrive/c/DOCUME~1/mkwapisz/LOCALS~1/Temp/ccTMHT2f.s 			page 6


 160              		.loc 1 122 0
 161 00fc 0C38A0E1 		mov	r3, ip, asl #16
 162 0100 14219FE5 		ldr	r2, .L46
 163 0104 013C83E2 		add	r3, r3, #256
 164 0108 103082E5 		str	r3, [r2, #16]
 165              	.L17:
 123:LPC_USB.c     ****     while ((DEV_INT_STAT & USB_CommRegEmptyInterrupt) == 0);
 166              		.loc 1 123 0
 167 010c 08319FE5 		ldr	r3, .L46
 168 0110 003093E5 		ldr	r3, [r3, #0]
 169 0114 100013E3 		tst	r3, #16
 170 0118 3700001A 		bne	.L18
 171 011c FAFFFFEA 		b	.L17
 172              	.L13:
 124:LPC_USB.c     ****     break;
 125:LPC_USB.c     ****   case CMD_USB_RD_FRAME_NUMB:
 126:LPC_USB.c     ****   case CMD_USB_RD_TEST_REG:
 127:LPC_USB.c     ****     CMD_CODE = ((unsigned int)Command << 16) + USB_DATA_RD;
 173              		.loc 1 127 0
 174 0120 0038A0E1 		mov	r3, r0, asl #16
 175 0124 020C83E2 		add	r0, r3, #512
 176              	.LVL5:
 177 0128 EC309FE5 		ldr	r3, .L46
 178 012c 100083E5 		str	r0, [r3, #16]
 179              	.L19:
 128:LPC_USB.c     ****     while ((DEV_INT_STAT & USB_CommDataFullInterrupt) == 0);
 180              		.loc 1 128 0
 181 0130 E4209FE5 		ldr	r2, .L46
 182 0134 003092E5 		ldr	r3, [r2, #0]
 183 0138 200013E3 		tst	r3, #32
 184 013c FBFFFF0A 		beq	.L19
 129:LPC_USB.c     ****     DEV_INT_CLR = USB_CommDataFullInterrupt;
 185              		.loc 1 129 0
 186 0140 2030A0E3 		mov	r3, #32
 187 0144 083082E5 		str	r3, [r2, #8]
 130:LPC_USB.c     ****     tmp = CMD_DATA;
 188              		.loc 1 130 0
 189 0148 141092E5 		ldr	r1, [r2, #20]
 190              	.LVL6:
 131:LPC_USB.c     ****     CMD_CODE = ((unsigned int)Command << 16) + USB_DATA_RD;
 191              		.loc 1 131 0
 192 014c 100082E5 		str	r0, [r2, #16]
 193              	.L21:
 132:LPC_USB.c     ****     while ((DEV_INT_STAT & USB_CommDataFullInterrupt) == 0);
 194              		.loc 1 132 0
 195 0150 C4209FE5 		ldr	r2, .L46
 196 0154 003092E5 		ldr	r3, [r2, #0]
 197 0158 200013E3 		tst	r3, #32
 198 015c FBFFFF0A 		beq	.L21
 133:LPC_USB.c     ****     DEV_INT_CLR = USB_CommDataFullInterrupt;
 199              		.loc 1 133 0
 200 0160 2030A0E3 		mov	r3, #32
 201 0164 083082E5 		str	r3, [r2, #8]
 134:LPC_USB.c     ****     tmp |= CMD_DATA << 8;
 202              		.loc 1 134 0
 203 0168 143092E5 		ldr	r3, [r2, #20]
 204 016c 030481E1 		orr	r0, r1, r3, asl #8
ARM GAS  /cygdrive/c/DOCUME~1/mkwapisz/LOCALS~1/Temp/ccTMHT2f.s 			page 7


 205              	.LVL7:
 206 0170 220000EA 		b	.L23
 207              	.LVL8:
 208              	.L12:
 135:LPC_USB.c     ****     break;
 136:LPC_USB.c     ****   case CMD_USB_GET_DEV_STAT:
 137:LPC_USB.c     ****   case CMD_USB_GET_ERROR:
 138:LPC_USB.c     ****   case CMD_USB_RD_ERROR_STAT:
 139:LPC_USB.c     ****   case CMD_USB_CLR_BUF:
 140:LPC_USB.c     ****     CMD_CODE = ((unsigned int)Command << 16) + USB_DATA_RD;
 209              		.loc 1 140 0
 210 0174 0038A0E1 		mov	r3, r0, asl #16
 211 0178 9C209FE5 		ldr	r2, .L46
 212 017c 023C83E2 		add	r3, r3, #512
 213 0180 103082E5 		str	r3, [r2, #16]
 214              	.L24:
 141:LPC_USB.c     ****     while ((DEV_INT_STAT & USB_CommDataFullInterrupt) == 0);
 215              		.loc 1 141 0
 216 0184 90009FE5 		ldr	r0, .L46
 217              	.LVL9:
 218 0188 003090E5 		ldr	r3, [r0, #0]
 219 018c 200013E3 		tst	r3, #32
 220 0190 FBFFFF0A 		beq	.L24
 221 0194 0E0000EA 		b	.L45
 222              	.LVL10:
 223              	.L10:
 142:LPC_USB.c     ****     tmp = CMD_DATA;
 143:LPC_USB.c     ****     break;
 144:LPC_USB.c     ****   default:
 145:LPC_USB.c     ****     switch (Command & 0xE0)
 224              		.loc 1 145 0
 225 0198 E03000E2 		and	r3, r0, #224
 226 019c 400053E3 		cmp	r3, #64
 227 01a0 0300000A 		beq	.L26
 228 01a4 050D53E3 		cmp	r3, #320
 229 01a8 0B00000A 		beq	.L27
 230 01ac 000053E3 		cmp	r3, #0
 231 01b0 1100001A 		bne	.L18
 232              	.L26:
 146:LPC_USB.c     ****     {
 147:LPC_USB.c     ****     case CMD_USB_SEL_EP:
 148:LPC_USB.c     ****     case CMD_USB_SEL_CLR_INT_EP:
 149:LPC_USB.c     ****       CMD_CODE = ((unsigned int)Command << 16) + USB_DATA_RD;
 233              		.loc 1 149 0
 234 01b4 0038A0E1 		mov	r3, r0, asl #16
 235 01b8 5C209FE5 		ldr	r2, .L46
 236 01bc 023C83E2 		add	r3, r3, #512
 237 01c0 103082E5 		str	r3, [r2, #16]
 238              	.L28:
 150:LPC_USB.c     ****       while ((DEV_INT_STAT & USB_CommDataFullInterrupt) == 0);
 239              		.loc 1 150 0
 240 01c4 50009FE5 		ldr	r0, .L46
 241              	.LVL11:
 242 01c8 003090E5 		ldr	r3, [r0, #0]
 243 01cc 200013E3 		tst	r3, #32
 244 01d0 FBFFFF0A 		beq	.L28
 245              	.L45:
ARM GAS  /cygdrive/c/DOCUME~1/mkwapisz/LOCALS~1/Temp/ccTMHT2f.s 			page 8


 151:LPC_USB.c     ****       tmp = CMD_DATA;
 246              		.loc 1 151 0
 247 01d4 140090E5 		ldr	r0, [r0, #20]
 248              	.LVL12:
 249 01d8 080000EA 		b	.L23
 250              	.LVL13:
 251              	.L27:
 152:LPC_USB.c     ****       break;
 153:LPC_USB.c     ****     case CMD_USB_SET_EP_STAT:
 154:LPC_USB.c     ****       CMD_CODE = ((unsigned int)Data << 16) + USB_DATA_WR;
 252              		.loc 1 154 0
 253 01dc 0C38A0E1 		mov	r3, ip, asl #16
 254 01e0 34209FE5 		ldr	r2, .L46
 255 01e4 013C83E2 		add	r3, r3, #256
 256 01e8 103082E5 		str	r3, [r2, #16]
 257              	.L30:
 155:LPC_USB.c     ****       while ((DEV_INT_STAT & USB_CommRegEmptyInterrupt) == 0);
 258              		.loc 1 155 0
 259 01ec 28309FE5 		ldr	r3, .L46
 260 01f0 003093E5 		ldr	r3, [r3, #0]
 261 01f4 100013E3 		tst	r3, #16
 262 01f8 FBFFFF0A 		beq	.L30
 263              	.L18:
 264 01fc 0000A0E3 		mov	r0, #0
 265              	.LVL14:
 266              	.L23:
 156:LPC_USB.c     ****       break;
 157:LPC_USB.c     ****     }
 158:LPC_USB.c     ****     break;
 159:LPC_USB.c     ****   }
 160:LPC_USB.c     ****   DEV_INT_CLR = USB_CommRegEmptyInterrupt + USB_CommDataFullInterrupt;
 267              		.loc 1 160 0
 268 0200 14309FE5 		ldr	r3, .L46
 269 0204 3020A0E3 		mov	r2, #48
 270 0208 082083E5 		str	r2, [r3, #8]
 271              	.LBB8:
 272              	.LBB9:
 273              		.loc 1 79 0
 274 020c 0EF021E1 		msr cpsr_c, lr  
 275              		
 276              	.LVL15:
 277              	.LBE9:
 278              	.LBE8:
 161:LPC_USB.c     **** 
 162:LPC_USB.c     ****   // restore the interrupt flags
 163:LPC_USB.c     **** //EA  restore_interrupts(cpu_sr);
 164:LPC_USB.c     **** m_os_ena_int();
 279              		.loc 1 164 0
 280 0210 0000A0E1 		 nop
 281              	.LVL16:
 165:LPC_USB.c     **** 
 166:LPC_USB.c     ****   return(tmp);
 167:LPC_USB.c     **** }
 282              		.loc 1 167 0
 283 0214 04E09DE4 		ldr	lr, [sp], #4
 284 0218 1EFF2FE1 		bx	lr
 285              	.L47:
ARM GAS  /cygdrive/c/DOCUME~1/mkwapisz/LOCALS~1/Temp/ccTMHT2f.s 			page 9


 286              		.align	2
 287              	.L46:
 288 021c 000009E0 		.word	-536281088
 289 0220 FE010000 		.word	510
 290              	.LFE5:
 291              		.size	USB_Cmd, .-USB_Cmd
 292              		.align	2
 293              		.global	USB_Init
 294              		.type	USB_Init, %function
 295              	USB_Init:
 296              	.LFB6:
 168:LPC_USB.c     **** 
 169:LPC_USB.c     **** /*************************************************************************
 170:LPC_USB.c     ****  * Function Name: USB_Init
 171:LPC_USB.c     ****  * Parameters: int IntrSlot
 172:LPC_USB.c     ****  *             Fnpr UserIntrCallback
 173:LPC_USB.c     ****  *             USB_DEV_INT_PRIORITY_DEF DevIntrPrio
 174:LPC_USB.c     ****  * Return: USB_ERROR_CODE_DEF
 175:LPC_USB.c     ****  *         USB_OK  0: Pass
 176:LPC_USB.c     ****  *     USB_ERROR   1: Error
 177:LPC_USB.c     ****  * Description: Init USB
 178:LPC_USB.c     ****  *
 179:LPC_USB.c     ****  *************************************************************************/
 180:LPC_USB.c     **** USB_ERROR_CODES_DEF USB_Init(int IntrSlot, Fnpr UserIntrCallback,USB_DEV_INT_PRIORITY_DEF DevIntrPr
 181:LPC_USB.c     **** {
 297              		.loc 1 181 0
 298              		@ Function supports interworking.
 299              		@ args = 0, pretend = 0, frame = 0
 300              		@ frame_needed = 0, uses_anonymous_args = 0
 301              	.LVL17:
 182:LPC_USB.c     **** //EAint p = 1, m = 48000000 / FOSC, Fpll, i;
 183:LPC_USB.c     **** //EAint i;
 184:LPC_USB.c     **** 
 185:LPC_USB.c     **** //EA  if (IntrSlot > VIC_Slot15)
 186:LPC_USB.c     **** //EA  {
 187:LPC_USB.c     **** //EA    return(USB_INTR_ERROR);
 188:LPC_USB.c     **** //EA  }
 189:LPC_USB.c     **** 
 190:LPC_USB.c     ****   /* Turn on USB */
 191:LPC_USB.c     **** //EA  PM_OpenPeripheral(0x80000000);
 192:LPC_USB.c     **** PCONP |= 0x80000000;                      /* Turn On USB PCLK */
 302              		.loc 1 192 0
 303 0224 D4009FE5 		ldr	r0, .L54
 304              	.LVL18:
 305 0228 C43090E5 		ldr	r3, [r0, #196]
 306 022c 023183E3 		orr	r3, r3, #-2147483648
 307 0230 C43080E5 		str	r3, [r0, #196]
 193:LPC_USB.c     **** 
 194:LPC_USB.c     ****   // Enable Vbus sense
 195:LPC_USB.c     **** //EA  PINSEL1_bit.P0_23 = 1;
 196:LPC_USB.c     ****   // 1 - GoodLinc
 197:LPC_USB.c     ****   // 2 - ~Connect
 198:LPC_USB.c     **** //EA  PINSEL1_bit.P0_31 = 2;
 199:LPC_USB.c     ****   PINSEL1  |= 0x80004000;
 308              		.loc 1 199 0
 309 0234 C8C09FE5 		ldr	ip, .L54+4
 310 0238 04309CE5 		ldr	r3, [ip, #4]
ARM GAS  /cygdrive/c/DOCUME~1/mkwapisz/LOCALS~1/Temp/ccTMHT2f.s 			page 10


 311 023c 023183E3 		orr	r3, r3, #-2147483648
 312 0240 013983E3 		orr	r3, r3, #16384
 313 0244 04308CE5 		str	r3, [ip, #4]
 200:LPC_USB.c     **** 
 201:LPC_USB.c     **** 
 202:LPC_USB.c     ****   // Init Pll for USB engine freq - 48MHz
 203:LPC_USB.c     **** #if 0 //EA
 204:LPC_USB.c     ****   PLL48CFG_bit.MSEL = m-1;      //Fosc is define in LPC2148_sys_cnfg.h into [Hz]
 205:LPC_USB.c     ****   PLL48CFG_bit.PSEL = i;
 206:LPC_USB.c     **** 
 207:LPC_USB.c     ****   PLL48CON_bit.PLLE = true;     // Enable PLL
 208:LPC_USB.c     ****   PLL48FEED = PLLFEED_DATA1;
 209:LPC_USB.c     ****   PLL48FEED = PLLFEED_DATA2;
 210:LPC_USB.c     **** 
 211:LPC_USB.c     ****   while (!PLL48STAT_bit.PLOCK); // Wait PLL lock
 212:LPC_USB.c     **** 
 213:LPC_USB.c     ****   PLL48CON_bit.PLLC = true;     // Connect PLL
 214:LPC_USB.c     ****   PLL48FEED = PLLFEED_DATA1;
 215:LPC_USB.c     ****   PLL48FEED = PLLFEED_DATA2;
 216:LPC_USB.c     **** #endif //EA
 217:LPC_USB.c     ****   PLL48CFG  = 0x23;                         /* M = 4, P = 2 */
 314              		.loc 1 217 0
 315 0248 2330A0E3 		mov	r3, #35
 316 024c A43080E5 		str	r3, [r0, #164]
 218:LPC_USB.c     ****   PLL48CON  = PLLCON_PLLE;                  /* PLL Enable */
 317              		.loc 1 218 0
 318 0250 0130A0E3 		mov	r3, #1
 319 0254 A03080E5 		str	r3, [r0, #160]
 219:LPC_USB.c     ****   PLL48FEED = 0xAA;                         /* Feed Sequence 1 */
 320              		.loc 1 219 0
 321 0258 A93083E2 		add	r3, r3, #169
 322 025c AC3080E5 		str	r3, [r0, #172]
 220:LPC_USB.c     ****   PLL48FEED = 0x55;                         /* Feed Sequence 2 */
 323              		.loc 1 220 0
 324 0260 5530A0E3 		mov	r3, #85
 325 0264 AC3080E5 		str	r3, [r0, #172]
 326              		.loc 1 181 0
 327 0268 10402DE9 		stmfd	sp!, {r4, lr}
 328              	.LCFI1:
 329              		.loc 1 181 0
 330 026c 0140A0E1 		mov	r4, r1
 331 0270 02E0A0E1 		mov	lr, r2
 332              	.LVL19:
 333              	.L49:
 221:LPC_USB.c     ****     
 222:LPC_USB.c     ****   while ((PLL48STAT & PLLSTAT_PLOCK) == 0); /* Wait for PLL Lock */
 334              		.loc 1 222 0
 335 0274 84C09FE5 		ldr	ip, .L54
 336 0278 A8309CE5 		ldr	r3, [ip, #168]
 337 027c 010B13E3 		tst	r3, #1024
 338 0280 FBFFFF0A 		beq	.L49
 223:LPC_USB.c     **** 
 224:LPC_USB.c     ****   PLL48CON  = PLLCON_PLLE | PLLCON_PLLC;    /* PLL Enable & Connect */
 339              		.loc 1 224 0
 340 0284 0310A0E3 		mov	r1, #3
 225:LPC_USB.c     ****   PLL48FEED = 0xAA;                         /* Feed Sequence 1 */
 341              		.loc 1 225 0
ARM GAS  /cygdrive/c/DOCUME~1/mkwapisz/LOCALS~1/Temp/ccTMHT2f.s 			page 11


 342 0288 AA30A0E3 		mov	r3, #170
 343              		.loc 1 224 0
 344 028c A0108CE5 		str	r1, [ip, #160]
 345              		.loc 1 225 0
 346 0290 AC308CE5 		str	r3, [ip, #172]
 226:LPC_USB.c     ****   PLL48FEED = 0x55;                         /* Feed Sequence 2 */
 347              		.loc 1 226 0
 348 0294 5530A0E3 		mov	r3, #85
 349 0298 AC308CE5 		str	r3, [ip, #172]
 227:LPC_USB.c     **** 
 228:LPC_USB.c     ****   IntrCallback = UserIntrCallback;
 229:LPC_USB.c     **** 
 230:LPC_USB.c     ****   // USB interrupt connect to VIC
 231:LPC_USB.c     **** //EA  VIC_SetVectoredIRQ(USB_ISR,(LPC_VicIrqSlots_t)IntrSlot,VIC_USB);
 232:LPC_USB.c     **** //EA  VIC_EnableInt(1<<VIC_USB);
 233:LPC_USB.c     ****   VICVectAddr0 = (unsigned long)USB_ISR;    /* USB Interrupt -> Vector 0 */
 350              		.loc 1 233 0
 351 029c 64309FE5 		ldr	r3, .L54+8
 352 02a0 0000E0E3 		mvn	r0, #0
 353 02a4 FF3E00E5 		str	r3, [r0, #-3839]
 234:LPC_USB.c     ****   VICVectCntl0 = 0x20 | 22;                 /* USB Interrupt -> IRQ Slot 0 */
 235:LPC_USB.c     ****   VICIntEnable = 1 << 22;                   /* Enable USB Interrupt */
 236:LPC_USB.c     **** 
 237:LPC_USB.c     ****   // init USB engine
 238:LPC_USB.c     ****   DEV_INT_PRIO   = DevIntrPrio;
 354              		.loc 1 238 0
 355 02a8 5C209FE5 		ldr	r2, .L54+12
 356              		.loc 1 234 0
 357 02ac 3630A0E3 		mov	r3, #54
 358 02b0 FF3D00E5 		str	r3, [r0, #-3583]
 359              		.loc 1 235 0
 360 02b4 0135A0E3 		mov	r3, #4194304
 361 02b8 EF3F00E5 		str	r3, [r0, #-4079]
 362              		.loc 1 238 0
 363 02bc 2CE082E5 		str	lr, [r2, #44]
 364              		.loc 1 228 0
 365 02c0 48309FE5 		ldr	r3, .L54+16
 239:LPC_USB.c     **** 
 240:LPC_USB.c     ****   // EndPoint Init
 241:LPC_USB.c     ****   REALIZE_EP = EP_INT_EN = 0x3;
 366              		.loc 1 241 0
 367 02c4 341082E5 		str	r1, [r2, #52]
 368              		.loc 1 228 0
 369 02c8 004083E5 		str	r4, [r3, #0]
 370              		.loc 1 241 0
 371 02cc 341092E5 		ldr	r1, [r2, #52]
 242:LPC_USB.c     ****   EP_INT_CLR  = 0xFFFFFFFF;
 243:LPC_USB.c     **** 
 244:LPC_USB.c     ****   // Clear all interrupt flags
 245:LPC_USB.c     ****   DEV_INT_CLR = 0x3FF;
 372              		.loc 1 245 0
 373 02d0 3C309FE5 		ldr	r3, .L54+20
 374              		.loc 1 241 0
 375 02d4 441082E5 		str	r1, [r2, #68]
 376              		.loc 1 242 0
 377 02d8 380082E5 		str	r0, [r2, #56]
 378              		.loc 1 245 0
ARM GAS  /cygdrive/c/DOCUME~1/mkwapisz/LOCALS~1/Temp/ccTMHT2f.s 			page 12


 379 02dc 083082E5 		str	r3, [r2, #8]
 246:LPC_USB.c     **** 
 247:LPC_USB.c     ****   // Eanble all interrupts
 248:LPC_USB.c     ****   // without EP Realize, Command Reg Empty, Command Data Reg Full
 249:LPC_USB.c     ****   DEV_INT_EN = 0x20E;
 380              		.loc 1 249 0
 381 02e0 1F3E43E2 		sub	r3, r3, #496
 382 02e4 013043E2 		sub	r3, r3, #1
 383 02e8 043082E5 		str	r3, [r2, #4]
 250:LPC_USB.c     **** 
 251:LPC_USB.c     ****   // Enable USB inerrupt
 252:LPC_USB.c     **** //EA  USBINTS_bit.EN_USB_INTS = 1;
 253:LPC_USB.c     ****   USB_INTS = 0x80000000;
 254:LPC_USB.c     **** //EA TODO
 255:LPC_USB.c     **** 
 256:LPC_USB.c     ****   return (USB_OK);
 257:LPC_USB.c     **** }
 384              		.loc 1 257 0
 385 02ec 010080E2 		add	r0, r0, #1
 386              		.loc 1 253 0
 387 02f0 0231A0E3 		mov	r3, #-2147483648
 388 02f4 C0318CE5 		str	r3, [ip, #448]
 389              		.loc 1 257 0
 390 02f8 1040BDE8 		ldmfd	sp!, {r4, lr}
 391 02fc 1EFF2FE1 		bx	lr
 392              	.L55:
 393              		.align	2
 394              	.L54:
 395 0300 00C01FE0 		.word	-534790144
 396 0304 00C002E0 		.word	-536690688
 397 0308 00000000 		.word	USB_ISR
 398 030c 000009E0 		.word	-536281088
 399 0310 00000000 		.word	IntrCallback
 400 0314 FF030000 		.word	1023
 401              	.LFE6:
 402              		.size	USB_Init, .-USB_Init
 403              		.align	2
 404              		.global	USB_RealizeEndPoint
 405              		.type	USB_RealizeEndPoint, %function
 406              	USB_RealizeEndPoint:
 407              	.LFB7:
 258:LPC_USB.c     **** 
 259:LPC_USB.c     **** /*************************************************************************
 260:LPC_USB.c     ****  * Function Name: USB_RealizeEndPoint
 261:LPC_USB.c     ****  * Parameters: USB_ENDOPINT_DEF EndPoint - endpoiunt index
 262:LPC_USB.c     ****  *             int MaxPacketSize - When is 0 disable relevant endpoint
 263:LPC_USB.c     ****  *             USB_INT_PRIORITY_DEF IntrPriority
 264:LPC_USB.c     ****  *             int IntrEna
 265:LPC_USB.c     ****  * Return: none
 266:LPC_USB.c     ****  * Description: Enable or disable endpoint
 267:LPC_USB.c     ****  *
 268:LPC_USB.c     ****  *************************************************************************/
 269:LPC_USB.c     **** void USB_RealizeEndPoint( USB_ENDOPINT_DEF EndPoint,int MaxPacketSize,
 270:LPC_USB.c     ****                           USB_INT_PRIORITY_DEF IntrPriority, int IntrEna)
 271:LPC_USB.c     **** {
 408              		.loc 1 271 0
 409              		@ Function supports interworking.
ARM GAS  /cygdrive/c/DOCUME~1/mkwapisz/LOCALS~1/Temp/ccTMHT2f.s 			page 13


 410              		@ args = 0, pretend = 0, frame = 0
 411              		@ frame_needed = 0, uses_anonymous_args = 0
 412              	.LVL20:
 413 0318 10402DE9 		stmfd	sp!, {r4, lr}
 414              	.LCFI2:
 272:LPC_USB.c     **** unsigned int Mask = (1 << EndPoint);
 273:LPC_USB.c     ****   if (MaxPacketSize)
 415              		.loc 1 273 0
 416 031c 00C051E2 		subs	ip, r1, #0
 417              		.loc 1 271 0
 418 0320 0340A0E1 		mov	r4, r3
 419              		.loc 1 272 0
 420 0324 0130A0E3 		mov	r3, #1
 421              	.LVL21:
 422              		.loc 1 271 0
 423 0328 02E0A0E1 		mov	lr, r2
 424              		.loc 1 272 0
 425 032c 1310A0E1 		mov	r1, r3, asl r0
 426              	.LVL22:
 427              		.loc 1 273 0
 428 0330 1500000A 		beq	.L57
 429              	.LVL23:
 274:LPC_USB.c     ****   {
 275:LPC_USB.c     ****     // Realize endpoit
 276:LPC_USB.c     ****     REALIZE_EP  |= Mask;
 430              		.loc 1 276 0
 431 0334 78209FE5 		ldr	r2, .L69
 432 0338 443092E5 		ldr	r3, [r2, #68]
 433 033c 013083E1 		orr	r3, r3, r1
 434 0340 443082E5 		str	r3, [r2, #68]
 277:LPC_USB.c     ****     // Set endpoit maximum packet size
 278:LPC_USB.c     ****     EP_INDEX       = EndPoint;
 435              		.loc 1 278 0
 436 0344 480082E5 		str	r0, [r2, #72]
 279:LPC_USB.c     ****     MAXPACKET_SIZE   = MaxPacketSize;
 437              		.loc 1 279 0
 438 0348 4CC082E5 		str	ip, [r2, #76]
 439              	.L59:
 280:LPC_USB.c     ****     // Wait for Realize complete
 281:LPC_USB.c     ****     while ((DEV_INT_STAT & USB_EPRealizeInterrupt) == 0);
 440              		.loc 1 281 0
 441 034c 60209FE5 		ldr	r2, .L69
 442 0350 003092E5 		ldr	r3, [r2, #0]
 443 0354 010C13E3 		tst	r3, #256
 444 0358 FBFFFF0A 		beq	.L59
 282:LPC_USB.c     ****     // Clear Endpoint Realize interrupt flag
 283:LPC_USB.c     ****     DEV_INT_CLR     = USB_EPRealizeInterrupt;
 445              		.loc 1 283 0
 446 035c 013CA0E3 		mov	r3, #256
 447 0360 083082E5 		str	r3, [r2, #8]
 284:LPC_USB.c     ****     // Set endpoint interrupt priority
 285:LPC_USB.c     ****     if (IntrPriority)
 448              		.loc 1 285 0
 449 0364 00005EE3 		cmp	lr, #0
 286:LPC_USB.c     ****     {
 287:LPC_USB.c     ****       EP_INT_PRIO |= Mask;
 450              		.loc 1 287 0
ARM GAS  /cygdrive/c/DOCUME~1/mkwapisz/LOCALS~1/Temp/ccTMHT2f.s 			page 14


 451 0368 40309215 		ldrne	r3, [r2, #64]
 452 036c 01308311 		orrne	r3, r3, r1
 453 0370 40308215 		strne	r3, [r2, #64]
 288:LPC_USB.c     ****     }
 289:LPC_USB.c     ****     // Endpoint interrup flag clear and CDFULL flag!!!
 290:LPC_USB.c     ****     EP_INT_CLR    = Mask;
 454              		.loc 1 290 0
 455 0374 381082E5 		str	r1, [r2, #56]
 291:LPC_USB.c     ****     // Enable endpoint interrup
 292:LPC_USB.c     ****     if (IntrEna) EP_INT_EN |= Mask;
 456              		.loc 1 292 0
 457 0378 000054E3 		cmp	r4, #0
 458 037c 34309215 		ldrne	r3, [r2, #52]
 459 0380 01308311 		orrne	r3, r3, r1
 460 0384 0700001A 		bne	.L68
 461 0388 070000EA 		b	.L65
 462              	.LVL24:
 463              	.L57:
 293:LPC_USB.c     ****   }
 294:LPC_USB.c     ****   else
 295:LPC_USB.c     ****   {
 296:LPC_USB.c     ****     Mask =~ Mask;
 297:LPC_USB.c     ****     // Disable relevant endpoint and interrupt
 298:LPC_USB.c     ****     REALIZE_EP &= Mask;
 464              		.loc 1 298 0
 465 038c 20209FE5 		ldr	r2, .L69
 466 0390 443092E5 		ldr	r3, [r2, #68]
 467              		.loc 1 296 0
 468 0394 0110E0E1 		mvn	r1, r1
 469              	.LVL25:
 470              		.loc 1 298 0
 471 0398 013003E0 		and	r3, r3, r1
 472 039c 443082E5 		str	r3, [r2, #68]
 299:LPC_USB.c     ****     EP_INT_EN &= Mask;
 473              		.loc 1 299 0
 474 03a0 343092E5 		ldr	r3, [r2, #52]
 475 03a4 013003E0 		and	r3, r3, r1
 476              	.LVL26:
 477              	.L68:
 478 03a8 343082E5 		str	r3, [r2, #52]
 479              	.L65:
 300:LPC_USB.c     ****   }
 301:LPC_USB.c     **** }
 480              		.loc 1 301 0
 481 03ac 1040BDE8 		ldmfd	sp!, {r4, lr}
 482 03b0 1EFF2FE1 		bx	lr
 483              	.L70:
 484              		.align	2
 485              	.L69:
 486 03b4 000009E0 		.word	-536281088
 487              	.LFE7:
 488              		.size	USB_RealizeEndPoint, .-USB_RealizeEndPoint
 489              		.align	2
 490              		.global	USB_ClearBuffer
 491              		.type	USB_ClearBuffer, %function
 492              	USB_ClearBuffer:
 493              	.LFB8:
ARM GAS  /cygdrive/c/DOCUME~1/mkwapisz/LOCALS~1/Temp/ccTMHT2f.s 			page 15


 302:LPC_USB.c     **** 
 303:LPC_USB.c     **** /*************************************************************************
 304:LPC_USB.c     ****  * Function Name: USB_ClearBuffer
 305:LPC_USB.c     ****  * Parameters: USB_ENDOPINT_DEF EndPoint - endpoiunt index
 306:LPC_USB.c     ****  * Return: Packet overwrite statrus
 307:LPC_USB.c     ****  * Description: Clear buffer of the corresponding endpoint
 308:LPC_USB.c     ****  *
 309:LPC_USB.c     ****  *************************************************************************/
 310:LPC_USB.c     **** unsigned int USB_ClearBuffer(USB_ENDOPINT_DEF EndPoint)
 311:LPC_USB.c     **** {
 494              		.loc 1 311 0
 495              		@ Function supports interworking.
 496              		@ args = 0, pretend = 0, frame = 0
 497              		@ frame_needed = 0, uses_anonymous_args = 0
 498              	.LVL27:
 312:LPC_USB.c     ****   // Select endpoint
 313:LPC_USB.c     ****   USB_Cmd(CMD_USB_SEL_EP | EndPoint,0);
 499              		.loc 1 313 0
 500 03b8 0008A0E1 		mov	r0, r0, asl #16
 501              	.LVL28:
 502              		.loc 1 311 0
 503 03bc 04E02DE5 		str	lr, [sp, #-4]!
 504              	.LCFI3:
 505              		.loc 1 313 0
 506 03c0 0010A0E3 		mov	r1, #0
 507 03c4 2008A0E1 		mov	r0, r0, lsr #16
 508 03c8 FEFFFFEB 		bl	USB_Cmd
 314:LPC_USB.c     ****   // Clear selected end point
 315:LPC_USB.c     ****   return(USB_Cmd(CMD_USB_CLR_BUF,0));
 509              		.loc 1 315 0
 510 03cc F200A0E3 		mov	r0, #242
 511 03d0 0010A0E3 		mov	r1, #0
 316:LPC_USB.c     **** }
 512              		.loc 1 316 0
 513 03d4 04E09DE4 		ldr	lr, [sp], #4
 514              		.loc 1 315 0
 515 03d8 FEFFFFEA 		b	USB_Cmd
 516              	.LFE8:
 517              		.size	USB_ClearBuffer, .-USB_ClearBuffer
 518              		.align	2
 519              		.global	USB_ValidateBuffer
 520              		.type	USB_ValidateBuffer, %function
 521              	USB_ValidateBuffer:
 522              	.LFB9:
 317:LPC_USB.c     **** 
 318:LPC_USB.c     **** /*************************************************************************
 319:LPC_USB.c     ****  * Function Name: USB_ValidateBuffer
 320:LPC_USB.c     ****  * Parameters: USB_ENDOPINT_DEF EndPoint - endpoiunt index
 321:LPC_USB.c     ****  * Return: none
 322:LPC_USB.c     ****  * Description: Validate buffer only of IN Endpoint
 323:LPC_USB.c     ****  *
 324:LPC_USB.c     ****  *************************************************************************/
 325:LPC_USB.c     **** void USB_ValidateBuffer(USB_ENDOPINT_DEF EndPoint)
 326:LPC_USB.c     **** {
 523              		.loc 1 326 0
 524              		@ Function supports interworking.
 525              		@ args = 0, pretend = 0, frame = 0
ARM GAS  /cygdrive/c/DOCUME~1/mkwapisz/LOCALS~1/Temp/ccTMHT2f.s 			page 16


 526              		@ frame_needed = 0, uses_anonymous_args = 0
 527              	.LVL29:
 528 03dc 0030A0E1 		mov	r3, r0
 327:LPC_USB.c     ****   if (EndPoint & 1)
 529              		.loc 1 327 0
 530 03e0 010013E3 		tst	r3, #1
 328:LPC_USB.c     ****   {
 329:LPC_USB.c     ****     USB_Cmd(CMD_USB_SEL_EP | EndPoint,0);
 531              		.loc 1 329 0
 532 03e4 0008A0E1 		mov	r0, r0, asl #16
 533              	.LVL30:
 534              		.loc 1 326 0
 535 03e8 04E02DE5 		str	lr, [sp, #-4]!
 536              	.LCFI4:
 537              		.loc 1 329 0
 538 03ec 0010A0E3 		mov	r1, #0
 539 03f0 2008A0E1 		mov	r0, r0, lsr #16
 540              		.loc 1 327 0
 541 03f4 0400000A 		beq	.L76
 542              		.loc 1 329 0
 543 03f8 FEFFFFEB 		bl	USB_Cmd
 544              	.LVL31:
 330:LPC_USB.c     ****     USB_Cmd(CMD_USB_VAL_BUF,0);
 545              		.loc 1 330 0
 546 03fc FA00A0E3 		mov	r0, #250
 547 0400 0010A0E3 		mov	r1, #0
 331:LPC_USB.c     ****   }
 332:LPC_USB.c     **** }
 548              		.loc 1 332 0
 549 0404 04E09DE4 		ldr	lr, [sp], #4
 550              		.loc 1 330 0
 551 0408 FEFFFFEA 		b	USB_Cmd
 552              	.LVL32:
 553              	.L76:
 554              		.loc 1 332 0
 555 040c 04E09DE4 		ldr	lr, [sp], #4
 556 0410 1EFF2FE1 		bx	lr
 557              	.LFE9:
 558              		.size	USB_ValidateBuffer, .-USB_ValidateBuffer
 559              		.align	2
 560              		.global	USB_SetAdd
 561              		.type	USB_SetAdd, %function
 562              	USB_SetAdd:
 563              	.LFB10:
 333:LPC_USB.c     **** 
 334:LPC_USB.c     **** /*************************************************************************
 335:LPC_USB.c     ****  * Function Name: USB_SetAdd
 336:LPC_USB.c     ****  * Parameters: unsigned int DevAdd - defice address between 0 - 127
 337:LPC_USB.c     ****  * Return: none
 338:LPC_USB.c     ****  * Description: Set device address
 339:LPC_USB.c     ****  *
 340:LPC_USB.c     ****  *************************************************************************/
 341:LPC_USB.c     **** void USB_SetAdd(unsigned int DevAdd)
 342:LPC_USB.c     **** {
 564              		.loc 1 342 0
 565              		@ Function supports interworking.
 566              		@ args = 0, pretend = 0, frame = 0
ARM GAS  /cygdrive/c/DOCUME~1/mkwapisz/LOCALS~1/Temp/ccTMHT2f.s 			page 17


 567              		@ frame_needed = 0, uses_anonymous_args = 0
 568              	.LVL33:
 569 0414 30402DE9 		stmfd	sp!, {r4, r5, lr}
 570              	.LCFI5:
 571              		.loc 1 342 0
 572 0418 0050A0E1 		mov	r5, r0
 573 041c 0240A0E3 		mov	r4, #2
 574              	.LVL34:
 575              	.LVL35:
 576              	.L78:
 343:LPC_USB.c     **** 	int i;
 344:LPC_USB.c     ****   for(i=2;i;--i)
 345:LPC_USB.c     ****   {
 346:LPC_USB.c     ****     USB_Cmd(CMD_USB_SET_ADDRESS,DevAdd | 0x80);
 577              		.loc 1 346 0
 578 0420 851CE0E1 		mvn	r1, r5, asl #25
 579 0424 A11CE0E1 		mvn	r1, r1, lsr #25
 580 0428 FF1001E2 		and	r1, r1, #255
 581 042c D000A0E3 		mov	r0, #208
 582 0430 FEFFFFEB 		bl	USB_Cmd
 583              		.loc 1 344 0
 584 0434 014054E2 		subs	r4, r4, #1
 585 0438 F8FFFF1A 		bne	.L78
 347:LPC_USB.c     ****   }
 348:LPC_USB.c     **** }
 586              		.loc 1 348 0
 587 043c 3040BDE8 		ldmfd	sp!, {r4, r5, lr}
 588 0440 1EFF2FE1 		bx	lr
 589              	.LFE10:
 590              		.size	USB_SetAdd, .-USB_SetAdd
 591              		.align	2
 592              		.global	USB_ISR
 593              		.type	USB_ISR, %function
 594              	USB_ISR:
 595              	.LFB11:
 349:LPC_USB.c     **** 
 350:LPC_USB.c     **** /*************************************************************************
 351:LPC_USB.c     ****  * Function Name: USB_ISR
 352:LPC_USB.c     ****  * Parameters: none
 353:LPC_USB.c     ****  * Return: none
 354:LPC_USB.c     ****  * Description: USB interrupt subroutine
 355:LPC_USB.c     ****  *
 356:LPC_USB.c     ****  *************************************************************************/
 357:LPC_USB.c     **** void USB_ISR (void)
 358:LPC_USB.c     **** {
 596              		.loc 1 358 0
 597              		@ Function supports interworking.
 598              		@ args = 0, pretend = 0, frame = 0
 599              		@ frame_needed = 0, uses_anonymous_args = 0
 359:LPC_USB.c     ****   IntrCallback();
 600              		.loc 1 359 0
 601 0444 20309FE5 		ldr	r3, .L85
 602              		.loc 1 358 0
 603 0448 04E02DE5 		str	lr, [sp, #-4]!
 604              	.LCFI6:
 605              		.loc 1 359 0
 606 044c 00C093E5 		ldr	ip, [r3, #0]
ARM GAS  /cygdrive/c/DOCUME~1/mkwapisz/LOCALS~1/Temp/ccTMHT2f.s 			page 18


 607 0450 0FE0A0E1 		mov	lr, pc
 608 0454 1CFF2FE1 		bx	ip
 360:LPC_USB.c     ****   VICVectAddr = 0;    // Clear interrupt in VIC.
 609              		.loc 1 360 0
 610 0458 0020A0E3 		mov	r2, #0
 611 045c 0030E0E3 		mvn	r3, #0
 612 0460 CF2F03E5 		str	r2, [r3, #-4047]
 361:LPC_USB.c     **** }
 613              		.loc 1 361 0
 614 0464 04E09DE4 		ldr	lr, [sp], #4
 615 0468 1EFF2FE1 		bx	lr
 616              	.L86:
 617              		.align	2
 618              	.L85:
 619 046c 00000000 		.word	IntrCallback
 620              	.LFE11:
 621              		.size	USB_ISR, .-USB_ISR
 622              		.comm	IntrCallback,4,4
 623              		.section	.debug_frame,"",%progbits
 624              	.Lframe0:
 625 0000 0C000000 		.4byte	.LECIE0-.LSCIE0
 626              	.LSCIE0:
 627 0004 FFFFFFFF 		.4byte	0xffffffff
 628 0008 01       		.byte	0x1
 629 0009 00       		.ascii	"\000"
 630 000a 01       		.uleb128 0x1
 631 000b 7C       		.sleb128 -4
 632 000c 0E       		.byte	0xe
 633 000d 0C       		.byte	0xc
 634 000e 0D       		.uleb128 0xd
 635 000f 00       		.uleb128 0x0
 636              		.align	2
 637              	.LECIE0:
 638              	.LSFDE0:
 639 0010 0C000000 		.4byte	.LEFDE0-.LASFDE0
 640              	.LASFDE0:
 641 0014 00000000 		.4byte	.Lframe0
 642 0018 00000000 		.4byte	.LFB2
 643 001c 20000000 		.4byte	.LFE2-.LFB2
 644              		.align	2
 645              	.LEFDE0:
 646              	.LSFDE2:
 647 0020 0C000000 		.4byte	.LEFDE2-.LASFDE2
 648              	.LASFDE2:
 649 0024 00000000 		.4byte	.Lframe0
 650 0028 20000000 		.4byte	.LFB3
 651 002c 10000000 		.4byte	.LFE3-.LFB3
 652              		.align	2
 653              	.LEFDE2:
 654              	.LSFDE4:
 655 0030 0C000000 		.4byte	.LEFDE4-.LASFDE4
 656              	.LASFDE4:
 657 0034 00000000 		.4byte	.Lframe0
 658 0038 30000000 		.4byte	.LFB4
 659 003c 08000000 		.4byte	.LFE4-.LFB4
 660              		.align	2
 661              	.LEFDE4:
ARM GAS  /cygdrive/c/DOCUME~1/mkwapisz/LOCALS~1/Temp/ccTMHT2f.s 			page 19


 662              	.LSFDE6:
 663 0040 14000000 		.4byte	.LEFDE6-.LASFDE6
 664              	.LASFDE6:
 665 0044 00000000 		.4byte	.Lframe0
 666 0048 38000000 		.4byte	.LFB5
 667 004c EC010000 		.4byte	.LFE5-.LFB5
 668 0050 48       		.byte	0x4
 669              		.4byte	.LCFI0-.LFB5
 670 0051 0E       		.byte	0xe
 671 0052 04       		.uleb128 0x4
 672 0053 8E       		.byte	0x8e
 673 0054 01       		.uleb128 0x1
 674 0055 000000   		.align	2
 675              	.LEFDE6:
 676              	.LSFDE8:
 677 0058 14000000 		.4byte	.LEFDE8-.LASFDE8
 678              	.LASFDE8:
 679 005c 00000000 		.4byte	.Lframe0
 680 0060 24020000 		.4byte	.LFB6
 681 0064 F4000000 		.4byte	.LFE6-.LFB6
 682 0068 02       		.byte	0x4
 683 0069 48       		.4byte	.LCFI1-.LFB6
 684 006a 0E       		.byte	0xe
 685 006b 08       		.uleb128 0x8
 686 006c 8E       		.byte	0x8e
 687 006d 01       		.uleb128 0x1
 688 006e 84       		.byte	0x84
 689 006f 02       		.uleb128 0x2
 690              		.align	2
 691              	.LEFDE8:
 692              	.LSFDE10:
 693 0070 14000000 		.4byte	.LEFDE10-.LASFDE10
 694              	.LASFDE10:
 695 0074 00000000 		.4byte	.Lframe0
 696 0078 18030000 		.4byte	.LFB7
 697 007c A0000000 		.4byte	.LFE7-.LFB7
 698 0080 44       		.byte	0x4
 699              		.4byte	.LCFI2-.LFB7
 700 0081 0E       		.byte	0xe
 701 0082 08       		.uleb128 0x8
 702 0083 8E       		.byte	0x8e
 703 0084 01       		.uleb128 0x1
 704 0085 84       		.byte	0x84
 705 0086 02       		.uleb128 0x2
 706 0087 00       		.align	2
 707              	.LEFDE10:
 708              	.LSFDE12:
 709 0088 14000000 		.4byte	.LEFDE12-.LASFDE12
 710              	.LASFDE12:
 711 008c 00000000 		.4byte	.Lframe0
 712 0090 B8030000 		.4byte	.LFB8
 713 0094 24000000 		.4byte	.LFE8-.LFB8
 714 0098 48       		.byte	0x4
 715              		.4byte	.LCFI3-.LFB8
 716 0099 0E       		.byte	0xe
 717 009a 04       		.uleb128 0x4
 718 009b 8E       		.byte	0x8e
ARM GAS  /cygdrive/c/DOCUME~1/mkwapisz/LOCALS~1/Temp/ccTMHT2f.s 			page 20


 719 009c 01       		.uleb128 0x1
 720 009d 000000   		.align	2
 721              	.LEFDE12:
 722              	.LSFDE14:
 723 00a0 14000000 		.4byte	.LEFDE14-.LASFDE14
 724              	.LASFDE14:
 725 00a4 00000000 		.4byte	.Lframe0
 726 00a8 DC030000 		.4byte	.LFB9
 727 00ac 38000000 		.4byte	.LFE9-.LFB9
 728 00b0 50       		.byte	0x4
 729              		.4byte	.LCFI4-.LFB9
 730 00b1 0E       		.byte	0xe
 731 00b2 04       		.uleb128 0x4
 732 00b3 8E       		.byte	0x8e
 733 00b4 01       		.uleb128 0x1
 734 00b5 000000   		.align	2
 735              	.LEFDE14:
 736              	.LSFDE16:
 737 00b8 18000000 		.4byte	.LEFDE16-.LASFDE16
 738              	.LASFDE16:
 739 00bc 00000000 		.4byte	.Lframe0
 740 00c0 14040000 		.4byte	.LFB10
 741 00c4 30000000 		.4byte	.LFE10-.LFB10
 742 00c8 44       		.byte	0x4
 743              		.4byte	.LCFI5-.LFB10
 744 00c9 0E       		.byte	0xe
 745 00ca 0C       		.uleb128 0xc
 746 00cb 8E       		.byte	0x8e
 747 00cc 01       		.uleb128 0x1
 748 00cd 85       		.byte	0x85
 749 00ce 02       		.uleb128 0x2
 750 00cf 84       		.byte	0x84
 751 00d0 03       		.uleb128 0x3
 752 00d1 000000   		.align	2
 753              	.LEFDE16:
 754              	.LSFDE18:
 755 00d4 14000000 		.4byte	.LEFDE18-.LASFDE18
 756              	.LASFDE18:
 757 00d8 00000000 		.4byte	.Lframe0
 758 00dc 44040000 		.4byte	.LFB11
 759 00e0 2C000000 		.4byte	.LFE11-.LFB11
 760 00e4 48       		.byte	0x4
 761              		.4byte	.LCFI6-.LFB11
 762 00e5 0E       		.byte	0xe
 763 00e6 04       		.uleb128 0x4
 764 00e7 8E       		.byte	0x8e
 765 00e8 01       		.uleb128 0x1
 766 00e9 000000   		.align	2
 767              	.LEFDE18:
 768              		.file 2 "lpc_usb.h"
 769              		.text
 770              	.Letext0: