ARM GAS  /cygdrive/c/DOCUME~1/mkwapisz/LOCALS~1/Temp/ccTMHT2f.s 			page 1


   1              		.file	"LPC_USB.c"
   2              		.section	.debug_abbrev,"",%progbits
   3              	.Ldebug_abbrev0:
   4              		.section	.debug_info,"",%progbits
   5              	.Ldebug_info0:
   6              		.section	.debug_line,"",%progbits
   7              	.Ldebug_line0:
   8 0000 E6000000 		.text
   8      02002D00 
   8      00000201 
   8      FB0E0D00 
   8      01010101 
   9              	.Ltext0:
  10              		.align	2
  11              		.global	halDisableInterrupts
  12              		.type	halDisableInterrupts, %function
  13              	halDisableInterrupts:
  14              	.LFB2:
  15              		.file 1 "LPC_USB.c"
   1:LPC_USB.c     **** /*************************************************************************
   2:LPC_USB.c     ****  *
   3:LPC_USB.c     **** **************************************************************************/
   4:LPC_USB.c     **** #include <lpc2xxx.h>
   5:LPC_USB.c     **** #include <printf_P.h>
   6:LPC_USB.c     **** #include "lpc_usb.h"
   7:LPC_USB.c     **** 
   8:LPC_USB.c     **** #define USB_INTS         (*((volatile unsigned long *) 0xE01FC1C0))
   9:LPC_USB.c     **** #define PLLCON_PLLE         (1<<0)      /* PLL Enable */
  10:LPC_USB.c     **** #define PLLCON_PLLC         (1<<1)      /* PLL Connect */
  11:LPC_USB.c     **** #define PLLSTAT_PLOCK       (1<<10)     /* PLL Lock Status */
  12:LPC_USB.c     **** 
  13:LPC_USB.c     **** #define tSR unsigned int    /* define the type for status words */
  14:LPC_USB.c     **** #define m_os_dis_int()                                    {localSR = halDisableInterrupts(); asm vo
  15:LPC_USB.c     **** #define m_os_ena_int()                                    {halRestoreInterrupts(localSR); asm volat
  16:LPC_USB.c     **** 
  17:LPC_USB.c     **** 
  18:LPC_USB.c     **** //void USB_ISR (void)__attribute__ ((interrupt));
  19:LPC_USB.c     **** 
  20:LPC_USB.c     **** Fnpr IntrCallback;
  21:LPC_USB.c     **** /*****************************************************************************
  22:LPC_USB.c     ****  *
  23:LPC_USB.c     ****  * Description:
  24:LPC_USB.c     ****  *    Disable interrupts 
  25:LPC_USB.c     ****  *
  26:LPC_USB.c     ****  * Returns:
  27:LPC_USB.c     ****  *    The current status register, before disabling interrupts. 
  28:LPC_USB.c     ****  *
  29:LPC_USB.c     ****  ****************************************************************************/
  30:LPC_USB.c     **** unsigned int
  31:LPC_USB.c     **** halDisableInterrupts(void)
  32:LPC_USB.c     **** {
  16              		.loc 1 32 0
  17              		@ Function supports interworking.
  18              		@ args = 0, pretend = 0, frame = 0
  19              		@ frame_needed = 0, uses_anonymous_args = 0
  20              		@ link register save eliminated.
  21              		@ lr needed for prologue
ARM GAS  /cygdrive/c/DOCUME~1/mkwapisz/LOCALS~1/Temp/ccTMHT2f.s 			page 2


  33:LPC_USB.c     ****   tSR returnReg;
  34:LPC_USB.c     **** 
  35:LPC_USB.c     ****   asm volatile ("0: mrs %0, cpsr  \n\t"
  36:LPC_USB.c     ****                 "orr r1, %0, #0xC0                           \n\t"
  37:LPC_USB.c     ****                 "msr cpsr_c, r1                              \n\t"
  38:LPC_USB.c     ****                 "mrs r1, cpsr                                \n\t"
  39:LPC_USB.c     ****                 "and r1, r1, #0xC0                           \n\t"
  40:LPC_USB.c     ****                 "cmp r1, #0xC0                               \n\t"
  41:LPC_USB.c     ****                 "bne 0            \n\t"
  42:LPC_USB.c     ****                 : "=r"(returnReg)
  43:LPC_USB.c     ****                 :
  44:LPC_USB.c     ****                 : "r1"
  45:LPC_USB.c     ****                );
  46:LPC_USB.c     ****   return returnReg;
  47:LPC_USB.c     **** }
  22              		.loc 1 47 0
  23 0000 00000FE1 		0: mrs r0, cpsr  
  24 0004 C01080E3 		orr r1, r0, #0xC0                           
  25 0008 01F021E1 		msr cpsr_c, r1                              
  26 000c 00100FE1 		mrs r1, cpsr                                
  27 0010 C01001E2 		and r1, r1, #0xC0                           
  28 0014 C00051E3 		cmp r1, #0xC0                               
  29 0018 F8FFFF1A 		bne 0            
  30              		
  31 001c 1EFF2FE1 		bx	lr
  32              	.LFE2:
  33              		.size	halDisableInterrupts, .-halDisableInterrupts
  34              		.align	2
  35              		.global	halEnableInterrupts
  36              		.type	halEnableInterrupts, %function
  37              	halEnableInterrupts:
  38              	.LFB3:
  48:LPC_USB.c     **** 
  49:LPC_USB.c     **** /*****************************************************************************
  50:LPC_USB.c     ****  *
  51:LPC_USB.c     ****  * Description:
  52:LPC_USB.c     ****  *    Enable interrupts. 
  53:LPC_USB.c     ****  *
  54:LPC_USB.c     ****  ****************************************************************************/
  55:LPC_USB.c     **** void
  56:LPC_USB.c     **** halEnableInterrupts(void)
  57:LPC_USB.c     **** {
  39              		.loc 1 57 0
  40              		@ Function supports interworking.
  41              		@ args = 0, pretend = 0, frame = 0
  42              		@ frame_needed = 0, uses_anonymous_args = 0
  43              		@ link register save eliminated.
  44              		@ lr needed for prologue
  58:LPC_USB.c     ****   asm volatile ("mrs r3, cpsr       \n\t"                          
  45              		.loc 1 58 0
  46 0020 00300FE1 		mrs r3, cpsr       
  47 0024 C030C3E3 		bic r3, r3, #0xC0  
  48 0028 03F029E1 		msr cpsr, r3       
  49              		
  59:LPC_USB.c     ****                 "bic r3, r3, #0xC0  \n\t"                      
  60:LPC_USB.c     ****                 "msr cpsr, r3       \n\t"                           
  61:LPC_USB.c     ****                 :                                       
ARM GAS  /cygdrive/c/DOCUME~1/mkwapisz/LOCALS~1/Temp/ccTMHT2f.s 			page 3


  62:LPC_USB.c     ****                 :                                       
  63:LPC_USB.c     ****                 : "r3"                                  
  64:LPC_USB.c     ****                );
  65:LPC_USB.c     **** }
  50              		.loc 1 65 0
  51 002c 1EFF2FE1 		bx	lr
  52              	.LFE3:
  53              		.size	halEnableInterrupts, .-halEnableInterrupts
  54              		.align	2
  55              		.global	halRestoreInterrupts
  56              		.type	halRestoreInterrupts, %function
  57              	halRestoreInterrupts:
  58              	.LFB4:
  66:LPC_USB.c     **** 
  67:LPC_USB.c     **** /*****************************************************************************
  68:LPC_USB.c     ****  *
  69:LPC_USB.c     ****  * Description:
  70:LPC_USB.c     ****  *    Restore interrupt state. 
  71:LPC_USB.c     ****  *
  72:LPC_USB.c     ****  * Params:
  73:LPC_USB.c     ****  *    [in] restoreValue - The value of the new status register. 
  74:LPC_USB.c     ****  *
  75:LPC_USB.c     ****  ****************************************************************************/
  76:LPC_USB.c     **** void
  77:LPC_USB.c     **** halRestoreInterrupts(unsigned int restoreValue)
  78:LPC_USB.c     **** {
  59              		.loc 1 78 0
  60              		@ Function supports interworking.
  61              		@ args = 0, pretend = 0, frame = 0
  62              		@ frame_needed = 0, uses_anonymous_args = 0
  63              		@ link register save eliminated.
  64              	.LVL0:
  65              		@ lr needed for prologue
  79:LPC_USB.c     ****   asm volatile ("msr cpsr_c, %0  \n\t"
  66              		.loc 1 79 0
  67 0030 00F021E1 		msr cpsr_c, r0  
  68              		
  80:LPC_USB.c     ****                 :
  81:LPC_USB.c     ****                 : "r" (restoreValue)
  82:LPC_USB.c     ****                 : "r1"
  83:LPC_USB.c     ****                );
  84:LPC_USB.c     **** }
  69              		.loc 1 84 0
  70 0034 1EFF2FE1 		bx	lr
  71              	.LFE4:
  72              		.size	halRestoreInterrupts, .-halRestoreInterrupts
  73              		.align	2
  74              		.global	USB_Cmd
  75              		.type	USB_Cmd, %function
  76              	USB_Cmd:
  77              	.LFB5:
  85:LPC_USB.c     **** 
  86:LPC_USB.c     **** /*************************************************************************
  87:LPC_USB.c     ****  * Function Name: USB_Cmd
  88:LPC_USB.c     ****  * Parameters:  unsigned char Command
  89:LPC_USB.c     ****  *              unsigned char Data
  90:LPC_USB.c     ****  * Return: unsigned int - command result
ARM GAS  /cygdrive/c/DOCUME~1/mkwapisz/LOCALS~1/Temp/ccTMHT2f.s 			page 4


  91:LPC_USB.c     ****  * Description: Implement a command transmit to USB Engine
  92:LPC_USB.c     ****  *
  93:LPC_USB.c     ****  *************************************************************************/
  94:LPC_USB.c     **** unsigned int USB_Cmd (unsigned short Command, unsigned char Data)
  95:LPC_USB.c     **** {
  78              		.loc 1 95 0
  79              		@ Function supports interworking.
  80              		@ args = 0, pretend = 0, frame = 0
  81              		@ frame_needed = 0, uses_anonymous_args = 0
  82              	.LVL1:
  83 0038 0008A0E1 		mov	r0, r0, asl #16
  84              	.LVL2:
  85 003c 04E02DE5 		str	lr, [sp, #-4]!
  86              	.LCFI0:
  87              		.loc 1 95 0
  88 0040 2008A0E1 		mov	r0, r0, lsr #16
  89              	.LVL3:
  90 0044 FFC001E2 		and	ip, r1, #255
  91              	.LBB6:
  92              	.LBB7:
  93              		.loc 1 35 0
  94 0048 00E00FE1 		0: mrs lr, cpsr  
  95 004c C0108EE3 		orr r1, lr, #0xC0                           
  96 0050 01F021E1 		msr cpsr_c, r1                              
  97 0054 00100FE1 		mrs r1, cpsr                                
  98 0058 C01001E2 		and r1, r1, #0xC0                           
  99 005c C00051E3 		cmp r1, #0xC0                               
 100 0060 E6FFFF1A 		bne 0            
 101              		
 102              	.LVL4:
 103              	.LBE7:
 104              	.LBE6:
  96:LPC_USB.c     **** //EA unsigned int cpu_sr, tmp = 0;
  97:LPC_USB.c     **** unsigned int localSR, tmp = 0;
  98:LPC_USB.c     ****   // Disable interrurp and save current state of the interrupt flags
  99:LPC_USB.c     **** //EA  cpu_sr = disable_interrupts();
 100:LPC_USB.c     **** m_os_dis_int();
 105              		.loc 1 100 0
 106 0064 0000A0E1 		 nop
 101:LPC_USB.c     **** 
 102:LPC_USB.c     ****   // Clear Data reg full and Command reg. empry interrupts
 103:LPC_USB.c     ****   DEV_INT_CLR = USB_CommRegEmptyInterrupt + USB_CommDataFullInterrupt;
 104:LPC_USB.c     **** 
 105:LPC_USB.c     ****   // Load commonad in USB engine
 106:LPC_USB.c     ****   CMD_CODE = (((unsigned int)Command&0xFF) << 16) + USB_CMD_WR;
 107              		.loc 1 106 0
 108 0068 FF3000E2 		and	r3, r0, #255
 109              		.loc 1 103 0
 110 006c A8119FE5 		ldr	r1, .L46
 111              		.loc 1 106 0
 112 0070 0338A0E1 		mov	r3, r3, asl #16
 113 0074 053C83E2 		add	r3, r3, #1280
 114              		.loc 1 103 0
 115 0078 3020A0E3 		mov	r2, #48
 116 007c 082081E5 		str	r2, [r1, #8]
 117              		.loc 1 106 0
 118 0080 103081E5 		str	r3, [r1, #16]
ARM GAS  /cygdrive/c/DOCUME~1/mkwapisz/LOCALS~1/Temp/ccTMHT2f.s 			page 5


 119              	.L8:
 107:LPC_USB.c     **** 
 108:LPC_USB.c     ****   // Wait until command is accepted
 109:LPC_USB.c     **** //EA  while ((DEVINTS & USB_CommRegEmptyInterrupt) == 0);
 110:LPC_USB.c     ****   while ((DEV_INT_STAT & USB_CommRegEmptyInterrupt) == 0);
 120              		.loc 1 110 0
 121 0084 90219FE5 		ldr	r2, .L46
 122 0088 003092E5 		ldr	r3, [r2, #0]
 123 008c 100013E3 		tst	r3, #16
 124 0090 FBFFFF0A 		beq	.L8
 111:LPC_USB.c     **** 
 112:LPC_USB.c     ****   // clear Command reg. empry interrupt
 113:LPC_USB.c     ****   DEV_INT_CLR = USB_CommRegEmptyInterrupt;
 125              		.loc 1 113 0
 126 0094 1030A0E3 		mov	r3, #16
 114:LPC_USB.c     **** 
 115:LPC_USB.c     ****   // determinate next phase of the command
 116:LPC_USB.c     ****   switch (Command)
 127              		.loc 1 116 0
 128 0098 F50050E3 		cmp	r0, #245
 129              		.loc 1 113 0
 130 009c 083082E5 		str	r3, [r2, #8]
 131              		.loc 1 116 0
 132 00a0 1E00000A 		beq	.L13
 133 00a4 0800008A 		bhi	.L14
 134 00a8 D80050E3 		cmp	r0, #216
 135 00ac 1200000A 		beq	.L11
 136 00b0 0100008A 		bhi	.L15
 137 00b4 D00050E3 		cmp	r0, #208
 138 00b8 0E0000EA 		b	.L44
 139              	.L15:
 140 00bc F20050E3 		cmp	r0, #242
 141 00c0 2B00000A 		beq	.L12
 142 00c4 F30050E3 		cmp	r0, #243
 143 00c8 0A0000EA 		b	.L44
 144              	.L14:
 145 00cc FF0050E3 		cmp	r0, #255
 146 00d0 0600008A 		bhi	.L16
 147 00d4 FE0050E3 		cmp	r0, #254
 148 00d8 2500002A 		bcs	.L12
 149 00dc FB0050E3 		cmp	r0, #251
 150 00e0 2300000A 		beq	.L12
 151 00e4 FD0050E3 		cmp	r0, #253
 152 00e8 2A00001A 		bne	.L10
 153 00ec 0B0000EA 		b	.L13
 154              	.L16:
 155 00f0 28319FE5 		ldr	r3, .L46+4
 156 00f4 030050E1 		cmp	r0, r3
 157              	.L44:
 158 00f8 2600001A 		bne	.L10
 159              	.L11:
 117:LPC_USB.c     ****   {
 118:LPC_USB.c     ****   case CMD_USB_SET_ADDRESS:
 119:LPC_USB.c     ****   case CMD_USB_CFG_DEV:
 120:LPC_USB.c     ****   case CMD_USB_SET_MODE:
 121:LPC_USB.c     ****   case CMD_USB_SET_DEV_STAT:
 122:LPC_USB.c     ****     CMD_CODE = ((unsigned int)Data << 16) + USB_DATA_WR;
ARM GAS  /cygdrive/c/DOCUME~1/mkwapisz/LOCALS~1/Temp/ccTMHT2f.s 			page 6


 160              		.loc 1 122 0
 161 00fc 0C38A0E1 		mov	r3, ip, asl #16
 162 0100 14219FE5 		ldr	r2, .L46
 163 0104 013C83E2 		add	r3, r3, #256
 164 0108 103082E5 		str	r3, [r2, #16]
 165              	.L17:
 123:LPC_USB.c     ****     while ((DEV_INT_STAT & USB_CommRegEmptyInterrupt) == 0);
 166              		.loc 1 123 0
 167 010c 08319FE5 		ldr	r3, .L46
 168 0110 003093E5 		ldr	r3, [r3, #0]
 169 0114 100013E3 		tst	r3, #16
 170 0118 3700001A 		bne	.L18
 171 011c FAFFFFEA 		b	.L17
 172              	.L13:
 124:LPC_USB.c     ****     break;
 125:LPC_USB.c     ****   case CMD_USB_RD_FRAME_NUMB:
 126:LPC_USB.c     ****   case CMD_USB_RD_TEST_REG:
 127:LPC_USB.c     ****     CMD_CODE = ((unsigned int)Command << 16) + USB_DATA_RD;
 173              		.loc 1 127 0
 174 0120 0038A0E1 		mov	r3, r0, asl #16
 175 0124 020C83E2 		add	r0, r3, #512
 176              	.LVL5:
 177 0128 EC309FE5 		ldr	r3, .L46
 178 012c 100083E5 		str	r0, [r3, #16]
 179              	.L19:
 128:LPC_USB.c     ****     while ((DEV_INT_STAT & USB_CommDataFullInterrupt) == 0);
 180              		.loc 1 128 0
 181 0130 E4209FE5 		ldr	r2, .L46
 182 0134 003092E5 		ldr	r3, [r2, #0]
 183 0138 200013E3 		tst	r3, #32
 184 013c FBFFFF0A 		beq	.L19
 129:LPC_USB.c     ****     DEV_INT_CLR = USB_CommDataFullInterrupt;
 185              		.loc 1 129 0
 186 0140 2030A0E3 		mov	r3, #32
 187 0144 083082E5 		str	r3, [r2, #8]
 130:LPC_USB.c     ****     tmp = CMD_DATA;
 188              		.loc 1 130 0
 189 0148 141092E5 		ldr	r1, [r2, #20]
 190              	.LVL6:
 131:LPC_USB.c     ****     CMD_CODE = ((unsigned int)Command << 16) + USB_DATA_RD;
 191              		.loc 1 131 0
 192 014c 100082E5 		str	r0, [r2, #16]
 193              	.L21:
 132:LPC_USB.c     ****     while ((DEV_INT_STAT & USB_CommDataFullInterrupt) == 0);
 194              		.loc 1 132 0
 195 0150 C4209FE5 		ldr	r2, .L46
 196 0154 003092E5 		ldr	r3, [r2, #0]
 197 0158 200013E3 		tst	r3, #32
 198 015c FBFFFF0A 		beq	.L21
 133:LPC_USB.c     ****     DEV_INT_CLR = USB_CommDataFullInterrupt;
 199              		.loc 1 133 0
 200 0160 2030A0E3 		mov	r3, #32
 201 0164 083082E5 		str	r3, [r2, #8]
 134:LPC_USB.c     ****     tmp |= CMD_DATA << 8;
 202              		.loc 1 134 0
 203 0168 143092E5 		ldr	r3, [r2, #20]
 204 016c 030481E1 		orr	r0, r1, r3, asl #8
ARM GAS  /cygdrive/c/DOCUME~1/mkwapisz/LOCALS~1/Temp/ccTMHT2f.s 			page 7


 205              	.LVL7:
 206 0170 220000EA 		b	.L23
 207              	.LVL8:
 208              	.L12:
 135:LPC_USB.c     ****     break;
 136:LPC_USB.c     ****   case CMD_USB_GET_DEV_STAT:
 137:LPC_USB.c     ****   case CMD_USB_GET_ERROR:
 138:LPC_USB.c     ****   case CMD_USB_RD_ERROR_STAT:
 139:LPC_USB.c     ****   case CMD_USB_CLR_BUF:
 140:LPC_USB.c     ****     CMD_CODE = ((unsigned int)Command << 16) + USB_DATA_RD;
 209              		.loc 1 140 0
 210 0174 0038A0E1 		mov	r3, r0, asl #16
 211 0178 9C209FE5 		ldr	r2, .L46
 212 017c 023C83E2 		add	r3, r3, #512
 213 0180 103082E5 		str	r3, [r2, #16]
 214              	.L24:
 141:LPC_USB.c     ****     while ((DEV_INT_STAT & USB_CommDataFullInterrupt) == 0);
 215              		.loc 1 141 0
 216 0184 90009FE5 		ldr	r0, .L46
 217              	.LVL9:
 218 0188 003090E5 		ldr	r3, [r0, #0]
 219 018c 200013E3 		tst	r3, #32
 220 0190 FBFFFF0A 		beq	.L24
 221 0194 0E0000EA 		b	.L45
 222              	.LVL10:
 223              	.L10:
 142:LPC_USB.c     ****     tmp = CMD_DATA;
 143:LPC_USB.c     ****     break;
 144:LPC_USB.c     ****   default:
 145:LPC_USB.c     ****     switch (Command & 0xE0)
 224              		.loc 1 145 0
 225 0198 E03000E2 		and	r3, r0, #224
 226 019c 400053E3 		cmp	r3, #64
 227 01a0 0300000A 		beq	.L26
 228 01a4 050D53E3 		cmp	r3, #320
 229 01a8 0B00000A 		beq	.L27
 230 01ac 000053E3 		cmp	r3, #0
 231 01b0 1100001A 		bne	.L18
 232              	.L26:
 146:LPC_USB.c     ****     {
 147:LPC_USB.c     ****     case CMD_USB_SEL_EP:
 148:LPC_USB.c     ****     case CMD_USB_SEL_CLR_INT_EP:
 149:LPC_USB.c     ****       CMD_CODE = ((unsigned int)Command << 16) + USB_DATA_RD;
 233              		.loc 1 149 0
 234 01b4 0038A0E1 		mov	r3, r0, asl #16
 235 01b8 5C209FE5 		ldr	r2, .L46
 236 01bc 023C83E2 		add	r3, r3, #512
 237 01c0 103082E5 		str	r3, [r2, #16]
 238              	.L28:
 150:LPC_USB.c     ****       while ((DEV_INT_STAT & USB_CommDataFullInterrupt) == 0);
 239              		.loc 1 150 0
 240 01c4 50009FE5 		ldr	r0, .L46
 241              	.LVL11:
 242 01c8 003090E5 		ldr	r3, [r0, #0]
 243 01cc 200013E3 		tst	r3, #32
 244 01d0 FBFFFF0A 		beq	.L28
 245              	.L45:
ARM GAS  /cygdrive/c/DOCUME~1/mkwapisz/LOCALS~1/Temp/ccTMHT2f.s 			page 8


 151:LPC_USB.c     ****       tmp = CMD_DATA;
 246              		.loc 1 151 0
 247 01d4 140090E5 		ldr	r0, [r0, #20]
 248              	.LVL12:
 249 01d8 080000EA 		b	.L23
 250              	.LVL13:
 251              	.L27:
 152:LPC_USB.c     ****       break;
 153:LPC_USB.c     ****     case CMD_USB_SET_EP_STAT:
 154:LPC_USB.c     ****       CMD_CODE = ((unsigned int)Data << 16) + USB_DATA_WR;
 252              		.loc 1 154 0
 253 01dc 0C38A0E1 		mov	r3, ip, asl #16
 254 01e0 34209FE5 		ldr	r2, .L46
 255 01e4 013C83E2 		add	r3, r3, #256
 256 01e8 103082E5 		str	r3, [r2, #16]
 257              	.L30:
 155:LPC_USB.c     ****       while ((DEV_INT_STAT & USB_CommRegEmptyInterrupt) == 0);
 258              		.loc 1 155 0
 259 01ec 28309FE5 		ldr	r3, .L46
 260 01f0 003093E5 		ldr	r3, [r3, #0]
 261 01f4 100013E3 		tst	r3, #16
 262 01f8 FBFFFF0A 		beq	.L30
 263              	.L18:
 264 01fc 0000A0E3 		mov	r0, #0
 265              	.LVL14:
 266              	.L23:
 156:LPC_USB.c     ****       break;
 157:LPC_USB.c     ****     }
 158:LPC_USB.c     ****     break;
 159:LPC_USB.c     ****   }
 160:LPC_USB.c     ****   DEV_INT_CLR = USB_CommRegEmptyInterrupt + USB_CommDataFullInterrupt;
 267              		.loc 1 160 0
 268 0200 14309FE5 		ldr	r3, .L46
 269 0204 3020A0E3 		mov	r2, #48
 270 0208 082083E5 		str	r2, [r3, #8]
 271              	.LBB8:
 272              	.LBB9:
 273              		.loc 1 79 0
 274 020c 0EF021E1 		msr cpsr_c, lr  
 275              		
 276              	.LVL15:
 277              	.LBE9:
 278              	.LBE8:
 161:LPC_USB.c     **** 
 162:LPC_USB.c     ****   // restore the interrupt flags
 163:LPC_USB.c     **** //EA  restore_interrupts(cpu_sr);
 164:LPC_USB.c     **** m_os_ena_int();
 279              		.loc 1 164 0
 280 0210 0000A0E1 		 nop
 281              	.LVL16:
 165:LPC_USB.c     **** 
 166:LPC_USB.c     ****   return(tmp);
 167:LPC_USB.c     **** }
 282              		.loc 1 167 0
 283 0214 04E09DE4 		ldr	lr, [sp], #4
 284 0218 1EFF2FE1 		bx	lr
 285              	.L47:
ARM GAS  /cygdrive/c/DOCUME~1/mkwapisz/LOCALS~1/Temp/ccTMHT2f.s 			page 9


 286              		.align	2
 287              	.L46:
 288 021c 000009E0 		.word	-536281088
 289 0220 FE010000 		.word	510
 290              	.LFE5:
 291              		.size	USB_Cmd, .-USB_Cmd
 292              		.align	2
 293              		.global	USB_Init
 294              		.type	USB_Init, %function
 295              	USB_Init:
 296              	.LFB6:
 168:LPC_USB.c     **** 
 169:LPC_USB.c     **** /*************************************************************************
 170:LPC_USB.c     ****  * Function Name: USB_Init
 171:LPC_USB.c     ****  * Parameters: int IntrSlot
 172:LPC_USB.c     ****  *             Fnpr UserIntrCallback
 173:LPC_USB.c     ****  *             USB_DEV_INT_PRIORITY_DEF DevIntrPrio
 174:LPC_USB.c     ****  * Return: USB_ERROR_CODE_DEF
 175:LPC_USB.c     ****  *         USB_OK  0: Pass
 176:LPC_USB.c     ****  *     USB_ERROR   1: Error
 177:LPC_USB.c     ****  * Description: Init USB
 178:LPC_USB.c     ****  *
 179:LPC_USB.c     ****  *************************************************************************/
 180:LPC_USB.c     **** USB_ERROR_CODES_DEF USB_Init(int IntrSlot, Fnpr UserIntrCallback,USB_DEV_INT_PRIORITY_DEF DevIntrPr
 181:LPC_USB.c     **** {
 297              		.loc 1 181 0
 298              		@ Function supports interworking.
 299              		@ args = 0, pretend = 0, frame = 0
 300              		@ frame_needed = 0, uses_anonymous_args = 0
 301              	.LVL17:
 182:LPC_USB.c     **** //EAint p = 1, m = 48000000 / FOSC, Fpll, i;
 183:LPC_USB.c     **** //EAint i;
 184:LPC_USB.c     **** 
 185:LPC_USB.c     **** //EA  if (IntrSlot > VIC_Slot15)
 186:LPC_USB.c     **** //EA  {
 187:LPC_USB.c     **** //EA    return(USB_INTR_ERROR);
 188:LPC_USB.c     **** //EA  }
 189:LPC_USB.c     **** 
 190:LPC_USB.c     ****   /* Turn on USB */
 191:LPC_USB.c     **** //EA  PM_OpenPeripheral(0x80000000);
 192:LPC_USB.c     **** PCONP |= 0x80000000;                      /* Turn On USB PCLK */
 302              		.loc 1 192 0
 303 0224 D4009FE5 		ldr	r0, .L54
 304              	.LVL18:
 305 0228 C43090E5 		ldr	r3, [r0, #196]
 306 022c 023183E3 		orr	r3, r3, #-2147483648
 307 0230 C43080E5 		str	r3, [r0, #196]
 193:LPC_USB.c     **** 
 194:LPC_USB.c     ****   // Enable Vbus sense
 195:LPC_USB.c     **** //EA  PINSEL1_bit.P0_23 = 1;
 196:LPC_USB.c     ****   // 1 - GoodLinc
 197:LPC_USB.c     ****   // 2 - ~Connect
 198:LPC_USB.c     **** //EA  PINSEL1_bit.P0_31 = 2;
 199:LPC_USB.c     ****   PINSEL1  |= 0x80004000;
 308              		.loc 1 199 0
 309 0234 C8C09FE5 		ldr	ip, .L54+4
 310 0238 04309CE5 		ldr	r3, [ip, #4]
ARM GAS  /cygdrive/c/DOCUME~1/mkwapisz/LOCALS~1/Temp/ccTMHT2f.s 			page 10


 311 023c 023183E3 		orr	r3, r3, #-2147483648
 312 0240 013983E3 		orr	r3, r3, #16384
 313 0244 04308CE5 		str	r3, [ip, #4]
 200:LPC_USB.c     **** 
 201:LPC_USB.c     **** 
 202:LPC_USB.c     ****   // Init Pll for USB engine freq - 48MHz
 203:LPC_USB.c     **** #if 0 //EA
 204:LPC_USB.c     ****   PLL48CFG_bit.MSEL = m-1;      //Fosc is define in LPC2148_sys_cnfg.h into [Hz]
 205:LPC_USB.c     ****   PLL48CFG_bit.PSEL = i;
 206:LPC_USB.c     **** 
 207:LPC_USB.c     ****   PLL48CON_bit.PLLE = true;     // Enable PLL
 208:LPC_USB.c     ****   PLL48FEED = PLLFEED_DATA1;
 209:LPC_USB.c     ****   PLL48FEED = PLLFEED_DATA2;
 210:LPC_USB.c     **** 
 211:LPC_USB.c     ****   while (!PLL48STAT_bit.PLOCK); // Wait PLL lock
 212:LPC_USB.c     **** 
 213:LPC_USB.c     ****   PLL48CON_bit.PLLC = true;     // Connect PLL
 214:LPC_USB.c     ****   PLL48FEED = PLLFEED_DATA1;
 215:LPC_USB.c     ****   PLL48FEED = PLLFEED_DATA2;
 216:LPC_USB.c     **** #endif //EA
 217:LPC_USB.c     ****   PLL48CFG  = 0x23;                         /* M = 4, P = 2 */
 314              		.loc 1 217 0
 315 0248 2330A0E3 		mov	r3, #35
 316 024c A43080E5 		str	r3, [r0, #164]
 218:LPC_USB.c     ****   PLL48CON  = PLLCON_PLLE;                  /* PLL Enable */
 317              		.loc 1 218 0
 318 0250 0130A0E3 		mov	r3, #1
 319 0254 A03080E5 		str	r3, [r0, #160]
 219:LPC_USB.c     ****   PLL48FEED = 0xAA;                         /* Feed Sequence 1 */
 320              		.loc 1 219 0
 321 0258 A93083E2 		add	r3, r3, #169
 322 025c AC3080E5 		str	r3, [r0, #172]
 220:LPC_USB.c     ****   PLL48FEED = 0x55;                         /* Feed Sequence 2 */
 323              		.loc 1 220 0
 324 0260 5530A0E3 		mov	r3, #85
 325 0264 AC3080E5 		str	r3, [r0, #172]
 326              		.loc 1 181 0
 327 0268 10402DE9 		stmfd	sp!, {r4, lr}
 328              	.LCFI1:
 329              		.loc 1 181 0
 330 026c 0140A0E1 		mov	r4, r1
 331 0270 02E0A0E1 		mov	lr, r2
 332              	.LVL19:
 333              	.L49:
 221:LPC_USB.c     ****     
 222:LPC_USB.c     ****   while ((PLL48STAT & PLLSTAT_PLOCK) == 0); /* Wait for PLL Lock */
 334              		.loc 1 222 0
 335 0274 84C09FE5 		ldr	ip, .L54
 336 0278 A8309CE5 		ldr	r3, [ip, #168]
 337 027c 010B13E3 		tst	r3, #1024
 338 0280 FBFFFF0A 		beq	.L49
 223:LPC_USB.c     **** 
 224:LPC_USB.c     ****   PLL48CON  = PLLCON_PLLE | PLLCON_PLLC;    /* PLL Enable & Connect */
 339              		.loc 1 224 0
 340 0284 0310A0E3 		mov	r1, #3
 225:LPC_USB.c     ****   PLL48FEED = 0xAA;                         /* Feed Sequence 1 */
 341              		.loc 1 225 0
ARM GAS  /cygdrive/c/DOCUME~1/mkwapisz/LOCALS~1/Temp/ccTMHT2f.s 			page 11


 342 0288 AA30A0E3 		mov	r3, #170
 343              		.loc 1 224 0
 344 028c A0108CE5 		str	r1, [ip, #160]
 345              		.loc 1 225 0
 346 0290 AC308CE5 		str	r3, [ip, #172]
 226:LPC_USB.c     ****   PLL48FEED = 0x55;                         /* Feed Sequence 2 */
 347              		.loc 1 226 0
 348 0294 5530A0E3 		mov	r3, #85
 349 0298 AC308CE5 		str	r3, [ip, #172]
 227:LPC_USB.c     **** 
 228:LPC_USB.c     ****   IntrCallback = UserIntrCallback;
 229:LPC_USB.c     **** 
 230:LPC_USB.c     ****   // USB interrupt connect to VIC
 231:LPC_USB.c     **** //EA  VIC_SetVectoredIRQ(USB_ISR,(LPC_VicIrqSlots_t)IntrSlot,VIC_USB);
 232:LPC_USB.c     **** //EA  VIC_EnableInt(1<<VIC_USB);
 233:LPC_USB.c     ****   VICVectAddr0 = (unsigned long)USB_ISR;    /* USB Interrupt -> Vector 0 */
 350              		.loc 1 233 0
 351 029c 64309FE5 		ldr	r3, .L54+8
 352 02a0 0000E0E3 		mvn	r0, #0
 353 02a4 FF3E00E5 		str	r3, [r0, #-3839]
 234:LPC_USB.c     ****   VICVectCntl0 = 0x20 | 22;                 /* USB Interrupt -> IRQ Slot 0 */
 235:LPC_USB.c     ****   VICIntEnable = 1 << 22;                   /* Enable USB Interrupt */
 236:LPC_USB.c     **** 
 237:LPC_USB.c     ****   // init USB engine
 238:LPC_USB.c     ****   DEV_INT_PRIO   = DevIntrPrio;
 354              		.loc 1 238 0
 355 02a8 5C209FE5 		ldr	r2, .L54+12
 356              		.loc 1 234 0
 357 02ac 3630A0E3 		mov	r3, #54
 358 02b0 FF3D00E5 		str	r3, [r0, #-3583]
 359              		.loc 1 235 0
 360 02b4 0135A0E3 		mov	r3, #4194304
 361 02b8 EF3F00E5 		str	r3, [r0, #-4079]
 362              		.loc 1 238 0
 363 02bc 2CE082E5 		str	lr, [r2, #44]
 364              		.loc 1 228 0
 365 02c0 48309FE5 		ldr	r3, .L54+16
 239:LPC_USB.c     **** 
 240:LPC_USB.c     ****   // EndPoint Init
 241:LPC_USB.c     ****   REALIZE_EP = EP_INT_EN = 0x3;
 366              		.loc 1 241 0
 367 02c4 341082E5 		str	r1, [r2, #52]
 368              		.loc 1 228 0
 369 02c8 004083E5 		str	r4, [r3, #0]
 370              		.loc 1 241 0
 371 02cc 341092E5 		ldr	r1, [r2, #52]
 242:LPC_USB.c     ****   EP_INT_CLR  = 0xFFFFFFFF;
 243:LPC_USB.c     **** 
 244:LPC_USB.c     ****   // Clear all interrupt flags
 245:LPC_USB.c     ****   DEV_INT_CLR = 0x3FF;
 372              		.loc 1 245 0
 373 02d0 3C309FE5 		ldr	r3, .L54+20
 374              		.loc 1 241 0
 375 02d4 441082E5 		str	r1, [r2, #68]
 376              		.loc 1 242 0
 377 02d8 380082E5 		str	r0, [r2, #56]
 378              		.loc 1 245 0
ARM GAS  /cygdrive/c/DOCUME~1/mkwapisz/LOCALS~1/Temp/ccTMHT2f.s 			page 12


 379 02dc 083082E5 		str	r3, [r2, #8]
 246:LPC_USB.c     **** 
 247:LPC_USB.c     ****   // Eanble all interrupts
 248:LPC_USB.c     ****   // without EP Realize, Command Reg Empty, Command Data Reg Full
 249:LPC_USB.c     ****   DEV_INT_EN = 0x20E;
 380              		.loc 1 249 0
 381 02e0 1F3E43E2 		sub	r3, r3, #496
 382 02e4 013043E2 		sub	r3, r3, #1
 383 02e8 043082E5 		str	r3, [r2, #4]
 250:LPC_USB.c     **** 
 251:LPC_USB.c     ****   // Enable USB inerrupt
 252:LPC_USB.c     **** //EA  USBINTS_bit.EN_USB_INTS = 1;
 253:LPC_USB.c     ****   USB_INTS = 0x80000000;
 254:LPC_USB.c     **** //EA TODO
 255:LPC_USB.c     **** 
 256:LPC_USB.c     ****   return (USB_OK);
 257:LPC_USB.c     **** }
 384              		.loc 1 257 0
 385 02ec 010080E2 		add	r0, r0, #1
 386              		.loc 1 253 0
 387 02f0 0231A0E3 		mov	r3, #-2147483648
 388 02f4 C0318CE5 		str	r3, [ip, #448]
 389              		.loc 1 257 0
 390 02f8 1040BDE8 		ldmfd	sp!, {r4, lr}
 391 02fc 1EFF2FE1 		bx	lr
 392              	.L55:
 393              		.align	2
 394              	.L54:
 395 0300 00C01FE0 		.word	-534790144
 396 0304 00C002E0 		.word	-536690688
 397 0308 00000000 		.word	USB_ISR
 398 030c 000009E0 		.word	-536281088
 399 0310 00000000 		.word	IntrCallback
 400 0314 FF030000 		.word	1023
 401              	.LFE6:
 402              		.size	USB_Init, .-USB_Init
 403              		.align	2
 404              		.global	USB_RealizeEndPoint
 405              		.type	USB_RealizeEndPoint, %function
 406              	USB_RealizeEndPoint:
 407              	.LFB7:
 258:LPC_USB.c     **** 
 259:LPC_USB.c     **** /*************************************************************************
 260:LPC_USB.c     ****  * Function Name: USB_RealizeEndPoint
 261:LPC_USB.c     ****  * Parameters: USB_ENDOPINT_DEF EndPoint - endpoiunt index
 262:LPC_USB.c     ****  *             int MaxPacketSize - When is 0 disable relevant endpoint
 263:LPC_USB.c     ****  *             USB_INT_PRIORITY_DEF IntrPriority
 264:LPC_USB.c     ****  *             int IntrEna
 265:LPC_USB.c     ****  * Return: none
 266:LPC_USB.c     ****  * Description: Enable or disable endpoint
 267:LPC_USB.c     ****  *
 268:LPC_USB.c     ****  *************************************************************************/
 269:LPC_USB.c     **** void USB_RealizeEndPoint( USB_ENDOPINT_DEF EndPoint,int MaxPacketSize,
 270:LPC_USB.c     ****                           USB_INT_PRIORITY_DEF IntrPriority, int IntrEna)
 271:LPC_USB.c     **** {
 408              		.loc 1 271 0
 409              		@ Function supports interworking.
ARM GAS  /cygdrive/c/DOCUME~1/mkwapisz/LOCALS~1/Temp/ccTMHT2f.s 			page 13


 410              		@ args = 0, pretend = 0, frame = 0
 411              		@ frame_needed = 0, uses_anonymous_args = 0
 412              	.LVL20:
 413 0318 10402DE9 		stmfd	sp!, {r4, lr}
 414              	.LCFI2:
 272:LPC_USB.c     **** unsigned int Mask = (1 << EndPoint);
 273:LPC_USB.c     ****   if (MaxPacketSize)
 415              		.loc 1 273 0
 416 031c 00C051E2 		subs	ip, r1, #0
 417              		.loc 1 271 0
 418 0320 0340A0E1 		mov	r4, r3
 419              		.loc 1 272 0
 420 0324 0130A0E3 		mov	r3, #1
 421              	.LVL21:
 422              		.loc 1 271 0
 423 0328 02E0A0E1 		mov	lr, r2
 424              		.loc 1 272 0
 425 032c 1310A0E1 		mov	r1, r3, asl r0
 426              	.LVL22:
 427              		.loc 1 273 0
 428 0330 1500000A 		beq	.L57
 429              	.LVL23:
 274:LPC_USB.c     ****   {
 275:LPC_USB.c     ****     // Realize endpoit
 276:LPC_USB.c     ****     REALIZE_EP  |= Mask;
 430              		.loc 1 276 0
 431 0334 78209FE5 		ldr	r2, .L69
 432 0338 443092E5 		ldr	r3, [r2, #68]
 433 033c 013083E1 		orr	r3, r3, r1
 434 0340 443082E5 		str	r3, [r2, #68]
 277:LPC_USB.c     ****     // Set endpoit maximum packet size
 278:LPC_USB.c     ****     EP_INDEX       = EndPoint;
 435              		.loc 1 278 0
 436 0344 480082E5 		str	r0, [r2, #72]
 279:LPC_USB.c     ****     MAXPACKET_SIZE   = MaxPacketSize;
 437              		.loc 1 279 0
 438 0348 4CC082E5 		str	ip, [r2, #76]
 439              	.L59:
 280:LPC_USB.c     ****     // Wait for Realize complete
 281:LPC_USB.c     ****     while ((DEV_INT_STAT & USB_EPRealizeInterrupt) == 0);
 440              		.loc 1 281 0
 441 034c 60209FE5 		ldr	r2, .L69
 442 0350 003092E5 		ldr	r3, [r2, #0]
 443 0354 010C13E3 		tst	r3, #256
 444 0358 FBFFFF0A 		beq	.L59
 282:LPC_USB.c     ****     // Clear Endpoint Realize interrupt flag
 283:LPC_USB.c     ****     DEV_INT_CLR     = USB_EPRealizeInterrupt;
 445              		.loc 1 283 0
 446 035c 013CA0E3 		mov	r3, #256
 447 0360 083082E5 		str	r3, [r2, #8]
 284:LPC_USB.c     ****     // Set endpoint interrupt priority
 285:LPC_USB.c     ****     if (IntrPriority)
 448              		.loc 1 285 0
 449 0364 00005EE3 		cmp	lr, #0
 286:LPC_USB.c     ****     {
 287:LPC_USB.c     ****       EP_INT_PRIO |= Mask;
 450              		.loc 1 287 0
ARM GAS  /cygdrive/c/DOCUME~1/mkwapisz/LOCALS~1/Temp/ccTMHT2f.s 			page 14


 451 0368 40309215 		ldrne	r3, [r2, #64]
 452 036c 01308311 		orrne	r3, r3, r1
 453 0370 40308215 		strne	r3, [r2, #64]
 288:LPC_USB.c     ****     }
 289:LPC_USB.c     ****     // Endpoint interrup flag clear and CDFULL flag!!!
 290:LPC_USB.c     ****     EP_INT_CLR    = Mask;
 454              		.loc 1 290 0
 455 0374 381082E5 		str	r1, [r2, #56]
 291:LPC_USB.c     ****     // Enable endpoint interrup
 292:LPC_USB.c     ****     if (IntrEna) EP_INT_EN |= Mask;
 456              		.loc 1 292 0
 457 0378 000054E3 		cmp	r4, #0
 458 037c 34309215 		ldrne	r3, [r2, #52]
 459 0380 01308311 		orrne	r3, r3, r1
 460 0384 0700001A 		bne	.L68
 461 0388 070000EA 		b	.L65
 462              	.LVL24:
 463              	.L57:
 293:LPC_USB.c     ****   }
 294:LPC_USB.c     ****   else
 295:LPC_USB.c     ****   {
 296:LPC_USB.c     ****     Mask =~ Mask;
 297:LPC_USB.c     ****     // Disable relevant endpoint and interrupt
 298:LPC_USB.c     ****     REALIZE_EP &= Mask;
 464              		.loc 1 298 0
 465 038c 20209FE5 		ldr	r2, .L69
 466 0390 443092E5 		ldr	r3, [r2, #68]
 467              		.loc 1 296 0
 468 0394 0110E0E1 		mvn	r1, r1
 469              	.LVL25:
 470              		.loc 1 298 0
 471 0398 013003E0 		and	r3, r3, r1
 472 039c 443082E5 		str	r3, [r2, #68]
 299:LPC_USB.c     ****     EP_INT_EN &= Mask;
 473              		.loc 1 299 0
 474 03a0 343092E5 		ldr	r3, [r2, #52]
 475 03a4 013003E0 		and	r3, r3, r1
 476              	.LVL26:
 477              	.L68:
 478 03a8 343082E5 		str	r3, [r2, #52]
 479              	.L65:
 300:LPC_USB.c     ****   }
 301:LPC_USB.c     **** }
 480              		.loc 1 301 0
 481 03ac 1040BDE8 		ldmfd	sp!, {r4, lr}
 482 03b0 1EFF2FE1 		bx	lr
 483              	.L70:
 484              		.align	2
 485              	.L69:
 486 03b4 000009E0 		.word	-536281088
 487              	.LFE7:
 488              		.size	USB_RealizeEndPoint, .-USB_RealizeEndPoint
 489              		.align	2
 490              		.global	USB_ClearBuffer
 491              		.type	USB_ClearBuffer, %function
 492              	USB_ClearBuffer:
 493              	.LFB8:
ARM GAS  /cygdrive/c/DOCUME~1/mkwapisz/LOCALS~1/Temp/ccTMHT2f.s 			page 15


 302:LPC_USB.c     **** 
 303:LPC_USB.c     **** /*************************************************************************
 304:LPC_USB.c     ****  * Function Name: USB_ClearBuffer
 305:LPC_USB.c     ****  * Parameters: USB_ENDOPINT_DEF EndPoint - endpoiunt index
 306:LPC_USB.c     ****  * Return: Packet overwrite statrus
 307:LPC_USB.c     ****  * Description: Clear buffer of the corresponding endpoint
 308:LPC_USB.c     ****  *
 309:LPC_USB.c     ****  *************************************************************************/
 310:LPC_USB.c     **** unsigned int USB_ClearBuffer(USB_ENDOPINT_DEF EndPoint)
 311:LPC_USB.c     **** {
 494              		.loc 1 311 0
 495              		@ Function supports interworking.
 496              		@ args = 0, pretend = 0, frame = 0
 497              		@ frame_needed = 0, uses_anonymous_args = 0
 498              	.LVL27:
 312:LPC_USB.c     ****   // Select endpoint
 313:LPC_USB.c     ****   USB_Cmd(CMD_USB_SEL_EP | EndPoint,0);
 499              		.loc 1 313 0
 500 03b8 0008A0E1 		mov	r0, r0, asl #16
 501              	.LVL28:
 502              		.loc 1 311 0
 503 03bc 04E02DE5 		str	lr, [sp, #-4]!
 504              	.LCFI3:
 505              		.loc 1 313 0
 506 03c0 0010A0E3 		mov	r1, #0
 507 03c4 2008A0E1 		mov	r0, r0, lsr #16
 508 03c8 FEFFFFEB 		bl	USB_Cmd
 314:LPC_USB.c     ****   // Clear selected end point
 315:LPC_USB.c     ****   return(USB_Cmd(CMD_USB_CLR_BUF,0));
 509              		.loc 1 315 0
 510 03cc F200A0E3 		mov	r0, #242
 511 03d0 0010A0E3 		mov	r1, #0
 316:LPC_USB.c     **** }
 512              		.loc 1 316 0
 513 03d4 04E09DE4 		ldr	lr, [sp], #4
 514              		.loc 1 315 0
 515 03d8 FEFFFFEA 		b	USB_Cmd
 516              	.LFE8:
 517              		.size	USB_ClearBuffer, .-USB_ClearBuffer
 518              		.align	2
 519              		.global	USB_ValidateBuffer
 520              		.type	USB_ValidateBuffer, %function
 521              	USB_ValidateBuffer:
 522              	.LFB9:
 317:LPC_USB.c     **** 
 318:LPC_USB.c     **** /*************************************************************************
 319:LPC_USB.c     ****  * Function Name: USB_ValidateBuffer
 320:LPC_USB.c     ****  * Parameters: USB_ENDOPINT_DEF EndPoint - endpoiunt index
 321:LPC_USB.c     ****  * Return: none
 322:LPC_USB.c     ****  * Description: Validate buffer only of IN Endpoint
 323:LPC_USB.c     ****  *
 324:LPC_USB.c     ****  *************************************************************************/
 325:LPC_USB.c     **** void USB_ValidateBuffer(USB_ENDOPINT_DEF EndPoint)
 326:LPC_USB.c     **** {
 523              		.loc 1 326 0
 524              		@ Function supports interworking.
 525              		@ args = 0, pretend = 0, frame = 0
ARM GAS  /cygdrive/c/DOCUME~1/mkwapisz/LOCALS~1/Temp/ccTMHT2f.s 			page 16


 526              		@ frame_needed = 0, uses_anonymous_args = 0
 527              	.LVL29:
 528 03dc 0030A0E1 		mov	r3, r0
 327:LPC_USB.c     ****   if (EndPoint & 1)
 529              		.loc 1 327 0
 530 03e0 010013E3 		tst	r3, #1
 328:LPC_USB.c     ****   {
 329:LPC_USB.c     ****     USB_Cmd(CMD_USB_SEL_EP | EndPoint,0);
 531              		.loc 1 329 0
 532 03e4 0008A0E1 		mov	r0, r0, asl #16
 533              	.LVL30:
 534              		.loc 1 326 0
 535 03e8 04E02DE5 		str	lr, [sp, #-4]!
 536              	.LCFI4:
 537              		.loc 1 329 0
 538 03ec 0010A0E3 		mov	r1, #0
 539 03f0 2008A0E1 		mov	r0, r0, lsr #16
 540              		.loc 1 327 0
 541 03f4 0400000A 		beq	.L76
 542              		.loc 1 329 0
 543 03f8 FEFFFFEB 		bl	USB_Cmd
 544              	.LVL31:
 330:LPC_USB.c     ****     USB_Cmd(CMD_USB_VAL_BUF,0);
 545              		.loc 1 330 0
 546 03fc FA00A0E3 		mov	r0, #250
 547 0400 0010A0E3 		mov	r1, #0
 331:LPC_USB.c     ****   }
 332:LPC_USB.c     **** }
 548              		.loc 1 332 0
 549 0404 04E09DE4 		ldr	lr, [sp], #4
 550              		.loc 1 330 0
 551 0408 FEFFFFEA 		b	USB_Cmd
 552              	.LVL32:
 553              	.L76:
 554              		.loc 1 332 0
 555 040c 04E09DE4 		ldr	lr, [sp], #4
 556 0410 1EFF2FE1 		bx	lr
 557              	.LFE9:
 558              		.size	USB_ValidateBuffer, .-USB_ValidateBuffer
 559              		.align	2
 560              		.global	USB_SetAdd
 561              		.type	USB_SetAdd, %function
 562              	USB_SetAdd:
 563              	.LFB10:
 333:LPC_USB.c     **** 
 334:LPC_USB.c     **** /*************************************************************************
 335:LPC_USB.c     ****  * Function Name: USB_SetAdd
 336:LPC_USB.c     ****  * Parameters: unsigned int DevAdd - defice address between 0 - 127
 337:LPC_USB.c     ****  * Return: none
 338:LPC_USB.c     ****  * Description: Set device address
 339:LPC_USB.c     ****  *
 340:LPC_USB.c     ****  *************************************************************************/
 341:LPC_USB.c     **** void USB_SetAdd(unsigned int DevAdd)
 342:LPC_USB.c     **** {
 564              		.loc 1 342 0
 565              		@ Function supports interworking.
 566              		@ args = 0, pretend = 0, frame = 0
ARM GAS  /cygdrive/c/DOCUME~1/mkwapisz/LOCALS~1/Temp/ccTMHT2f.s 			page 17


 567              		@ frame_needed = 0, uses_anonymous_args = 0
 568              	.LVL33:
 569 0414 30402DE9 		stmfd	sp!, {r4, r5, lr}
 570              	.LCFI5:
 571              		.loc 1 342 0
 572 0418 0050A0E1 		mov	r5, r0
 573 041c 0240A0E3 		mov	r4, #2
 574              	.LVL34:
 575              	.LVL35:
 576              	.L78:
 343:LPC_USB.c     **** 	int i;
 344:LPC_USB.c     ****   for(i=2;i;--i)
 345:LPC_USB.c     ****   {
 346:LPC_USB.c     ****     USB_Cmd(CMD_USB_SET_ADDRESS,DevAdd | 0x80);
 577              		.loc 1 346 0
 578 0420 851CE0E1 		mvn	r1, r5, asl #25
 579 0424 A11CE0E1 		mvn	r1, r1, lsr #25
 580 0428 FF1001E2 		and	r1, r1, #255
 581 042c D000A0E3 		mov	r0, #208
 582 0430 FEFFFFEB 		bl	USB_Cmd
 583              		.loc 1 344 0
 584 0434 014054E2 		subs	r4, r4, #1
 585 0438 F8FFFF1A 		bne	.L78
 347:LPC_USB.c     ****   }
 348:LPC_USB.c     **** }
 586              		.loc 1 348 0
 587 043c 3040BDE8 		ldmfd	sp!, {r4, r5, lr}
 588 0440 1EFF2FE1 		bx	lr
 589              	.LFE10:
 590              		.size	USB_SetAdd, .-USB_SetAdd
 591              		.align	2
 592              		.global	USB_ISR
 593              		.type	USB_ISR, %function
 594              	USB_ISR:
 595              	.LFB11:
 349:LPC_USB.c     **** 
 350:LPC_USB.c     **** /*************************************************************************
 351:LPC_USB.c     ****  * Function Name: USB_ISR
 352:LPC_USB.c     ****  * Parameters: none
 353:LPC_USB.c     ****  * Return: none
 354:LPC_USB.c     ****  * Description: USB interrupt subroutine
 355:LPC_USB.c     ****  *
 356:LPC_USB.c     ****  *************************************************************************/
 357:LPC_USB.c     **** void USB_ISR (void)
 358:LPC_USB.c     **** {
 596              		.loc 1 358 0
 597              		@ Function supports interworking.
 598              		@ args = 0, pretend = 0, frame = 0
 599              		@ frame_needed = 0, uses_anonymous_args = 0
 359:LPC_USB.c     ****   IntrCallback();
 600              		.loc 1 359 0
 601 0444 20309FE5 		ldr	r3, .L85
 602              		.loc 1 358 0
 603 0448 04E02DE5 		str	lr, [sp, #-4]!
 604              	.LCFI6:
 605              		.loc 1 359 0
 606 044c 00C093E5 		ldr	ip, [r3, #0]
ARM GAS  /cygdrive/c/DOCUME~1/mkwapisz/LOCALS~1/Temp/ccTMHT2f.s 			page 18


 607 0450 0FE0A0E1 		mov	lr, pc
 608 0454 1CFF2FE1 		bx	ip
 360:LPC_USB.c     ****   VICVectAddr = 0;    // Clear interrupt in VIC.
 609              		.loc 1 360 0
 610 0458 0020A0E3 		mov	r2, #0
 611 045c 0030E0E3 		mvn	r3, #0
 612 0460 CF2F03E5 		str	r2, [r3, #-4047]
 361:LPC_USB.c     **** }
 613              		.loc 1 361 0
 614 0464 04E09DE4 		ldr	lr, [sp], #4
 615 0468 1EFF2FE1 		bx	lr
 616              	.L86:
 617              		.align	2
 618              	.L85:
 619 046c 00000000 		.word	IntrCallback
 620              	.LFE11:
 621              		.size	USB_ISR, .-USB_ISR
 622              		.comm	IntrCallback,4,4
 623              		.section	.debug_frame,"",%progbits
 624              	.Lframe0:
 625 0000 0C000000 		.4byte	.LECIE0-.LSCIE0
 626              	.LSCIE0:
 627 0004 FFFFFFFF 		.4byte	0xffffffff
 628 0008 01       		.byte	0x1
 629 0009 00       		.ascii	"\000"
 630 000a 01       		.uleb128 0x1
 631 000b 7C       		.sleb128 -4
 632 000c 0E       		.byte	0xe
 633 000d 0C       		.byte	0xc
 634 000e 0D       		.uleb128 0xd
 635 000f 00       		.uleb128 0x0
 636              		.align	2
 637              	.LECIE0:
 638              	.LSFDE0:
 639 0010 0C000000 		.4byte	.LEFDE0-.LASFDE0
 640              	.LASFDE0:
 641 0014 00000000 		.4byte	.Lframe0
 642 0018 00000000 		.4byte	.LFB2
 643 001c 20000000 		.4byte	.LFE2-.LFB2
 644              		.align	2
 645              	.LEFDE0:
 646              	.LSFDE2:
 647 0020 0C000000 		.4byte	.LEFDE2-.LASFDE2
 648              	.LASFDE2:
 649 0024 00000000 		.4byte	.Lframe0
 650 0028 20000000 		.4byte	.LFB3
 651 002c 10000000 		.4byte	.LFE3-.LFB3
 652              		.align	2
 653              	.LEFDE2:
 654              	.LSFDE4:
 655 0030 0C000000 		.4byte	.LEFDE4-.LASFDE4
 656              	.LASFDE4:
 657 0034 00000000 		.4byte	.Lframe0
 658 0038 30000000 		.4byte	.LFB4
 659 003c 08000000 		.4byte	.LFE4-.LFB4
 660              		.align	2
 661              	.LEFDE4:
ARM GAS  /cygdrive/c/DOCUME~1/mkwapisz/LOCALS~1/Temp/ccTMHT2f.s 			page 19


 662              	.LSFDE6:
 663 0040 14000000 		.4byte	.LEFDE6-.LASFDE6
 664              	.LASFDE6:
 665 0044 00000000 		.4byte	.Lframe0
 666 0048 38000000 		.4byte	.LFB5
 667 004c EC010000 		.4byte	.LFE5-.LFB5
 668 0050 48       		.byte	0x4
 669              		.4byte	.LCFI0-.LFB5
 670 0051 0E       		.byte	0xe
 671 0052 04       		.uleb128 0x4
 672 0053 8E       		.byte	0x8e
 673 0054 01       		.uleb128 0x1
 674 0055 000000   		.align	2
 675              	.LEFDE6:
 676              	.LSFDE8:
 677 0058 14000000 		.4byte	.LEFDE8-.LASFDE8
 678              	.LASFDE8:
 679 005c 00000000 		.4byte	.Lframe0
 680 0060 24020000 		.4byte	.LFB6
 681 0064 F4000000 		.4byte	.LFE6-.LFB6
 682 0068 02       		.byte	0x4
 683 0069 48       		.4byte	.LCFI1-.LFB6
 684 006a 0E       		.byte	0xe
 685 006b 08       		.uleb128 0x8
 686 006c 8E       		.byte	0x8e
 687 006d 01       		.uleb128 0x1
 688 006e 84       		.byte	0x84
 689 006f 02       		.uleb128 0x2
 690              		.align	2
 691              	.LEFDE8:
 692              	.LSFDE10:
 693 0070 14000000 		.4byte	.LEFDE10-.LASFDE10
 694              	.LASFDE10:
 695 0074 00000000 		.4byte	.Lframe0
 696 0078 18030000 		.4byte	.LFB7
 697 007c A0000000 		.4byte	.LFE7-.LFB7
 698 0080 44       		.byte	0x4
 699              		.4byte	.LCFI2-.LFB7
 700 0081 0E       		.byte	0xe
 701 0082 08       		.uleb128 0x8
 702 0083 8E       		.byte	0x8e
 703 0084 01       		.uleb128 0x1
 704 0085 84       		.byte	0x84
 705 0086 02       		.uleb128 0x2
 706 0087 00       		.align	2
 707              	.LEFDE10:
 708              	.LSFDE12:
 709 0088 14000000 		.4byte	.LEFDE12-.LASFDE12
 710              	.LASFDE12:
 711 008c 00000000 		.4byte	.Lframe0
 712 0090 B8030000 		.4byte	.LFB8
 713 0094 24000000 		.4byte	.LFE8-.LFB8
 714 0098 48       		.byte	0x4
 715              		.4byte	.LCFI3-.LFB8
 716 0099 0E       		.byte	0xe
 717 009a 04       		.uleb128 0x4
 718 009b 8E       		.byte	0x8e
ARM GAS  /cygdrive/c/DOCUME~1/mkwapisz/LOCALS~1/Temp/ccTMHT2f.s 			page 20


 719 009c 01       		.uleb128 0x1
 720 009d 000000   		.align	2
 721              	.LEFDE12:
 722              	.LSFDE14:
 723 00a0 14000000 		.4byte	.LEFDE14-.LASFDE14
 724              	.LASFDE14:
 725 00a4 00000000 		.4byte	.Lframe0
 726 00a8 DC030000 		.4byte	.LFB9
 727 00ac 38000000 		.4byte	.LFE9-.LFB9
 728 00b0 50       		.byte	0x4
 729              		.4byte	.LCFI4-.LFB9
 730 00b1 0E       		.byte	0xe
 731 00b2 04       		.uleb128 0x4
 732 00b3 8E       		.byte	0x8e
 733 00b4 01       		.uleb128 0x1
 734 00b5 000000   		.align	2
 735              	.LEFDE14:
 736              	.LSFDE16:
 737 00b8 18000000 		.4byte	.LEFDE16-.LASFDE16
 738              	.LASFDE16:
 739 00bc 00000000 		.4byte	.Lframe0
 740 00c0 14040000 		.4byte	.LFB10
 741 00c4 30000000 		.4byte	.LFE10-.LFB10
 742 00c8 44       		.byte	0x4
 743              		.4byte	.LCFI5-.LFB10
 744 00c9 0E       		.byte	0xe
 745 00ca 0C       		.uleb128 0xc
 746 00cb 8E       		.byte	0x8e
 747 00cc 01       		.uleb128 0x1
 748 00cd 85       		.byte	0x85
 749 00ce 02       		.uleb128 0x2
 750 00cf 84       		.byte	0x84
 751 00d0 03       		.uleb128 0x3
 752 00d1 000000   		.align	2
 753              	.LEFDE16:
 754              	.LSFDE18:
 755 00d4 14000000 		.4byte	.LEFDE18-.LASFDE18
 756              	.LASFDE18:
 757 00d8 00000000 		.4byte	.Lframe0
 758 00dc 44040000 		.4byte	.LFB11
 759 00e0 2C000000 		.4byte	.LFE11-.LFB11
 760 00e4 48       		.byte	0x4
 761              		.4byte	.LCFI6-.LFB11
 762 00e5 0E       		.byte	0xe
 763 00e6 04       		.uleb128 0x4
 764 00e7 8E       		.byte	0x8e
 765 00e8 01       		.uleb128 0x1
 766 00e9 000000   		.align	2
 767              	.LEFDE18:
 768              		.file 2 "lpc_usb.h"
 769              		.text
 770              	.Letext0:
 771              		.section	.debug_loc,"",%progbits
 772              	.Ldebug_loc0:
 773              	.LLST3:
 774 0000 38000000 		.4byte	.LFB5-.Ltext0
 775 0004 40000000 		.4byte	.LCFI0-.Ltext0
ARM GAS  /cygdrive/c/DOCUME~1/mkwapisz/LOCALS~1/Temp/ccTMHT2f.s 			page 21


 776 0008 0100     		.2byte	0x1
 777 000a 5D       		.byte	0x5d
 778 000b 40000000 		.4byte	.LCFI0-.Ltext0
 779 000f 24020000 		.4byte	.LFE5-.Ltext0
 780 0013 0200     		.2byte	0x2
 781 0015 7D       		.byte	0x7d
 782 0016 04       		.sleb128 4
 783 0017 00000000 		.4byte	0x0
 784 001b 00000000 		.4byte	0x0
 785              	.LLST4:
 786 001f 38000000 		.4byte	.LVL1-.Ltext0
 787 0023 3C000000 		.4byte	.LVL2-.Ltext0
 788 0027 0100     		.2byte	0x1
 789 0029 50       		.byte	0x50
 790 002a 44000000 		.4byte	.LVL3-.Ltext0
 791 002e 28010000 		.4byte	.LVL5-.Ltext0
 792 0032 0100     		.2byte	0x1
 793 0034 50       		.byte	0x50
 794 0035 74010000 		.4byte	.LVL8-.Ltext0
 795 0039 88010000 		.4byte	.LVL9-.Ltext0
 796 003d 0100     		.2byte	0x1
 797 003f 50       		.byte	0x50
 798 0040 98010000 		.4byte	.LVL10-.Ltext0
 799 0044 C8010000 		.4byte	.LVL11-.Ltext0
 800 0048 0100     		.2byte	0x1
 801 004a 50       		.byte	0x50
 802 004b DC010000 		.4byte	.LVL13-.Ltext0
 803 004f 00020000 		.4byte	.LVL14-.Ltext0
 804 0053 0100     		.2byte	0x1
 805 0055 50       		.byte	0x50
 806 0056 00000000 		.4byte	0x0
 807 005a 00000000 		.4byte	0x0
 808              	.LLST5:
 809 005e 38000000 		.4byte	.LVL1-.Ltext0
 810 0062 64000000 		.4byte	.LVL4-.Ltext0
 811 0066 0100     		.2byte	0x1
 812 0068 51       		.byte	0x51
 813 0069 64000000 		.4byte	.LVL4-.Ltext0
 814 006d 24020000 		.4byte	.LFE5-.Ltext0
 815 0071 0100     		.2byte	0x1
 816 0073 5C       		.byte	0x5c
 817 0074 00000000 		.4byte	0x0
 818 0078 00000000 		.4byte	0x0
 819              	.LLST6:
 820 007c 4C010000 		.4byte	.LVL6-.Ltext0
 821 0080 70010000 		.4byte	.LVL7-.Ltext0
 822 0084 0100     		.2byte	0x1
 823 0086 51       		.byte	0x51
 824 0087 70010000 		.4byte	.LVL7-.Ltext0
 825 008b 74010000 		.4byte	.LVL8-.Ltext0
 826 008f 0100     		.2byte	0x1
 827 0091 50       		.byte	0x50
 828 0092 D8010000 		.4byte	.LVL12-.Ltext0
 829 0096 DC010000 		.4byte	.LVL13-.Ltext0
 830 009a 0100     		.2byte	0x1
 831 009c 50       		.byte	0x50
 832 009d 00020000 		.4byte	.LVL14-.Ltext0
ARM GAS  /cygdrive/c/DOCUME~1/mkwapisz/LOCALS~1/Temp/ccTMHT2f.s 			page 22


 833 00a1 00020000 		.4byte	.LVL14-.Ltext0
 834 00a5 0100     		.2byte	0x1
 835 00a7 50       		.byte	0x50
 836 00a8 00020000 		.4byte	.LVL14-.Ltext0
 837 00ac 10020000 		.4byte	.LVL15-.Ltext0
 838 00b0 0100     		.2byte	0x1
 839 00b2 51       		.byte	0x51
 840 00b3 00000000 		.4byte	0x0
 841 00b7 00000000 		.4byte	0x0
 842              	.LLST7:
 843 00bb 24020000 		.4byte	.LFB6-.Ltext0
 844 00bf 6C020000 		.4byte	.LCFI1-.Ltext0
 845 00c3 0100     		.2byte	0x1
 846 00c5 5D       		.byte	0x5d
 847 00c6 6C020000 		.4byte	.LCFI1-.Ltext0
 848 00ca 18030000 		.4byte	.LFE6-.Ltext0
 849 00ce 0200     		.2byte	0x2
 850 00d0 7D       		.byte	0x7d
 851 00d1 08       		.sleb128 8
 852 00d2 00000000 		.4byte	0x0
 853 00d6 00000000 		.4byte	0x0
 854              	.LLST8:
 855 00da 24020000 		.4byte	.LVL17-.Ltext0
 856 00de 28020000 		.4byte	.LVL18-.Ltext0
 857 00e2 0100     		.2byte	0x1
 858 00e4 50       		.byte	0x50
 859 00e5 00000000 		.4byte	0x0
 860 00e9 00000000 		.4byte	0x0
 861              	.LLST9:
 862 00ed 24020000 		.4byte	.LVL17-.Ltext0
 863 00f1 74020000 		.4byte	.LVL19-.Ltext0
 864 00f5 0100     		.2byte	0x1
 865 00f7 51       		.byte	0x51
 866 00f8 74020000 		.4byte	.LVL19-.Ltext0
 867 00fc 18030000 		.4byte	.LFE6-.Ltext0
 868 0100 0100     		.2byte	0x1
 869 0102 54       		.byte	0x54
 870 0103 00000000 		.4byte	0x0
 871 0107 00000000 		.4byte	0x0
 872              	.LLST10:
 873 010b 24020000 		.4byte	.LVL17-.Ltext0
 874 010f 74020000 		.4byte	.LVL19-.Ltext0
 875 0113 0100     		.2byte	0x1
 876 0115 52       		.byte	0x52
 877 0116 74020000 		.4byte	.LVL19-.Ltext0
 878 011a 18030000 		.4byte	.LFE6-.Ltext0
 879 011e 0100     		.2byte	0x1
 880 0120 5E       		.byte	0x5e
 881 0121 00000000 		.4byte	0x0
 882 0125 00000000 		.4byte	0x0
 883              	.LLST11:
 884 0129 18030000 		.4byte	.LFB7-.Ltext0
 885 012d 1C030000 		.4byte	.LCFI2-.Ltext0
 886 0131 0100     		.2byte	0x1
 887 0133 5D       		.byte	0x5d
 888 0134 1C030000 		.4byte	.LCFI2-.Ltext0
 889 0138 B8030000 		.4byte	.LFE7-.Ltext0
ARM GAS  /cygdrive/c/DOCUME~1/mkwapisz/LOCALS~1/Temp/ccTMHT2f.s 			page 23


 890 013c 0200     		.2byte	0x2
 891 013e 7D       		.byte	0x7d
 892 013f 08       		.sleb128 8
 893 0140 00000000 		.4byte	0x0
 894 0144 00000000 		.4byte	0x0
 895              	.LLST12:
 896 0148 18030000 		.4byte	.LVL20-.Ltext0
 897 014c 30030000 		.4byte	.LVL22-.Ltext0
 898 0150 0100     		.2byte	0x1
 899 0152 51       		.byte	0x51
 900 0153 30030000 		.4byte	.LVL22-.Ltext0
 901 0157 B8030000 		.4byte	.LFE7-.Ltext0
 902 015b 0100     		.2byte	0x1
 903 015d 5C       		.byte	0x5c
 904 015e 00000000 		.4byte	0x0
 905 0162 00000000 		.4byte	0x0
 906              	.LLST13:
 907 0166 18030000 		.4byte	.LVL20-.Ltext0
 908 016a 34030000 		.4byte	.LVL23-.Ltext0
 909 016e 0100     		.2byte	0x1
 910 0170 52       		.byte	0x52
 911 0171 34030000 		.4byte	.LVL23-.Ltext0
 912 0175 B8030000 		.4byte	.LFE7-.Ltext0
 913 0179 0100     		.2byte	0x1
 914 017b 5E       		.byte	0x5e
 915 017c 00000000 		.4byte	0x0
 916 0180 00000000 		.4byte	0x0
 917              	.LLST14:
 918 0184 18030000 		.4byte	.LVL20-.Ltext0
 919 0188 28030000 		.4byte	.LVL21-.Ltext0
 920 018c 0100     		.2byte	0x1
 921 018e 53       		.byte	0x53
 922 018f 28030000 		.4byte	.LVL21-.Ltext0
 923 0193 B8030000 		.4byte	.LFE7-.Ltext0
 924 0197 0100     		.2byte	0x1
 925 0199 54       		.byte	0x54
 926 019a 00000000 		.4byte	0x0
 927 019e 00000000 		.4byte	0x0
 928              	.LLST15:
 929 01a2 30030000 		.4byte	.LVL22-.Ltext0
 930 01a6 98030000 		.4byte	.LVL25-.Ltext0
 931 01aa 0100     		.2byte	0x1
 932 01ac 51       		.byte	0x51
 933 01ad A8030000 		.4byte	.LVL26-.Ltext0
 934 01b1 B8030000 		.4byte	.LFE7-.Ltext0
 935 01b5 0100     		.2byte	0x1
 936 01b7 51       		.byte	0x51
 937 01b8 00000000 		.4byte	0x0
 938 01bc 00000000 		.4byte	0x0
 939              	.LLST16:
 940 01c0 B8030000 		.4byte	.LFB8-.Ltext0
 941 01c4 C0030000 		.4byte	.LCFI3-.Ltext0
 942 01c8 0100     		.2byte	0x1
 943 01ca 5D       		.byte	0x5d
 944 01cb C0030000 		.4byte	.LCFI3-.Ltext0
 945 01cf DC030000 		.4byte	.LFE8-.Ltext0
 946 01d3 0200     		.2byte	0x2
ARM GAS  /cygdrive/c/DOCUME~1/mkwapisz/LOCALS~1/Temp/ccTMHT2f.s 			page 24


 947 01d5 7D       		.byte	0x7d
 948 01d6 04       		.sleb128 4
 949 01d7 00000000 		.4byte	0x0
 950 01db 00000000 		.4byte	0x0
 951              	.LLST17:
 952 01df B8030000 		.4byte	.LVL27-.Ltext0
 953 01e3 BC030000 		.4byte	.LVL28-.Ltext0
 954 01e7 0100     		.2byte	0x1
 955 01e9 50       		.byte	0x50
 956 01ea 00000000 		.4byte	0x0
 957 01ee 00000000 		.4byte	0x0
 958              	.LLST18:
 959 01f2 DC030000 		.4byte	.LFB9-.Ltext0
 960 01f6 EC030000 		.4byte	.LCFI4-.Ltext0
 961 01fa 0100     		.2byte	0x1
 962 01fc 5D       		.byte	0x5d
 963 01fd EC030000 		.4byte	.LCFI4-.Ltext0
 964 0201 14040000 		.4byte	.LFE9-.Ltext0
 965 0205 0200     		.2byte	0x2
 966 0207 7D       		.byte	0x7d
 967 0208 04       		.sleb128 4
 968 0209 00000000 		.4byte	0x0
 969 020d 00000000 		.4byte	0x0
 970              	.LLST19:
 971 0211 DC030000 		.4byte	.LVL29-.Ltext0
 972 0215 E8030000 		.4byte	.LVL30-.Ltext0
 973 0219 0100     		.2byte	0x1
 974 021b 50       		.byte	0x50
 975 021c E8030000 		.4byte	.LVL30-.Ltext0
 976 0220 FC030000 		.4byte	.LVL31-.Ltext0
 977 0224 0100     		.2byte	0x1
 978 0226 53       		.byte	0x53
 979 0227 0C040000 		.4byte	.LVL32-.Ltext0
 980 022b 14040000 		.4byte	.LFE9-.Ltext0
 981 022f 0100     		.2byte	0x1
 982 0231 53       		.byte	0x53
 983 0232 00000000 		.4byte	0x0
 984 0236 00000000 		.4byte	0x0
 985              	.LLST20:
 986 023a 14040000 		.4byte	.LFB10-.Ltext0
 987 023e 18040000 		.4byte	.LCFI5-.Ltext0
 988 0242 0100     		.2byte	0x1
 989 0244 5D       		.byte	0x5d
 990 0245 18040000 		.4byte	.LCFI5-.Ltext0
 991 0249 44040000 		.4byte	.LFE10-.Ltext0
 992 024d 0200     		.2byte	0x2
 993 024f 7D       		.byte	0x7d
 994 0250 0C       		.sleb128 12
 995 0251 00000000 		.4byte	0x0
 996 0255 00000000 		.4byte	0x0
 997              	.LLST21:
 998 0259 14040000 		.4byte	.LVL33-.Ltext0
 999 025d 20040000 		.4byte	.LVL35-.Ltext0
 1000 0261 0100     		.2byte	0x1
 1001 0263 50       		.byte	0x50
 1002 0264 20040000 		.4byte	.LVL35-.Ltext0
 1003 0268 44040000 		.4byte	.LFE10-.Ltext0
ARM GAS  /cygdrive/c/DOCUME~1/mkwapisz/LOCALS~1/Temp/ccTMHT2f.s 			page 25


 1004 026c 0100     		.2byte	0x1
 1005 026e 55       		.byte	0x55
 1006 026f 00000000 		.4byte	0x0
 1007 0273 00000000 		.4byte	0x0
 1008              	.LLST22:
 1009 0277 44040000 		.4byte	.LFB11-.Ltext0
 1010 027b 4C040000 		.4byte	.LCFI6-.Ltext0
 1011 027f 0100     		.2byte	0x1
 1012 0281 5D       		.byte	0x5d
 1013 0282 4C040000 		.4byte	.LCFI6-.Ltext0
 1014 0286 70040000 		.4byte	.LFE11-.Ltext0
 1015 028a 0200     		.2byte	0x2
 1016 028c 7D       		.byte	0x7d
 1017 028d 04       		.sleb128 4
 1018 028e 00000000 		.4byte	0x0
 1019 0292 00000000 		.4byte	0x0
 1020              		.section	.debug_info
 1021 0000 0D040000 		.4byte	0x40d
 1022 0004 0200     		.2byte	0x2
 1023 0006 00000000 		.4byte	.Ldebug_abbrev0
 1024 000a 04       		.byte	0x4
 1025 000b 01       		.uleb128 0x1
 1026 000c 00000000 		.4byte	.Ldebug_line0
 1027 0010 70040000 		.4byte	.Letext0
 1028 0014 00000000 		.4byte	.Ltext0
 1029 0018 98010000 		.4byte	.LASF73
 1030 001c 01       		.byte	0x1
 1031 001d 6F010000 		.4byte	.LASF74
 1032 0021 91020000 		.4byte	.LASF75
 1033 0025 02       		.uleb128 0x2
 1034 0026 40000000 		.4byte	0x40
 1035 002a 04       		.byte	0x4
 1036 002b 02       		.byte	0x2
 1037 002c 0A       		.byte	0xa
 1038 002d 03       		.uleb128 0x3
 1039 002e 81030000 		.4byte	.LASF0
 1040 0032 00       		.sleb128 0
 1041 0033 03       		.uleb128 0x3
 1042 0034 30030000 		.4byte	.LASF1
 1043 0038 01       		.sleb128 1
 1044 0039 03       		.uleb128 0x3
 1045 003a 8A000000 		.4byte	.LASF2
 1046 003e 02       		.sleb128 2
 1047 003f 00       		.byte	0x0
 1048 0040 04       		.uleb128 0x4
 1049 0041 52000000 		.4byte	.LASF35
 1050 0045 02       		.byte	0x2
 1051 0046 0C       		.byte	0xc
 1052 0047 25000000 		.4byte	0x25
 1053 004b 02       		.uleb128 0x2
 1054 004c 14010000 		.4byte	0x114
 1055 0050 04       		.byte	0x4
 1056 0051 02       		.byte	0x2
 1057 0052 0F       		.byte	0xf
 1058 0053 03       		.uleb128 0x3
 1059 0054 28010000 		.4byte	.LASF3
 1060 0058 00       		.sleb128 0
ARM GAS  /cygdrive/c/DOCUME~1/mkwapisz/LOCALS~1/Temp/ccTMHT2f.s 			page 26


 1061 0059 03       		.uleb128 0x3
 1062 005a 7C020000 		.4byte	.LASF4
 1063 005e 01       		.sleb128 1
 1064 005f 03       		.uleb128 0x3
 1065 0060 27030000 		.4byte	.LASF5
 1066 0064 02       		.sleb128 2
 1067 0065 03       		.uleb128 0x3
 1068 0066 88030000 		.4byte	.LASF6
 1069 006a 03       		.sleb128 3
 1070 006b 03       		.uleb128 0x3
 1071 006c 20000000 		.4byte	.LASF7
 1072 0070 04       		.sleb128 4
 1073 0071 03       		.uleb128 0x3
 1074 0072 4A000000 		.4byte	.LASF8
 1075 0076 05       		.sleb128 5
 1076 0077 03       		.uleb128 0x3
 1077 0078 EB000000 		.4byte	.LASF9
 1078 007c 06       		.sleb128 6
 1079 007d 03       		.uleb128 0x3
 1080 007e 35010000 		.4byte	.LASF10
 1081 0082 07       		.sleb128 7
 1082 0083 03       		.uleb128 0x3
 1083 0084 E3010000 		.4byte	.LASF11
 1084 0088 08       		.sleb128 8
 1085 0089 03       		.uleb128 0x3
 1086 008a 01020000 		.4byte	.LASF12
 1087 008e 09       		.sleb128 9
 1088 008f 03       		.uleb128 0x3
 1089 0090 88020000 		.4byte	.LASF13
 1090 0094 0A       		.sleb128 10
 1091 0095 03       		.uleb128 0x3
 1092 0096 1F030000 		.4byte	.LASF14
 1093 009a 0B       		.sleb128 11
 1094 009b 03       		.uleb128 0x3
 1095 009c 00000000 		.4byte	.LASF15
 1096 00a0 0C       		.sleb128 12
 1097 00a1 03       		.uleb128 0x3
 1098 00a2 B2030000 		.4byte	.LASF16
 1099 00a6 0D       		.sleb128 13
 1100 00a7 03       		.uleb128 0x3
 1101 00a8 C4000000 		.4byte	.LASF17
 1102 00ac 0E       		.sleb128 14
 1103 00ad 03       		.uleb128 0x3
 1104 00ae 82000000 		.4byte	.LASF18
 1105 00b2 0F       		.sleb128 15
 1106 00b3 03       		.uleb128 0x3
 1107 00b4 1F010000 		.4byte	.LASF19
 1108 00b8 10       		.sleb128 16
 1109 00b9 03       		.uleb128 0x3
 1110 00ba 79010000 		.4byte	.LASF20
 1111 00be 11       		.sleb128 17
 1112 00bf 03       		.uleb128 0x3
 1113 00c0 00030000 		.4byte	.LASF21
 1114 00c4 12       		.sleb128 18
 1115 00c5 03       		.uleb128 0x3
 1116 00c6 34020000 		.4byte	.LASF22
 1117 00ca 13       		.sleb128 19
ARM GAS  /cygdrive/c/DOCUME~1/mkwapisz/LOCALS~1/Temp/ccTMHT2f.s 			page 27


 1118 00cb 03       		.uleb128 0x3
 1119 00cc A8030000 		.4byte	.LASF23
 1120 00d0 14       		.sleb128 20
 1121 00d1 03       		.uleb128 0x3
 1122 00d2 9F030000 		.4byte	.LASF24
 1123 00d6 15       		.sleb128 21
 1124 00d7 03       		.uleb128 0x3
 1125 00d8 A4010000 		.4byte	.LASF25
 1126 00dc 16       		.sleb128 22
 1127 00dd 03       		.uleb128 0x3
 1128 00de 66000000 		.4byte	.LASF26
 1129 00e2 17       		.sleb128 23
 1130 00e3 03       		.uleb128 0x3
 1131 00e4 F6020000 		.4byte	.LASF27
 1132 00e8 18       		.sleb128 24
 1133 00e9 03       		.uleb128 0x3
 1134 00ea 5E010000 		.4byte	.LASF28
 1135 00ee 19       		.sleb128 25
 1136 00ef 03       		.uleb128 0x3
 1137 00f0 95030000 		.4byte	.LASF29
 1138 00f4 1A       		.sleb128 26
 1139 00f5 03       		.uleb128 0x3
 1140 00f6 21020000 		.4byte	.LASF30
 1141 00fa 1B       		.sleb128 27
 1142 00fb 03       		.uleb128 0x3
 1143 00fc 78000000 		.4byte	.LASF31
 1144 0100 1C       		.sleb128 28
 1145 0101 03       		.uleb128 0x3
 1146 0102 3E030000 		.4byte	.LASF32
 1147 0106 1D       		.sleb128 29
 1148 0107 03       		.uleb128 0x3
 1149 0108 86010000 		.4byte	.LASF33
 1150 010c 1E       		.sleb128 30
 1151 010d 03       		.uleb128 0x3
 1152 010e 17000000 		.4byte	.LASF34
 1153 0112 1F       		.sleb128 31
 1154 0113 00       		.byte	0x0
 1155 0114 04       		.uleb128 0x4
 1156 0115 99000000 		.4byte	.LASF36
 1157 0119 02       		.byte	0x2
 1158 011a 20       		.byte	0x20
 1159 011b 4B000000 		.4byte	0x4b
 1160 011f 02       		.uleb128 0x2
 1161 0120 34010000 		.4byte	0x134
 1162 0124 04       		.byte	0x4
 1163 0125 02       		.byte	0x2
 1164 0126 23       		.byte	0x23
 1165 0127 03       		.uleb128 0x3
 1166 0128 C2010000 		.4byte	.LASF37
 1167 012c 00       		.sleb128 0
 1168 012d 03       		.uleb128 0x3
 1169 012e 09000000 		.4byte	.LASF38
 1170 0132 01       		.sleb128 1
 1171 0133 00       		.byte	0x0
 1172 0134 04       		.uleb128 0x4
 1173 0135 47030000 		.4byte	.LASF39
 1174 0139 02       		.byte	0x2
ARM GAS  /cygdrive/c/DOCUME~1/mkwapisz/LOCALS~1/Temp/ccTMHT2f.s 			page 28


 1175 013a 26       		.byte	0x26
 1176 013b 1F010000 		.4byte	0x11f
 1177 013f 02       		.uleb128 0x2
 1178 0140 5A010000 		.4byte	0x15a
 1179 0144 04       		.byte	0x4
 1180 0145 02       		.byte	0x2
 1181 0146 29       		.byte	0x29
 1182 0147 03       		.uleb128 0x3
 1183 0148 15020000 		.4byte	.LASF40
 1184 014c 00       		.sleb128 0
 1185 014d 03       		.uleb128 0x3
 1186 014e 75030000 		.4byte	.LASF41
 1187 0152 01       		.sleb128 1
 1188 0153 03       		.uleb128 0x3
 1189 0154 11030000 		.4byte	.LASF42
 1190 0158 02       		.sleb128 2
 1191 0159 00       		.byte	0x0
 1192 015a 04       		.uleb128 0x4
 1193 015b 63020000 		.4byte	.LASF43
 1194 015f 02       		.byte	0x2
 1195 0160 2D       		.byte	0x2d
 1196 0161 3F010000 		.4byte	0x13f
 1197 0165 04       		.uleb128 0x4
 1198 0166 81010000 		.4byte	.LASF44
 1199 016a 02       		.byte	0x2
 1200 016b 54       		.byte	0x54
 1201 016c 70010000 		.4byte	0x170
 1202 0170 05       		.uleb128 0x5
 1203 0171 04       		.byte	0x4
 1204 0172 76010000 		.4byte	0x176
 1205 0176 06       		.uleb128 0x6
 1206 0177 01       		.byte	0x1
 1207 0178 07       		.uleb128 0x7
 1208 0179 96010000 		.4byte	0x196
 1209 017d 01       		.byte	0x1
 1210 017e EC010000 		.4byte	.LASF45
 1211 0182 01       		.byte	0x1
 1212 0183 20       		.byte	0x20
 1213 0184 01       		.byte	0x1
 1214 0185 96010000 		.4byte	0x196
 1215 0189 01       		.byte	0x1
 1216 018a 08       		.uleb128 0x8
 1217 018b 2A020000 		.4byte	.LASF51
 1218 018f 01       		.byte	0x1
 1219 0190 21       		.byte	0x21
 1220 0191 96010000 		.4byte	0x196
 1221 0195 00       		.byte	0x0
 1222 0196 09       		.uleb128 0x9
 1223 0197 AA000000 		.4byte	.LASF53
 1224 019b 04       		.byte	0x4
 1225 019c 07       		.byte	0x7
 1226 019d 0A       		.uleb128 0xa
 1227 019e B7010000 		.4byte	0x1b7
 1228 01a2 01       		.byte	0x1
 1229 01a3 FC000000 		.4byte	.LASF46
 1230 01a7 01       		.byte	0x1
 1231 01a8 4E       		.byte	0x4e
ARM GAS  /cygdrive/c/DOCUME~1/mkwapisz/LOCALS~1/Temp/ccTMHT2f.s 			page 29


 1232 01a9 01       		.byte	0x1
 1233 01aa 01       		.byte	0x1
 1234 01ab 0B       		.uleb128 0xb
 1235 01ac 34000000 		.4byte	.LASF48
 1236 01b0 01       		.byte	0x1
 1237 01b1 4D       		.byte	0x4d
 1238 01b2 96010000 		.4byte	0x196
 1239 01b6 00       		.byte	0x0
 1240 01b7 0C       		.uleb128 0xc
 1241 01b8 D0010000 		.4byte	0x1d0
 1242 01bc 78010000 		.4byte	0x178
 1243 01c0 00000000 		.4byte	.LFB2
 1244 01c4 20000000 		.4byte	.LFE2
 1245 01c8 01       		.byte	0x1
 1246 01c9 5D       		.byte	0x5d
 1247 01ca 0D       		.uleb128 0xd
 1248 01cb 8A010000 		.4byte	0x18a
 1249 01cf 00       		.byte	0x0
 1250 01d0 0E       		.uleb128 0xe
 1251 01d1 01       		.byte	0x1
 1252 01d2 3C020000 		.4byte	.LASF70
 1253 01d6 01       		.byte	0x1
 1254 01d7 39       		.byte	0x39
 1255 01d8 01       		.byte	0x1
 1256 01d9 20000000 		.4byte	.LFB3
 1257 01dd 30000000 		.4byte	.LFE3
 1258 01e1 01       		.byte	0x1
 1259 01e2 5D       		.byte	0x5d
 1260 01e3 0C       		.uleb128 0xc
 1261 01e4 FE010000 		.4byte	0x1fe
 1262 01e8 9D010000 		.4byte	0x19d
 1263 01ec 30000000 		.4byte	.LFB4
 1264 01f0 38000000 		.4byte	.LFE4
 1265 01f4 01       		.byte	0x1
 1266 01f5 5D       		.byte	0x5d
 1267 01f6 0F       		.uleb128 0xf
 1268 01f7 AB010000 		.4byte	0x1ab
 1269 01fb 01       		.byte	0x1
 1270 01fc 50       		.byte	0x50
 1271 01fd 00       		.byte	0x0
 1272 01fe 10       		.uleb128 0x10
 1273 01ff 8E020000 		.4byte	0x28e
 1274 0203 01       		.byte	0x1
 1275 0204 B3010000 		.4byte	.LASF47
 1276 0208 01       		.byte	0x1
 1277 0209 5F       		.byte	0x5f
 1278 020a 01       		.byte	0x1
 1279 020b 96010000 		.4byte	0x196
 1280 020f 38000000 		.4byte	.LFB5
 1281 0213 24020000 		.4byte	.LFE5
 1282 0217 00000000 		.4byte	.LLST3
 1283 021b 11       		.uleb128 0x11
 1284 021c 67010000 		.4byte	.LASF49
 1285 0220 01       		.byte	0x1
 1286 0221 5E       		.byte	0x5e
 1287 0222 8E020000 		.4byte	0x28e
 1288 0226 1F000000 		.4byte	.LLST4
ARM GAS  /cygdrive/c/DOCUME~1/mkwapisz/LOCALS~1/Temp/ccTMHT2f.s 			page 30


 1289 022a 11       		.uleb128 0x11
 1290 022b AE010000 		.4byte	.LASF50
 1291 022f 01       		.byte	0x1
 1292 0230 5E       		.byte	0x5e
 1293 0231 95020000 		.4byte	0x295
 1294 0235 5E000000 		.4byte	.LLST5
 1295 0239 12       		.uleb128 0x12
 1296 023a 90010000 		.4byte	.LASF52
 1297 023e 01       		.byte	0x1
 1298 023f 61       		.byte	0x61
 1299 0240 96010000 		.4byte	0x196
 1300 0244 01       		.byte	0x1
 1301 0245 5E       		.byte	0x5e
 1302 0246 13       		.uleb128 0x13
 1303 0247 746D7000 		.ascii	"tmp\000"
 1304 024b 01       		.byte	0x1
 1305 024c 61       		.byte	0x61
 1306 024d 96010000 		.4byte	0x196
 1307 0251 7C000000 		.4byte	.LLST6
 1308 0255 14       		.uleb128 0x14
 1309 0256 78020000 		.4byte	0x278
 1310 025a 78010000 		.4byte	0x178
 1311 025e 48000000 		.4byte	.LBB6
 1312 0262 64000000 		.4byte	.LBE6
 1313 0266 01       		.byte	0x1
 1314 0267 64       		.byte	0x64
 1315 0268 15       		.uleb128 0x15
 1316 0269 48000000 		.4byte	.LBB7
 1317 026d 64000000 		.4byte	.LBE7
 1318 0271 0D       		.uleb128 0xd
 1319 0272 8A010000 		.4byte	0x18a
 1320 0276 00       		.byte	0x0
 1321 0277 00       		.byte	0x0
 1322 0278 16       		.uleb128 0x16
 1323 0279 9D010000 		.4byte	0x19d
 1324 027d 0C020000 		.4byte	.LBB8
 1325 0281 10020000 		.4byte	.LBE8
 1326 0285 01       		.byte	0x1
 1327 0286 A4       		.byte	0xa4
 1328 0287 17       		.uleb128 0x17
 1329 0288 F6010000 		.4byte	0x1f6
 1330 028c 00       		.byte	0x0
 1331 028d 00       		.byte	0x0
 1332 028e 09       		.uleb128 0x9
 1333 028f 4B010000 		.4byte	.LASF54
 1334 0293 02       		.byte	0x2
 1335 0294 07       		.byte	0x7
 1336 0295 09       		.uleb128 0x9
 1337 0296 11010000 		.4byte	.LASF55
 1338 029a 01       		.byte	0x1
 1339 029b 08       		.byte	0x8
 1340 029c 10       		.uleb128 0x10
 1341 029d E7020000 		.4byte	0x2e7
 1342 02a1 01       		.byte	0x1
 1343 02a2 6C030000 		.4byte	.LASF56
 1344 02a6 01       		.byte	0x1
 1345 02a7 B5       		.byte	0xb5
ARM GAS  /cygdrive/c/DOCUME~1/mkwapisz/LOCALS~1/Temp/ccTMHT2f.s 			page 31


 1346 02a8 01       		.byte	0x1
 1347 02a9 40000000 		.4byte	0x40
 1348 02ad 24020000 		.4byte	.LFB6
 1349 02b1 18030000 		.4byte	.LFE6
 1350 02b5 BB000000 		.4byte	.LLST7
 1351 02b9 11       		.uleb128 0x11
 1352 02ba 41000000 		.4byte	.LASF57
 1353 02be 01       		.byte	0x1
 1354 02bf B4       		.byte	0xb4
 1355 02c0 E7020000 		.4byte	0x2e7
 1356 02c4 DA000000 		.4byte	.LLST8
 1357 02c8 11       		.uleb128 0x11
 1358 02c9 DA000000 		.4byte	.LASF58
 1359 02cd 01       		.byte	0x1
 1360 02ce B4       		.byte	0xb4
 1361 02cf 65010000 		.4byte	0x165
 1362 02d3 ED000000 		.4byte	.LLST9
 1363 02d7 11       		.uleb128 0x11
 1364 02d8 09020000 		.4byte	.LASF59
 1365 02dc 01       		.byte	0x1
 1366 02dd B4       		.byte	0xb4
 1367 02de 5A010000 		.4byte	0x15a
 1368 02e2 0B010000 		.4byte	.LLST10
 1369 02e6 00       		.byte	0x0
 1370 02e7 18       		.uleb128 0x18
 1371 02e8 696E7400 		.ascii	"int\000"
 1372 02ec 04       		.byte	0x4
 1373 02ed 05       		.byte	0x5
 1374 02ee 19       		.uleb128 0x19
 1375 02ef 57030000 		.4byte	0x357
 1376 02f3 01       		.byte	0x1
 1377 02f4 CF010000 		.4byte	.LASF60
 1378 02f8 01       		.byte	0x1
 1379 02f9 0F01     		.2byte	0x10f
 1380 02fb 01       		.byte	0x1
 1381 02fc 18030000 		.4byte	.LFB7
 1382 0300 B8030000 		.4byte	.LFE7
 1383 0304 29010000 		.4byte	.LLST11
 1384 0308 1A       		.uleb128 0x1a
 1385 0309 6F000000 		.4byte	.LASF61
 1386 030d 01       		.byte	0x1
 1387 030e 0D01     		.2byte	0x10d
 1388 0310 14010000 		.4byte	0x114
 1389 0314 01       		.byte	0x1
 1390 0315 50       		.byte	0x50
 1391 0316 1B       		.uleb128 0x1b
 1392 0317 3D010000 		.4byte	.LASF62
 1393 031b 01       		.byte	0x1
 1394 031c 0D01     		.2byte	0x10d
 1395 031e E7020000 		.4byte	0x2e7
 1396 0322 48010000 		.4byte	.LLST12
 1397 0326 1B       		.uleb128 0x1b
 1398 0327 CD000000 		.4byte	.LASF63
 1399 032b 01       		.byte	0x1
 1400 032c 0E01     		.2byte	0x10e
 1401 032e 34010000 		.4byte	0x134
 1402 0332 66010000 		.4byte	.LLST13
ARM GAS  /cygdrive/c/DOCUME~1/mkwapisz/LOCALS~1/Temp/ccTMHT2f.s 			page 32


 1403 0336 1B       		.uleb128 0x1b
 1404 0337 09030000 		.4byte	.LASF64
 1405 033b 01       		.byte	0x1
 1406 033c 0E01     		.2byte	0x10e
 1407 033e E7020000 		.4byte	0x2e7
 1408 0342 84010000 		.4byte	.LLST14
 1409 0346 1C       		.uleb128 0x1c
 1410 0347 90030000 		.4byte	.LASF65
 1411 034b 01       		.byte	0x1
 1412 034c 1001     		.2byte	0x110
 1413 034e 96010000 		.4byte	0x196
 1414 0352 A2010000 		.4byte	.LLST15
 1415 0356 00       		.byte	0x0
 1416 0357 1D       		.uleb128 0x1d
 1417 0358 86030000 		.4byte	0x386
 1418 035c 01       		.byte	0x1
 1419 035d 5C030000 		.4byte	.LASF66
 1420 0361 01       		.byte	0x1
 1421 0362 3701     		.2byte	0x137
 1422 0364 01       		.byte	0x1
 1423 0365 96010000 		.4byte	0x196
 1424 0369 B8030000 		.4byte	.LFB8
 1425 036d DC030000 		.4byte	.LFE8
 1426 0371 C0010000 		.4byte	.LLST16
 1427 0375 1B       		.uleb128 0x1b
 1428 0376 6F000000 		.4byte	.LASF61
 1429 037a 01       		.byte	0x1
 1430 037b 3601     		.2byte	0x136
 1431 037d 14010000 		.4byte	0x114
 1432 0381 DF010000 		.4byte	.LLST17
 1433 0385 00       		.byte	0x0
 1434 0386 19       		.uleb128 0x19
 1435 0387 B1030000 		.4byte	0x3b1
 1436 038b 01       		.byte	0x1
 1437 038c 50020000 		.4byte	.LASF67
 1438 0390 01       		.byte	0x1
 1439 0391 4601     		.2byte	0x146
 1440 0393 01       		.byte	0x1
 1441 0394 DC030000 		.4byte	.LFB9
 1442 0398 14040000 		.4byte	.LFE9
 1443 039c F2010000 		.4byte	.LLST18
 1444 03a0 1B       		.uleb128 0x1b
 1445 03a1 6F000000 		.4byte	.LASF61
 1446 03a5 01       		.byte	0x1
 1447 03a6 4501     		.2byte	0x145
 1448 03a8 14010000 		.4byte	0x114
 1449 03ac 11020000 		.4byte	.LLST19
 1450 03b0 00       		.byte	0x0
 1451 03b1 19       		.uleb128 0x19
 1452 03b2 E8030000 		.4byte	0x3e8
 1453 03b6 01       		.byte	0x1
 1454 03b7 29000000 		.4byte	.LASF68
 1455 03bb 01       		.byte	0x1
 1456 03bc 5601     		.2byte	0x156
 1457 03be 01       		.byte	0x1
 1458 03bf 14040000 		.4byte	.LFB10
 1459 03c3 44040000 		.4byte	.LFE10
ARM GAS  /cygdrive/c/DOCUME~1/mkwapisz/LOCALS~1/Temp/ccTMHT2f.s 			page 33


 1460 03c7 3A020000 		.4byte	.LLST20
 1461 03cb 1B       		.uleb128 0x1b
 1462 03cc BB010000 		.4byte	.LASF69
 1463 03d0 01       		.byte	0x1
 1464 03d1 5501     		.2byte	0x155
 1465 03d3 96010000 		.4byte	0x196
 1466 03d7 59020000 		.4byte	.LLST21
 1467 03db 1E       		.uleb128 0x1e
 1468 03dc 6900     		.ascii	"i\000"
 1469 03de 01       		.byte	0x1
 1470 03df 5701     		.2byte	0x157
 1471 03e1 E7020000 		.4byte	0x2e7
 1472 03e5 01       		.byte	0x1
 1473 03e6 54       		.byte	0x54
 1474 03e7 00       		.byte	0x0
 1475 03e8 1F       		.uleb128 0x1f
 1476 03e9 01       		.byte	0x1
 1477 03ea F4000000 		.4byte	.LASF71
 1478 03ee 01       		.byte	0x1
 1479 03ef 6601     		.2byte	0x166
 1480 03f1 01       		.byte	0x1
 1481 03f2 44040000 		.4byte	.LFB11
 1482 03f6 70040000 		.4byte	.LFE11
 1483 03fa 77020000 		.4byte	.LLST22
 1484 03fe 20       		.uleb128 0x20
 1485 03ff B7000000 		.4byte	.LASF72
 1486 0403 01       		.byte	0x1
 1487 0404 14       		.byte	0x14
 1488 0405 65010000 		.4byte	0x165
 1489 0409 01       		.byte	0x1
 1490 040a 05       		.byte	0x5
 1491 040b 03       		.byte	0x3
 1492 040c 00000000 		.4byte	IntrCallback
 1493 0410 00       		.byte	0x0
 1494              		.section	.debug_abbrev
 1495 0000 01       		.uleb128 0x1
 1496 0001 11       		.uleb128 0x11
 1497 0002 01       		.byte	0x1
 1498 0003 10       		.uleb128 0x10
 1499 0004 06       		.uleb128 0x6
 1500 0005 12       		.uleb128 0x12
 1501 0006 01       		.uleb128 0x1
 1502 0007 11       		.uleb128 0x11
 1503 0008 01       		.uleb128 0x1
 1504 0009 25       		.uleb128 0x25
 1505 000a 0E       		.uleb128 0xe
 1506 000b 13       		.uleb128 0x13
 1507 000c 0B       		.uleb128 0xb
 1508 000d 03       		.uleb128 0x3
 1509 000e 0E       		.uleb128 0xe
 1510 000f 1B       		.uleb128 0x1b
 1511 0010 0E       		.uleb128 0xe
 1512 0011 00       		.byte	0x0
 1513 0012 00       		.byte	0x0
 1514 0013 02       		.uleb128 0x2
 1515 0014 04       		.uleb128 0x4
 1516 0015 01       		.byte	0x1
ARM GAS  /cygdrive/c/DOCUME~1/mkwapisz/LOCALS~1/Temp/ccTMHT2f.s 			page 34


 1517 0016 01       		.uleb128 0x1
 1518 0017 13       		.uleb128 0x13
 1519 0018 0B       		.uleb128 0xb
 1520 0019 0B       		.uleb128 0xb
 1521 001a 3A       		.uleb128 0x3a
 1522 001b 0B       		.uleb128 0xb
 1523 001c 3B       		.uleb128 0x3b
 1524 001d 0B       		.uleb128 0xb
 1525 001e 00       		.byte	0x0
 1526 001f 00       		.byte	0x0
 1527 0020 03       		.uleb128 0x3
 1528 0021 28       		.uleb128 0x28
 1529 0022 00       		.byte	0x0
 1530 0023 03       		.uleb128 0x3
 1531 0024 0E       		.uleb128 0xe
 1532 0025 1C       		.uleb128 0x1c
 1533 0026 0D       		.uleb128 0xd
 1534 0027 00       		.byte	0x0
 1535 0028 00       		.byte	0x0
 1536 0029 04       		.uleb128 0x4
 1537 002a 16       		.uleb128 0x16
 1538 002b 00       		.byte	0x0
 1539 002c 03       		.uleb128 0x3
 1540 002d 0E       		.uleb128 0xe
 1541 002e 3A       		.uleb128 0x3a
 1542 002f 0B       		.uleb128 0xb
 1543 0030 3B       		.uleb128 0x3b
 1544 0031 0B       		.uleb128 0xb
 1545 0032 49       		.uleb128 0x49
 1546 0033 13       		.uleb128 0x13
 1547 0034 00       		.byte	0x0
 1548 0035 00       		.byte	0x0
 1549 0036 05       		.uleb128 0x5
 1550 0037 0F       		.uleb128 0xf
 1551 0038 00       		.byte	0x0
 1552 0039 0B       		.uleb128 0xb
 1553 003a 0B       		.uleb128 0xb
 1554 003b 49       		.uleb128 0x49
 1555 003c 13       		.uleb128 0x13
 1556 003d 00       		.byte	0x0
 1557 003e 00       		.byte	0x0
 1558 003f 06       		.uleb128 0x6
 1559 0040 15       		.uleb128 0x15
 1560 0041 00       		.byte	0x0
 1561 0042 27       		.uleb128 0x27
 1562 0043 0C       		.uleb128 0xc
 1563 0044 00       		.byte	0x0
 1564 0045 00       		.byte	0x0
 1565 0046 07       		.uleb128 0x7
 1566 0047 2E       		.uleb128 0x2e
 1567 0048 01       		.byte	0x1
 1568 0049 01       		.uleb128 0x1
 1569 004a 13       		.uleb128 0x13
 1570 004b 3F       		.uleb128 0x3f
 1571 004c 0C       		.uleb128 0xc
 1572 004d 03       		.uleb128 0x3
 1573 004e 0E       		.uleb128 0xe
ARM GAS  /cygdrive/c/DOCUME~1/mkwapisz/LOCALS~1/Temp/ccTMHT2f.s 			page 35


 1574 004f 3A       		.uleb128 0x3a
 1575 0050 0B       		.uleb128 0xb
 1576 0051 3B       		.uleb128 0x3b
 1577 0052 0B       		.uleb128 0xb
 1578 0053 27       		.uleb128 0x27
 1579 0054 0C       		.uleb128 0xc
 1580 0055 49       		.uleb128 0x49
 1581 0056 13       		.uleb128 0x13
 1582 0057 20       		.uleb128 0x20
 1583 0058 0B       		.uleb128 0xb
 1584 0059 00       		.byte	0x0
 1585 005a 00       		.byte	0x0
 1586 005b 08       		.uleb128 0x8
 1587 005c 34       		.uleb128 0x34
 1588 005d 00       		.byte	0x0
 1589 005e 03       		.uleb128 0x3
 1590 005f 0E       		.uleb128 0xe
 1591 0060 3A       		.uleb128 0x3a
 1592 0061 0B       		.uleb128 0xb
 1593 0062 3B       		.uleb128 0x3b
 1594 0063 0B       		.uleb128 0xb
 1595 0064 49       		.uleb128 0x49
 1596 0065 13       		.uleb128 0x13
 1597 0066 00       		.byte	0x0
 1598 0067 00       		.byte	0x0
 1599 0068 09       		.uleb128 0x9
 1600 0069 24       		.uleb128 0x24
 1601 006a 00       		.byte	0x0
 1602 006b 03       		.uleb128 0x3
 1603 006c 0E       		.uleb128 0xe
 1604 006d 0B       		.uleb128 0xb
 1605 006e 0B       		.uleb128 0xb
 1606 006f 3E       		.uleb128 0x3e
 1607 0070 0B       		.uleb128 0xb
 1608 0071 00       		.byte	0x0
 1609 0072 00       		.byte	0x0
 1610 0073 0A       		.uleb128 0xa
 1611 0074 2E       		.uleb128 0x2e
 1612 0075 01       		.byte	0x1
 1613 0076 01       		.uleb128 0x1
 1614 0077 13       		.uleb128 0x13
 1615 0078 3F       		.uleb128 0x3f
 1616 0079 0C       		.uleb128 0xc
 1617 007a 03       		.uleb128 0x3
 1618 007b 0E       		.uleb128 0xe
 1619 007c 3A       		.uleb128 0x3a
 1620 007d 0B       		.uleb128 0xb
 1621 007e 3B       		.uleb128 0x3b
 1622 007f 0B       		.uleb128 0xb
 1623 0080 27       		.uleb128 0x27
 1624 0081 0C       		.uleb128 0xc
 1625 0082 20       		.uleb128 0x20
 1626 0083 0B       		.uleb128 0xb
 1627 0084 00       		.byte	0x0
 1628 0085 00       		.byte	0x0
 1629 0086 0B       		.uleb128 0xb
 1630 0087 05       		.uleb128 0x5
ARM GAS  /cygdrive/c/DOCUME~1/mkwapisz/LOCALS~1/Temp/ccTMHT2f.s 			page 36


 1631 0088 00       		.byte	0x0
 1632 0089 03       		.uleb128 0x3
 1633 008a 0E       		.uleb128 0xe
 1634 008b 3A       		.uleb128 0x3a
 1635 008c 0B       		.uleb128 0xb
 1636 008d 3B       		.uleb128 0x3b
 1637 008e 0B       		.uleb128 0xb
 1638 008f 49       		.uleb128 0x49
 1639 0090 13       		.uleb128 0x13
 1640 0091 00       		.byte	0x0
 1641 0092 00       		.byte	0x0
 1642 0093 0C       		.uleb128 0xc
 1643 0094 2E       		.uleb128 0x2e
 1644 0095 01       		.byte	0x1
 1645 0096 01       		.uleb128 0x1
 1646 0097 13       		.uleb128 0x13
 1647 0098 31       		.uleb128 0x31
 1648 0099 13       		.uleb128 0x13
 1649 009a 11       		.uleb128 0x11
 1650 009b 01       		.uleb128 0x1
 1651 009c 12       		.uleb128 0x12
 1652 009d 01       		.uleb128 0x1
 1653 009e 40       		.uleb128 0x40
 1654 009f 0A       		.uleb128 0xa
 1655 00a0 00       		.byte	0x0
 1656 00a1 00       		.byte	0x0
 1657 00a2 0D       		.uleb128 0xd
 1658 00a3 34       		.uleb128 0x34
 1659 00a4 00       		.byte	0x0
 1660 00a5 31       		.uleb128 0x31
 1661 00a6 13       		.uleb128 0x13
 1662 00a7 00       		.byte	0x0
 1663 00a8 00       		.byte	0x0
 1664 00a9 0E       		.uleb128 0xe
 1665 00aa 2E       		.uleb128 0x2e
 1666 00ab 00       		.byte	0x0
 1667 00ac 3F       		.uleb128 0x3f
 1668 00ad 0C       		.uleb128 0xc
 1669 00ae 03       		.uleb128 0x3
 1670 00af 0E       		.uleb128 0xe
 1671 00b0 3A       		.uleb128 0x3a
 1672 00b1 0B       		.uleb128 0xb
 1673 00b2 3B       		.uleb128 0x3b
 1674 00b3 0B       		.uleb128 0xb
 1675 00b4 27       		.uleb128 0x27
 1676 00b5 0C       		.uleb128 0xc
 1677 00b6 11       		.uleb128 0x11
 1678 00b7 01       		.uleb128 0x1
 1679 00b8 12       		.uleb128 0x12
 1680 00b9 01       		.uleb128 0x1
 1681 00ba 40       		.uleb128 0x40
 1682 00bb 0A       		.uleb128 0xa
 1683 00bc 00       		.byte	0x0
 1684 00bd 00       		.byte	0x0
 1685 00be 0F       		.uleb128 0xf
 1686 00bf 05       		.uleb128 0x5
 1687 00c0 00       		.byte	0x0
ARM GAS  /cygdrive/c/DOCUME~1/mkwapisz/LOCALS~1/Temp/ccTMHT2f.s 			page 37


 1688 00c1 31       		.uleb128 0x31
 1689 00c2 13       		.uleb128 0x13
 1690 00c3 02       		.uleb128 0x2
 1691 00c4 0A       		.uleb128 0xa
 1692 00c5 00       		.byte	0x0
 1693 00c6 00       		.byte	0x0
 1694 00c7 10       		.uleb128 0x10
 1695 00c8 2E       		.uleb128 0x2e
 1696 00c9 01       		.byte	0x1
 1697 00ca 01       		.uleb128 0x1
 1698 00cb 13       		.uleb128 0x13
 1699 00cc 3F       		.uleb128 0x3f
 1700 00cd 0C       		.uleb128 0xc
 1701 00ce 03       		.uleb128 0x3
 1702 00cf 0E       		.uleb128 0xe
 1703 00d0 3A       		.uleb128 0x3a
 1704 00d1 0B       		.uleb128 0xb
 1705 00d2 3B       		.uleb128 0x3b
 1706 00d3 0B       		.uleb128 0xb
 1707 00d4 27       		.uleb128 0x27
 1708 00d5 0C       		.uleb128 0xc
 1709 00d6 49       		.uleb128 0x49
 1710 00d7 13       		.uleb128 0x13
 1711 00d8 11       		.uleb128 0x11
 1712 00d9 01       		.uleb128 0x1
 1713 00da 12       		.uleb128 0x12
 1714 00db 01       		.uleb128 0x1
 1715 00dc 40       		.uleb128 0x40
 1716 00dd 06       		.uleb128 0x6
 1717 00de 00       		.byte	0x0
 1718 00df 00       		.byte	0x0
 1719 00e0 11       		.uleb128 0x11
 1720 00e1 05       		.uleb128 0x5
 1721 00e2 00       		.byte	0x0
 1722 00e3 03       		.uleb128 0x3
 1723 00e4 0E       		.uleb128 0xe
 1724 00e5 3A       		.uleb128 0x3a
 1725 00e6 0B       		.uleb128 0xb
 1726 00e7 3B       		.uleb128 0x3b
 1727 00e8 0B       		.uleb128 0xb
 1728 00e9 49       		.uleb128 0x49
 1729 00ea 13       		.uleb128 0x13
 1730 00eb 02       		.uleb128 0x2
 1731 00ec 06       		.uleb128 0x6
 1732 00ed 00       		.byte	0x0
 1733 00ee 00       		.byte	0x0
 1734 00ef 12       		.uleb128 0x12
 1735 00f0 34       		.uleb128 0x34
 1736 00f1 00       		.byte	0x0
 1737 00f2 03       		.uleb128 0x3
 1738 00f3 0E       		.uleb128 0xe
 1739 00f4 3A       		.uleb128 0x3a
 1740 00f5 0B       		.uleb128 0xb
 1741 00f6 3B       		.uleb128 0x3b
 1742 00f7 0B       		.uleb128 0xb
 1743 00f8 49       		.uleb128 0x49
 1744 00f9 13       		.uleb128 0x13
ARM GAS  /cygdrive/c/DOCUME~1/mkwapisz/LOCALS~1/Temp/ccTMHT2f.s 			page 38


 1745 00fa 02       		.uleb128 0x2
 1746 00fb 0A       		.uleb128 0xa
 1747 00fc 00       		.byte	0x0
 1748 00fd 00       		.byte	0x0
 1749 00fe 13       		.uleb128 0x13
 1750 00ff 34       		.uleb128 0x34
 1751 0100 00       		.byte	0x0
 1752 0101 03       		.uleb128 0x3
 1753 0102 08       		.uleb128 0x8
 1754 0103 3A       		.uleb128 0x3a
 1755 0104 0B       		.uleb128 0xb
 1756 0105 3B       		.uleb128 0x3b
 1757 0106 0B       		.uleb128 0xb
 1758 0107 49       		.uleb128 0x49
 1759 0108 13       		.uleb128 0x13
 1760 0109 02       		.uleb128 0x2
 1761 010a 06       		.uleb128 0x6
 1762 010b 00       		.byte	0x0
 1763 010c 00       		.byte	0x0
 1764 010d 14       		.uleb128 0x14
 1765 010e 1D       		.uleb128 0x1d
 1766 010f 01       		.byte	0x1
 1767 0110 01       		.uleb128 0x1
 1768 0111 13       		.uleb128 0x13
 1769 0112 31       		.uleb128 0x31
 1770 0113 13       		.uleb128 0x13
 1771 0114 11       		.uleb128 0x11
 1772 0115 01       		.uleb128 0x1
 1773 0116 12       		.uleb128 0x12
 1774 0117 01       		.uleb128 0x1
 1775 0118 58       		.uleb128 0x58
 1776 0119 0B       		.uleb128 0xb
 1777 011a 59       		.uleb128 0x59
 1778 011b 0B       		.uleb128 0xb
 1779 011c 00       		.byte	0x0
 1780 011d 00       		.byte	0x0
 1781 011e 15       		.uleb128 0x15
 1782 011f 0B       		.uleb128 0xb
 1783 0120 01       		.byte	0x1
 1784 0121 11       		.uleb128 0x11
 1785 0122 01       		.uleb128 0x1
 1786 0123 12       		.uleb128 0x12
 1787 0124 01       		.uleb128 0x1
 1788 0125 00       		.byte	0x0
 1789 0126 00       		.byte	0x0
 1790 0127 16       		.uleb128 0x16
 1791 0128 1D       		.uleb128 0x1d
 1792 0129 01       		.byte	0x1
 1793 012a 31       		.uleb128 0x31
 1794 012b 13       		.uleb128 0x13
 1795 012c 11       		.uleb128 0x11
 1796 012d 01       		.uleb128 0x1
 1797 012e 12       		.uleb128 0x12
 1798 012f 01       		.uleb128 0x1
 1799 0130 58       		.uleb128 0x58
 1800 0131 0B       		.uleb128 0xb
 1801 0132 59       		.uleb128 0x59
ARM GAS  /cygdrive/c/DOCUME~1/mkwapisz/LOCALS~1/Temp/ccTMHT2f.s 			page 39


 1802 0133 0B       		.uleb128 0xb
 1803 0134 00       		.byte	0x0
 1804 0135 00       		.byte	0x0
 1805 0136 17       		.uleb128 0x17
 1806 0137 05       		.uleb128 0x5
 1807 0138 00       		.byte	0x0
 1808 0139 31       		.uleb128 0x31
 1809 013a 13       		.uleb128 0x13
 1810 013b 00       		.byte	0x0
 1811 013c 00       		.byte	0x0
 1812 013d 18       		.uleb128 0x18
 1813 013e 24       		.uleb128 0x24
 1814 013f 00       		.byte	0x0
 1815 0140 03       		.uleb128 0x3
 1816 0141 08       		.uleb128 0x8
 1817 0142 0B       		.uleb128 0xb
 1818 0143 0B       		.uleb128 0xb
 1819 0144 3E       		.uleb128 0x3e
 1820 0145 0B       		.uleb128 0xb
 1821 0146 00       		.byte	0x0
 1822 0147 00       		.byte	0x0
 1823 0148 19       		.uleb128 0x19
 1824 0149 2E       		.uleb128 0x2e
 1825 014a 01       		.byte	0x1
 1826 014b 01       		.uleb128 0x1
 1827 014c 13       		.uleb128 0x13
 1828 014d 3F       		.uleb128 0x3f
 1829 014e 0C       		.uleb128 0xc
 1830 014f 03       		.uleb128 0x3
 1831 0150 0E       		.uleb128 0xe
 1832 0151 3A       		.uleb128 0x3a
 1833 0152 0B       		.uleb128 0xb
 1834 0153 3B       		.uleb128 0x3b
 1835 0154 05       		.uleb128 0x5
 1836 0155 27       		.uleb128 0x27
 1837 0156 0C       		.uleb128 0xc
 1838 0157 11       		.uleb128 0x11
 1839 0158 01       		.uleb128 0x1
 1840 0159 12       		.uleb128 0x12
 1841 015a 01       		.uleb128 0x1
 1842 015b 40       		.uleb128 0x40
 1843 015c 06       		.uleb128 0x6
 1844 015d 00       		.byte	0x0
 1845 015e 00       		.byte	0x0
 1846 015f 1A       		.uleb128 0x1a
 1847 0160 05       		.uleb128 0x5
 1848 0161 00       		.byte	0x0
 1849 0162 03       		.uleb128 0x3
 1850 0163 0E       		.uleb128 0xe
 1851 0164 3A       		.uleb128 0x3a
 1852 0165 0B       		.uleb128 0xb
 1853 0166 3B       		.uleb128 0x3b
 1854 0167 05       		.uleb128 0x5
 1855 0168 49       		.uleb128 0x49
 1856 0169 13       		.uleb128 0x13
 1857 016a 02       		.uleb128 0x2
 1858 016b 0A       		.uleb128 0xa
ARM GAS  /cygdrive/c/DOCUME~1/mkwapisz/LOCALS~1/Temp/ccTMHT2f.s 			page 40


 1859 016c 00       		.byte	0x0
 1860 016d 00       		.byte	0x0
 1861 016e 1B       		.uleb128 0x1b
 1862 016f 05       		.uleb128 0x5
 1863 0170 00       		.byte	0x0
 1864 0171 03       		.uleb128 0x3
 1865 0172 0E       		.uleb128 0xe
 1866 0173 3A       		.uleb128 0x3a
 1867 0174 0B       		.uleb128 0xb
 1868 0175 3B       		.uleb128 0x3b
 1869 0176 05       		.uleb128 0x5
 1870 0177 49       		.uleb128 0x49
 1871 0178 13       		.uleb128 0x13
 1872 0179 02       		.uleb128 0x2
 1873 017a 06       		.uleb128 0x6
 1874 017b 00       		.byte	0x0
 1875 017c 00       		.byte	0x0
 1876 017d 1C       		.uleb128 0x1c
 1877 017e 34       		.uleb128 0x34
 1878 017f 00       		.byte	0x0
 1879 0180 03       		.uleb128 0x3
 1880 0181 0E       		.uleb128 0xe
 1881 0182 3A       		.uleb128 0x3a
 1882 0183 0B       		.uleb128 0xb
 1883 0184 3B       		.uleb128 0x3b
 1884 0185 05       		.uleb128 0x5
 1885 0186 49       		.uleb128 0x49
 1886 0187 13       		.uleb128 0x13
 1887 0188 02       		.uleb128 0x2
 1888 0189 06       		.uleb128 0x6
 1889 018a 00       		.byte	0x0
 1890 018b 00       		.byte	0x0
 1891 018c 1D       		.uleb128 0x1d
 1892 018d 2E       		.uleb128 0x2e
 1893 018e 01       		.byte	0x1
 1894 018f 01       		.uleb128 0x1
 1895 0190 13       		.uleb128 0x13
 1896 0191 3F       		.uleb128 0x3f
 1897 0192 0C       		.uleb128 0xc
 1898 0193 03       		.uleb128 0x3
 1899 0194 0E       		.uleb128 0xe
 1900 0195 3A       		.uleb128 0x3a
 1901 0196 0B       		.uleb128 0xb
 1902 0197 3B       		.uleb128 0x3b
 1903 0198 05       		.uleb128 0x5
 1904 0199 27       		.uleb128 0x27
 1905 019a 0C       		.uleb128 0xc
 1906 019b 49       		.uleb128 0x49
 1907 019c 13       		.uleb128 0x13
 1908 019d 11       		.uleb128 0x11
 1909 019e 01       		.uleb128 0x1
 1910 019f 12       		.uleb128 0x12
 1911 01a0 01       		.uleb128 0x1
 1912 01a1 40       		.uleb128 0x40
 1913 01a2 06       		.uleb128 0x6
 1914 01a3 00       		.byte	0x0
 1915 01a4 00       		.byte	0x0
ARM GAS  /cygdrive/c/DOCUME~1/mkwapisz/LOCALS~1/Temp/ccTMHT2f.s 			page 41


 1916 01a5 1E       		.uleb128 0x1e
 1917 01a6 34       		.uleb128 0x34
 1918 01a7 00       		.byte	0x0
 1919 01a8 03       		.uleb128 0x3
 1920 01a9 08       		.uleb128 0x8
 1921 01aa 3A       		.uleb128 0x3a
 1922 01ab 0B       		.uleb128 0xb
 1923 01ac 3B       		.uleb128 0x3b
 1924 01ad 05       		.uleb128 0x5
 1925 01ae 49       		.uleb128 0x49
 1926 01af 13       		.uleb128 0x13
 1927 01b0 02       		.uleb128 0x2
 1928 01b1 0A       		.uleb128 0xa
 1929 01b2 00       		.byte	0x0
 1930 01b3 00       		.byte	0x0
 1931 01b4 1F       		.uleb128 0x1f
 1932 01b5 2E       		.uleb128 0x2e
 1933 01b6 00       		.byte	0x0
 1934 01b7 3F       		.uleb128 0x3f
 1935 01b8 0C       		.uleb128 0xc
 1936 01b9 03       		.uleb128 0x3
 1937 01ba 0E       		.uleb128 0xe
 1938 01bb 3A       		.uleb128 0x3a
 1939 01bc 0B       		.uleb128 0xb
 1940 01bd 3B       		.uleb128 0x3b
 1941 01be 05       		.uleb128 0x5
 1942 01bf 27       		.uleb128 0x27
 1943 01c0 0C       		.uleb128 0xc
 1944 01c1 11       		.uleb128 0x11
 1945 01c2 01       		.uleb128 0x1
 1946 01c3 12       		.uleb128 0x12
 1947 01c4 01       		.uleb128 0x1
 1948 01c5 40       		.uleb128 0x40
 1949 01c6 06       		.uleb128 0x6
 1950 01c7 00       		.byte	0x0
 1951 01c8 00       		.byte	0x0
 1952 01c9 20       		.uleb128 0x20
 1953 01ca 34       		.uleb128 0x34
 1954 01cb 00       		.byte	0x0
 1955 01cc 03       		.uleb128 0x3
 1956 01cd 0E       		.uleb128 0xe
 1957 01ce 3A       		.uleb128 0x3a
 1958 01cf 0B       		.uleb128 0xb
 1959 01d0 3B       		.uleb128 0x3b
 1960 01d1 0B       		.uleb128 0xb
 1961 01d2 49       		.uleb128 0x49
 1962 01d3 13       		.uleb128 0x13
 1963 01d4 3F       		.uleb128 0x3f
 1964 01d5 0C       		.uleb128 0xc
 1965 01d6 02       		.uleb128 0x2
 1966 01d7 0A       		.uleb128 0xa
 1967 01d8 00       		.byte	0x0
 1968 01d9 00       		.byte	0x0
 1969 01da 00       		.byte	0x0
 1970              		.section	.debug_pubnames,"",%progbits
 1971 0000 E0000000 		.4byte	0xe0
 1972 0004 0200     		.2byte	0x2
ARM GAS  /cygdrive/c/DOCUME~1/mkwapisz/LOCALS~1/Temp/ccTMHT2f.s 			page 42


 1973 0006 00000000 		.4byte	.Ldebug_info0
 1974 000a 11040000 		.4byte	0x411
 1975 000e B7010000 		.4byte	0x1b7
 1976 0012 68616C44 		.ascii	"halDisableInterrupts\000"
 1976      69736162 
 1976      6C65496E 
 1976      74657272 
 1976      75707473 
 1977 0027 D0010000 		.4byte	0x1d0
 1978 002b 68616C45 		.ascii	"halEnableInterrupts\000"
 1978      6E61626C 
 1978      65496E74 
 1978      65727275 
 1978      70747300 
 1979 003f E3010000 		.4byte	0x1e3
 1980 0043 68616C52 		.ascii	"halRestoreInterrupts\000"
 1980      6573746F 
 1980      7265496E 
 1980      74657272 
 1980      75707473 
 1981 0058 FE010000 		.4byte	0x1fe
 1982 005c 5553425F 		.ascii	"USB_Cmd\000"
 1982      436D6400 
 1983 0064 9C020000 		.4byte	0x29c
 1984 0068 5553425F 		.ascii	"USB_Init\000"
 1984      496E6974 
 1984      00
 1985 0071 EE020000 		.4byte	0x2ee
 1986 0075 5553425F 		.ascii	"USB_RealizeEndPoint\000"
 1986      5265616C 
 1986      697A6545 
 1986      6E64506F 
 1986      696E7400 
 1987 0089 57030000 		.4byte	0x357
 1988 008d 5553425F 		.ascii	"USB_ClearBuffer\000"
 1988      436C6561 
 1988      72427566 
 1988      66657200 
 1989 009d 86030000 		.4byte	0x386
 1990 00a1 5553425F 		.ascii	"USB_ValidateBuffer\000"
 1990      56616C69 
 1990      64617465 
 1990      42756666 
 1990      657200
 1991 00b4 B1030000 		.4byte	0x3b1
 1992 00b8 5553425F 		.ascii	"USB_SetAdd\000"
 1992      53657441 
 1992      646400
 1993 00c3 E8030000 		.4byte	0x3e8
 1994 00c7 5553425F 		.ascii	"USB_ISR\000"
 1994      49535200 
 1995 00cf FE030000 		.4byte	0x3fe
 1996 00d3 496E7472 		.ascii	"IntrCallback\000"
 1996      43616C6C 
 1996      6261636B 
 1996      00
 1997 00e0 00000000 		.4byte	0x0
ARM GAS  /cygdrive/c/DOCUME~1/mkwapisz/LOCALS~1/Temp/ccTMHT2f.s 			page 43


 1998              		.section	.debug_aranges,"",%progbits
 1999 0000 1C000000 		.4byte	0x1c
 2000 0004 0200     		.2byte	0x2
 2001 0006 00000000 		.4byte	.Ldebug_info0
 2002 000a 04       		.byte	0x4
 2003 000b 00       		.byte	0x0
 2004 000c 0000     		.2byte	0x0
 2005 000e 0000     		.2byte	0x0
 2006 0010 00000000 		.4byte	.Ltext0
 2007 0014 70040000 		.4byte	.Letext0-.Ltext0
 2008 0018 00000000 		.4byte	0x0
 2009 001c 00000000 		.4byte	0x0
 2010              		.section	.debug_str,"MS",%progbits,1
 2011              	.LASF15:
 2012 0000 454E5036 		.ascii	"ENP6_OUT\000"
 2012      5F4F5554 
 2012      00
 2013              	.LASF38:
 2014 0009 5553425F 		.ascii	"USB_HighPrior\000"
 2014      48696768 
 2014      5072696F 
 2014      7200
 2015              	.LASF34:
 2016 0017 454E5031 		.ascii	"ENP15_IN\000"
 2016      355F494E 
 2016      00
 2017              	.LASF7:
 2018 0020 454E5032 		.ascii	"ENP2_OUT\000"
 2018      5F4F5554 
 2018      00
 2019              	.LASF68:
 2020 0029 5553425F 		.ascii	"USB_SetAdd\000"
 2020      53657441 
 2020      646400
 2021              	.LASF48:
 2022 0034 72657374 		.ascii	"restoreValue\000"
 2022      6F726556 
 2022      616C7565 
 2022      00
 2023              	.LASF57:
 2024 0041 496E7472 		.ascii	"IntrSlot\000"
 2024      536C6F74 
 2024      00
 2025              	.LASF8:
 2026 004a 454E5032 		.ascii	"ENP2_IN\000"
 2026      5F494E00 
 2027              	.LASF35:
 2028 0052 5553425F 		.ascii	"USB_ERROR_CODES_DEF\000"
 2028      4552524F 
 2028      525F434F 
 2028      4445535F 
 2028      44454600 
 2029              	.LASF26:
 2030 0066 454E5031 		.ascii	"ENP11_IN\000"
 2030      315F494E 
 2030      00
 2031              	.LASF61:
ARM GAS  /cygdrive/c/DOCUME~1/mkwapisz/LOCALS~1/Temp/ccTMHT2f.s 			page 44


 2032 006f 456E6450 		.ascii	"EndPoint\000"
 2032      6F696E74 
 2032      00
 2033              	.LASF31:
 2034 0078 454E5031 		.ascii	"ENP14_OUT\000"
 2034      345F4F55 
 2034      5400
 2035              	.LASF18:
 2036 0082 454E5037 		.ascii	"ENP7_IN\000"
 2036      5F494E00 
 2037              	.LASF2:
 2038 008a 5553425F 		.ascii	"USB_INTR_ERROR\000"
 2038      494E5452 
 2038      5F455252 
 2038      4F5200
 2039              	.LASF36:
 2040 0099 5553425F 		.ascii	"USB_ENDOPINT_DEF\000"
 2040      454E444F 
 2040      50494E54 
 2040      5F444546 
 2040      00
 2041              	.LASF53:
 2042 00aa 756E7369 		.ascii	"unsigned int\000"
 2042      676E6564 
 2042      20696E74 
 2042      00
 2043              	.LASF72:
 2044 00b7 496E7472 		.ascii	"IntrCallback\000"
 2044      43616C6C 
 2044      6261636B 
 2044      00
 2045              	.LASF17:
 2046 00c4 454E5037 		.ascii	"ENP7_OUT\000"
 2046      5F4F5554 
 2046      00
 2047              	.LASF63:
 2048 00cd 496E7472 		.ascii	"IntrPriority\000"
 2048      5072696F 
 2048      72697479 
 2048      00
 2049              	.LASF58:
 2050 00da 55736572 		.ascii	"UserIntrCallback\000"
 2050      496E7472 
 2050      43616C6C 
 2050      6261636B 
 2050      00
 2051              	.LASF9:
 2052 00eb 454E5033 		.ascii	"ENP3_OUT\000"
 2052      5F4F5554 
 2052      00
 2053              	.LASF71:
 2054 00f4 5553425F 		.ascii	"USB_ISR\000"
 2054      49535200 
 2055              	.LASF46:
 2056 00fc 68616C52 		.ascii	"halRestoreInterrupts\000"
 2056      6573746F 
 2056      7265496E 
ARM GAS  /cygdrive/c/DOCUME~1/mkwapisz/LOCALS~1/Temp/ccTMHT2f.s 			page 45


 2056      74657272 
 2056      75707473 
 2057              	.LASF55:
 2058 0111 756E7369 		.ascii	"unsigned char\000"
 2058      676E6564 
 2058      20636861 
 2058      7200
 2059              	.LASF19:
 2060 011f 454E5038 		.ascii	"ENP8_OUT\000"
 2060      5F4F5554 
 2060      00
 2061              	.LASF3:
 2062 0128 4354524C 		.ascii	"CTRL_ENP_OUT\000"
 2062      5F454E50 
 2062      5F4F5554 
 2062      00
 2063              	.LASF10:
 2064 0135 454E5033 		.ascii	"ENP3_IN\000"
 2064      5F494E00 
 2065              	.LASF62:
 2066 013d 4D617850 		.ascii	"MaxPacketSize\000"
 2066      61636B65 
 2066      7453697A 
 2066      6500
 2067              	.LASF54:
 2068 014b 73686F72 		.ascii	"short unsigned int\000"
 2068      7420756E 
 2068      7369676E 
 2068      65642069 
 2068      6E7400
 2069              	.LASF28:
 2070 015e 454E5031 		.ascii	"ENP12_IN\000"
 2070      325F494E 
 2070      00
 2071              	.LASF49:
 2072 0167 436F6D6D 		.ascii	"Command\000"
 2072      616E6400 
 2073              	.LASF74:
 2074 016f 4C50435F 		.ascii	"LPC_USB.c\000"
 2074      5553422E 
 2074      6300
 2075              	.LASF20:
 2076 0179 454E5038 		.ascii	"ENP8_IN\000"
 2076      5F494E00 
 2077              	.LASF44:
 2078 0181 466E7072 		.ascii	"Fnpr\000"
 2078      00
 2079              	.LASF33:
 2080 0186 454E5031 		.ascii	"ENP15_OUT\000"
 2080      355F4F55 
 2080      5400
 2081              	.LASF52:
 2082 0190 6C6F6361 		.ascii	"localSR\000"
 2082      6C535200 
 2083              	.LASF73:
 2084 0198 474E5520 		.ascii	"GNU C 4.1.1\000"
 2084      4320342E 
ARM GAS  /cygdrive/c/DOCUME~1/mkwapisz/LOCALS~1/Temp/ccTMHT2f.s 			page 46


 2084      312E3100 
 2085              	.LASF25:
 2086 01a4 454E5031 		.ascii	"ENP11_OUT\000"
 2086      315F4F55 
 2086      5400
 2087              	.LASF50:
 2088 01ae 44617461 		.ascii	"Data\000"
 2088      00
 2089              	.LASF47:
 2090 01b3 5553425F 		.ascii	"USB_Cmd\000"
 2090      436D6400 
 2091              	.LASF69:
 2092 01bb 44657641 		.ascii	"DevAdd\000"
 2092      646400
 2093              	.LASF37:
 2094 01c2 5553425F 		.ascii	"USB_LowPrior\000"
 2094      4C6F7750 
 2094      72696F72 
 2094      00
 2095              	.LASF60:
 2096 01cf 5553425F 		.ascii	"USB_RealizeEndPoint\000"
 2096      5265616C 
 2096      697A6545 
 2096      6E64506F 
 2096      696E7400 
 2097              	.LASF11:
 2098 01e3 454E5034 		.ascii	"ENP4_OUT\000"
 2098      5F4F5554 
 2098      00
 2099              	.LASF45:
 2100 01ec 68616C44 		.ascii	"halDisableInterrupts\000"
 2100      69736162 
 2100      6C65496E 
 2100      74657272 
 2100      75707473 
 2101              	.LASF12:
 2102 0201 454E5034 		.ascii	"ENP4_IN\000"
 2102      5F494E00 
 2103              	.LASF59:
 2104 0209 44657649 		.ascii	"DevIntrPrio\000"
 2104      6E747250 
 2104      72696F00 
 2105              	.LASF40:
 2106 0215 5553425F 		.ascii	"USB_NotFast\000"
 2106      4E6F7446 
 2106      61737400 
 2107              	.LASF30:
 2108 0221 454E5031 		.ascii	"ENP13_IN\000"
 2108      335F494E 
 2108      00
 2109              	.LASF51:
 2110 022a 72657475 		.ascii	"returnReg\000"
 2110      726E5265 
 2110      6700
 2111              	.LASF22:
 2112 0234 454E5039 		.ascii	"ENP9_IN\000"
 2112      5F494E00 
ARM GAS  /cygdrive/c/DOCUME~1/mkwapisz/LOCALS~1/Temp/ccTMHT2f.s 			page 47


 2113              	.LASF70:
 2114 023c 68616C45 		.ascii	"halEnableInterrupts\000"
 2114      6E61626C 
 2114      65496E74 
 2114      65727275 
 2114      70747300 
 2115              	.LASF67:
 2116 0250 5553425F 		.ascii	"USB_ValidateBuffer\000"
 2116      56616C69 
 2116      64617465 
 2116      42756666 
 2116      657200
 2117              	.LASF43:
 2118 0263 5553425F 		.ascii	"USB_DEV_INT_PRIORITY_DEF\000"
 2118      4445565F 
 2118      494E545F 
 2118      5052494F 
 2118      52495459 
 2119              	.LASF4:
 2120 027c 4354524C 		.ascii	"CTRL_ENP_IN\000"
 2120      5F454E50 
 2120      5F494E00 
 2121              	.LASF13:
 2122 0288 454E5035 		.ascii	"ENP5_OUT\000"
 2122      5F4F5554 
 2122      00
 2123              	.LASF75:
 2124 0291 2F637967 		.ascii	"/cygdrive/c/Documents and Settings/mkwapisz/Desktop"
 2124      64726976 
 2124      652F632F 
 2124      446F6375 
 2124      6D656E74 
 2125 02c4 2F76332E 		.ascii	"/v3.0_without_filesys/testProgram_lpc2148_edu/usb\000"
 2125      305F7769 
 2125      74686F75 
 2125      745F6669 
 2125      6C657379 
 2126              	.LASF27:
 2127 02f6 454E5031 		.ascii	"ENP12_OUT\000"
 2127      325F4F55 
 2127      5400
 2128              	.LASF21:
 2129 0300 454E5039 		.ascii	"ENP9_OUT\000"
 2129      5F4F5554 
 2129      00
 2130              	.LASF64:
 2131 0309 496E7472 		.ascii	"IntrEna\000"
 2131      456E6100 
 2132              	.LASF42:
 2133 0311 5553425F 		.ascii	"USB_FrameFast\000"
 2133      4672616D 
 2133      65466173 
 2133      7400
 2134              	.LASF14:
 2135 031f 454E5035 		.ascii	"ENP5_IN\000"
 2135      5F494E00 
 2136              	.LASF5:
ARM GAS  /cygdrive/c/DOCUME~1/mkwapisz/LOCALS~1/Temp/ccTMHT2f.s 			page 48


 2137 0327 454E5031 		.ascii	"ENP1_OUT\000"
 2137      5F4F5554 
 2137      00
 2138              	.LASF1:
 2139 0330 5553425F 		.ascii	"USB_PLL_ERROR\000"
 2139      504C4C5F 
 2139      4552524F 
 2139      5200
 2140              	.LASF32:
 2141 033e 454E5031 		.ascii	"ENP14_IN\000"
 2141      345F494E 
 2141      00
 2142              	.LASF39:
 2143 0347 5553425F 		.ascii	"USB_INT_PRIORITY_DEF\000"
 2143      494E545F 
 2143      5052494F 
 2143      52495459 
 2143      5F444546 
 2144              	.LASF66:
 2145 035c 5553425F 		.ascii	"USB_ClearBuffer\000"
 2145      436C6561 
 2145      72427566 
 2145      66657200 
 2146              	.LASF56:
 2147 036c 5553425F 		.ascii	"USB_Init\000"
 2147      496E6974 
 2147      00
 2148              	.LASF41:
 2149 0375 5553425F 		.ascii	"USB_EP_Fast\000"
 2149      45505F46 
 2149      61737400 
 2150              	.LASF0:
 2151 0381 5553425F 		.ascii	"USB_OK\000"
 2151      4F4B00
 2152              	.LASF6:
 2153 0388 454E5031 		.ascii	"ENP1_IN\000"
 2153      5F494E00 
 2154              	.LASF65:
 2155 0390 4D61736B 		.ascii	"Mask\000"
 2155      00
 2156              	.LASF29:
 2157 0395 454E5031 		.ascii	"ENP13_OUT\000"
 2157      335F4F55 
 2157      5400
 2158              	.LASF24:
 2159 039f 454E5031 		.ascii	"ENP10_IN\000"
 2159      305F494E 
 2159      00
 2160              	.LASF23:
 2161 03a8 454E5031 		.ascii	"ENP10_OUT\000"
 2161      305F4F55 
 2161      5400
 2162              	.LASF16:
 2163 03b2 454E5036 		.ascii	"ENP6_IN\000"
 2163      5F494E00 
 2164              		.ident	"GCC: (GNU) 4.1.1"
ARM GAS  /cygdrive/c/DOCUME~1/mkwapisz/LOCALS~1/Temp/ccTMHT2f.s 			page 49


DEFINED SYMBOLS
                            *ABS*:00000000 LPC_USB.c
/cygdrive/c/DOCUME~1/mkwapisz/LOCALS~1/Temp/ccTMHT2f.s:13     .text:00000000 halDisableInterrupts
/cygdrive/c/DOCUME~1/mkwapisz/LOCALS~1/Temp/ccTMHT2f.s:23     .text:00000000 $a
/cygdrive/c/DOCUME~1/mkwapisz/LOCALS~1/Temp/ccTMHT2f.s:37     .text:00000020 halEnableInterrupts
/cygdrive/c/DOCUME~1/mkwapisz/LOCALS~1/Temp/ccTMHT2f.s:57     .text:00000030 halRestoreInterrupts
/cygdrive/c/DOCUME~1/mkwapisz/LOCALS~1/Temp/ccTMHT2f.s:76     .text:00000038 USB_Cmd
/cygdrive/c/DOCUME~1/mkwapisz/LOCALS~1/Temp/ccTMHT2f.s:288    .text:0000021c $d
/cygdrive/c/DOCUME~1/mkwapisz/LOCALS~1/Temp/ccTMHT2f.s:295    .text:00000224 USB_Init
/cygdrive/c/DOCUME~1/mkwapisz/LOCALS~1/Temp/ccTMHT2f.s:303    .text:00000224 $a
/cygdrive/c/DOCUME~1/mkwapisz/LOCALS~1/Temp/ccTMHT2f.s:395    .text:00000300 $d
/cygdrive/c/DOCUME~1/mkwapisz/LOCALS~1/Temp/ccTMHT2f.s:594    .text:00000444 USB_ISR
                            *COM*:00000004 IntrCallback
/cygdrive/c/DOCUME~1/mkwapisz/LOCALS~1/Temp/ccTMHT2f.s:406    .text:00000318 USB_RealizeEndPoint
/cygdrive/c/DOCUME~1/mkwapisz/LOCALS~1/Temp/ccTMHT2f.s:413    .text:00000318 $a
/cygdrive/c/DOCUME~1/mkwapisz/LOCALS~1/Temp/ccTMHT2f.s:486    .text:000003b4 $d
/cygdrive/c/DOCUME~1/mkwapisz/LOCALS~1/Temp/ccTMHT2f.s:492    .text:000003b8 USB_ClearBuffer
/cygdrive/c/DOCUME~1/mkwapisz/LOCALS~1/Temp/ccTMHT2f.s:500    .text:000003b8 $a
/cygdrive/c/DOCUME~1/mkwapisz/LOCALS~1/Temp/ccTMHT2f.s:521    .text:000003dc USB_ValidateBuffer
/cygdrive/c/DOCUME~1/mkwapisz/LOCALS~1/Temp/ccTMHT2f.s:562    .text:00000414 USB_SetAdd
/cygdrive/c/DOCUME~1/mkwapisz/LOCALS~1/Temp/ccTMHT2f.s:619    .text:0000046c $d

NO UNDEFINED SYMBOLS
