ARM GAS  /cygdrive/c/DOCUME~1/mkwapisz/LOCALS~1/Temp/cco4zUpe.s 			page 1


   1              		.file	"LPC_HID.c"
   8 0000 21010000 		.text
   8      02002000 
   8      00000201 
   8      FB0E0D00 
   8      01010101 
   9              	.Ltext0:
  10              		.align	2
  11              		.global	HID_GetConfiguration
  12              		.type	HID_GetConfiguration, %function
  13              	HID_GetConfiguration:
  14              	.LFB3:
  15              		.file 1 "LPC_HID.c"
   1:LPC_HID.c     **** /*************************************************************************
   2:LPC_HID.c     ****  *
   3:LPC_HID.c     **** **************************************************************************/
   4:LPC_HID.c     **** #include <lpc2xxx.h>
   5:LPC_HID.c     **** #include <printf_P.h>
   6:LPC_HID.c     **** #include "lpc_hid.h"
   7:LPC_HID.c     **** 
   8:LPC_HID.c     **** 
   9:LPC_HID.c     **** typedef union
  10:LPC_HID.c     **** {
  11:LPC_HID.c     ****   unsigned int Data[2];
  12:LPC_HID.c     ****   unsigned short SetupRecuest;
  13:LPC_HID.c     ****   struct
  14:LPC_HID.c     ****   {
  15:LPC_HID.c     ****     unsigned char  RequestType;
  16:LPC_HID.c     ****     unsigned char  Request;
  17:LPC_HID.c     ****     unsigned short Value;
  18:LPC_HID.c     ****     unsigned short Index;
  19:LPC_HID.c     ****     unsigned short Length;
  20:LPC_HID.c     ****   } __attribute__ ((packed)) DataFields;
  21:LPC_HID.c     **** } __attribute__ ((packed)) USB_SETUP_PACKET_DEF;
  22:LPC_HID.c     **** 
  23:LPC_HID.c     **** #define MIN(a, b) (((a) < (b)) ? (a) : (b))
  24:LPC_HID.c     **** 
  25:LPC_HID.c     **** unsigned char  currentConfiguration __attribute__ ((aligned (8)));
  26:LPC_HID.c     **** unsigned char  currentAddress __attribute__ ((aligned (8)));
  27:LPC_HID.c     **** 
  28:LPC_HID.c     **** short mouseDescriptor[] __attribute__ ((aligned (8))) =
  29:LPC_HID.c     **** {
  30:LPC_HID.c     ****   0x0105, // Usage Page (Generic Desktop)
  31:LPC_HID.c     ****   0x0209, // Usage (Mouse)
  32:LPC_HID.c     ****   0x01A1, // Collection (Application)
  33:LPC_HID.c     ****   0x0109, //  Usage (Pointer)
  34:LPC_HID.c     ****   0x00A1, //  Collection (Physical)
  35:LPC_HID.c     ****   0x0905, //    Usage Page (Buttons)
  36:LPC_HID.c     ****   0x0119, //    Usage Minimumù (01)
  37:LPC_HID.c     ****   0x0329, //    Usage Maximum (03)
  38:LPC_HID.c     ****   0x0015, //    Logical Minimum (0)
ARM GAS  /cygdrive/c/DOCUME~1/mkwapisz/LOCALS~1/Temp/cco4zUpe.s 			page 2


  39:LPC_HID.c     ****   0x0125, //    Logical Maximum (1)
  40:LPC_HID.c     ****   0x0395, //    Report Count (3)
  41:LPC_HID.c     ****   0x0175, //    Report Size (1)
  42:LPC_HID.c     ****   0x0281, //    3 Button bits
  43:LPC_HID.c     ****   0x0195, //    Report Count (1)
  44:LPC_HID.c     ****   0x0575, //    Report Size (6)
  45:LPC_HID.c     ****   0x0181, //    6 bit padding
  46:LPC_HID.c     ****   0x0105, //    Generic desktop
  47:LPC_HID.c     ****   0x3009, //    Usage(X)
  48:LPC_HID.c     ****   0x3109, //    Usage(Y)
  49:LPC_HID.c     ****   0x8115, //    Logical Minimum (-127)
  50:LPC_HID.c     ****   0x7F25, //    Logical Maximum (127)
  51:LPC_HID.c     ****   0x0875, //    Report Size (8)
  52:LPC_HID.c     ****   0x0295, //    Report Count (2)
  53:LPC_HID.c     ****   0x0681, //    2 position bytes
  54:LPC_HID.c     ****   0xC0C0  // End collection x2
  55:LPC_HID.c     **** } ;
  56:LPC_HID.c     **** 
  57:LPC_HID.c     **** // Check http://www.usb.org/developers/hidpage/#Class_Definition
  58:LPC_HID.c     **** char devDescriptor[] __attribute__ ((aligned (8))) =
  59:LPC_HID.c     **** {
  60:LPC_HID.c     ****   /* Device descriptor */
  61:LPC_HID.c     ****   0x12,                 // bLength
  62:LPC_HID.c     ****   0x01,                 // bDescriptorType
  63:LPC_HID.c     ****   0x10,                 // bcdUSBL
  64:LPC_HID.c     ****   0x01,                 //
  65:LPC_HID.c     ****   0x00,                 // bDeviceClass:
  66:LPC_HID.c     ****   0x00,                 // bDeviceSubclass:
  67:LPC_HID.c     ****   0x00,                 // bDeviceProtocol:
  68:LPC_HID.c     ****   MAX_CTRL_EP_PK_SIZE,  // bMaxPacketSize0
  69:LPC_HID.c     ****   0xFF,                 // idVendorL
  70:LPC_HID.c     ****   0xFF,                 //
  71:LPC_HID.c     ****   0x01,                 // idProductL
  72:LPC_HID.c     ****   0x00,                 //
  73:LPC_HID.c     ****   0x00,                 // bcdDeviceL
  74:LPC_HID.c     ****   0x00,                 //
  75:LPC_HID.c     ****   0x01,                 // iManufacturer
  76:LPC_HID.c     ****   0x02,                 // iProduct
  77:LPC_HID.c     ****   0x00,                 // SerialNumber
  78:LPC_HID.c     ****   0x01                  // bNumConfigs
  79:LPC_HID.c     **** };
  80:LPC_HID.c     **** 
  81:LPC_HID.c     **** char cfgDescriptor[] __attribute__ ((aligned (8))) =
  82:LPC_HID.c     **** {
  83:LPC_HID.c     ****   /* ============== CONFIGURATION 1 =========== */
  84:LPC_HID.c     ****   /* Configuration 1 descriptor */
  85:LPC_HID.c     ****   0x09,   // CbLength
  86:LPC_HID.c     ****   0x02,   // CbDescriptorType
  87:LPC_HID.c     ****   0x22,   // CwTotalLength 2 EP + Control
  88:LPC_HID.c     ****   0x00,
  89:LPC_HID.c     ****   0x01,   // CbNumInterfaces
  90:LPC_HID.c     ****   0x01,   // CbConfigurationValue
  91:LPC_HID.c     ****   0x00,   // CiConfiguration
  92:LPC_HID.c     ****   0xA0,   // CbmAttributes Bus powered + Remote Wakeup
  93:LPC_HID.c     ****   0x32,   // CMaxPower: 100mA
  94:LPC_HID.c     **** 
  95:LPC_HID.c     ****   /* Mouse Interface Descriptor Requirement */
ARM GAS  /cygdrive/c/DOCUME~1/mkwapisz/LOCALS~1/Temp/cco4zUpe.s 			page 3


  96:LPC_HID.c     ****   0x09,   // bLength
  97:LPC_HID.c     ****   0x04,   // bDescriptorType
  98:LPC_HID.c     ****   0x00,   // bInterfaceNumber
  99:LPC_HID.c     ****   0x00,   // bAlternateSetting
 100:LPC_HID.c     ****   0x01,   // bNumEndpoints
 101:LPC_HID.c     ****   0x03,   // bInterfaceClass: HID code
 102:LPC_HID.c     ****   0x01,   // bInterfaceSubclass
 103:LPC_HID.c     ****   0x02,   // bInterfaceProtocol: Mouse
 104:LPC_HID.c     ****   0x00,   // iInterface
 105:LPC_HID.c     **** 
 106:LPC_HID.c     ****   /* HID Descriptor */
 107:LPC_HID.c     ****   0x09,   // bLength
 108:LPC_HID.c     ****   0x21,   // bDescriptor type: HID Descriptor Type
 109:LPC_HID.c     ****   0x00,   // bcdHID
 110:LPC_HID.c     ****   0x01,
 111:LPC_HID.c     ****   0x00,   // bCountry Code
 112:LPC_HID.c     ****   0x01,   // bNumDescriptors
 113:LPC_HID.c     ****   0x22,   // bDescriptorType
 114:LPC_HID.c     ****   sizeof(mouseDescriptor), // wItemLength
 115:LPC_HID.c     ****   0x00,
 116:LPC_HID.c     **** 
 117:LPC_HID.c     ****   /* Endpoint 1 descriptor */
 118:LPC_HID.c     ****   0x07,   // bLength
 119:LPC_HID.c     ****   0x05,   // bDescriptorType
 120:LPC_HID.c     ****   ((EP_REP&1)<<7) + (EP_REP>>1),// bEndpointAddress and direction, Endpoint Logic address!!
 121:LPC_HID.c     ****   0x03,   // bmAttributes      INT
 122:LPC_HID.c     ****   0x04,   // wMaxPacketSize: 3 bytes (button, x, y)
 123:LPC_HID.c     ****   0x00,
 124:LPC_HID.c     ****   0x0A    // bInterval
 125:LPC_HID.c     **** };
 126:LPC_HID.c     **** 
 127:LPC_HID.c     **** 
 128:LPC_HID.c     **** char LanguagesStr[] __attribute__ ((aligned (8))) =
 129:LPC_HID.c     **** {
 130:LPC_HID.c     ****   /* String descriptor 0*/
 131:LPC_HID.c     ****   0x04, // bLength
 132:LPC_HID.c     ****   0x03, // bDescriptorType
 133:LPC_HID.c     ****   0x09,0x04 // Language English
 134:LPC_HID.c     **** };
 135:LPC_HID.c     **** 
 136:LPC_HID.c     **** char ManufacturerStr[] __attribute__ ((aligned (8))) =
 137:LPC_HID.c     **** {
 138:LPC_HID.c     ****   /* String descriptor 1*/
 139:LPC_HID.c     ****   60,   // bLength
 140:LPC_HID.c     ****   0x03, // bDescriptorType
 141:LPC_HID.c     ****   'P',0,'h',0,'i',0,'l',0,'i',0,
 142:LPC_HID.c     ****   'p',0,' ',0,'S',0,'e',0,'m',0,
 143:LPC_HID.c     ****   'i',0,'c',0,'o',0,'n',0,'d',0,
 144:LPC_HID.c     ****   'u',0,'c',0,'t',0,'o',0,'r',0,
 145:LPC_HID.c     ****   's',0,' ',0,'L',0,'P',0,'C',0,
 146:LPC_HID.c     ****   '2',0,'1',0,'4',0,'8',0
 147:LPC_HID.c     **** };
 148:LPC_HID.c     **** 
 149:LPC_HID.c     **** char ProductStr[] __attribute__ ((aligned (8))) =
 150:LPC_HID.c     **** {
 151:LPC_HID.c     ****   /* String descriptor 2*/
 152:LPC_HID.c     ****   98,   // bLength
ARM GAS  /cygdrive/c/DOCUME~1/mkwapisz/LOCALS~1/Temp/cco4zUpe.s 			page 4


 153:LPC_HID.c     ****   0x03, // bDescriptorType
 154:LPC_HID.c     ****   'E',0,'m',0,'b',0,'e',0,'d',0,
 155:LPC_HID.c     ****   'd',0,'e',0,'d',0,' ',0,'A',0,
 156:LPC_HID.c     ****   'r',0,'t',0,'i',0,'s',0,'t',0,
 157:LPC_HID.c     ****   's',0,' ',0,'Q',0,'u',0,'i',0,
 158:LPC_HID.c     ****   'c',0,'k',0,'S',0,'t',0,'a',0,
 159:LPC_HID.c     ****   'r',0,'t',0,' ',0,'B',0,'o',0,
 160:LPC_HID.c     ****   'a',0,'r',0,'d',0,' ',0,'-',0,
 161:LPC_HID.c     ****   ' ',0,'t',0,'e',0,'s',0,'t',0,
 162:LPC_HID.c     ****   ' ',0,'p',0,'r',0,'o',0,'g',0,
 163:LPC_HID.c     ****   'r',0,'a',0,'m',0
 164:LPC_HID.c     **** };
 165:LPC_HID.c     **** 
 166:LPC_HID.c     **** const char * const StrPoin [] __attribute__ ((aligned (8))) =
 167:LPC_HID.c     **** {
 168:LPC_HID.c     ****   LanguagesStr,ManufacturerStr,ProductStr
 169:LPC_HID.c     **** };
 170:LPC_HID.c     **** 
 171:LPC_HID.c     **** /*************************************************************************
 172:LPC_HID.c     ****  * Function Name: HID_Intr
 173:LPC_HID.c     ****  * Parameters: none
 174:LPC_HID.c     ****  * Return: none
 175:LPC_HID.c     ****  * Description: HID Init
 176:LPC_HID.c     ****  *
 177:LPC_HID.c     ****  *************************************************************************/
 178:LPC_HID.c     **** void HID_Init (void)
 179:LPC_HID.c     **** {
 180:LPC_HID.c     ****   currentConfiguration = 0;
 181:LPC_HID.c     ****   currentAddress = 0;
 182:LPC_HID.c     ****   // Realize I/O Ctrl Endpoint
 183:LPC_HID.c     ****   USB_RealizeEndPoint(CTRL_ENP_OUT,MAX_CTRL_EP_PK_SIZE,USB_LowPrior,1);
 184:LPC_HID.c     ****   USB_RealizeEndPoint(CTRL_ENP_IN ,MAX_CTRL_EP_PK_SIZE,USB_LowPrior,0);
 185:LPC_HID.c     ****   // Set dafault Address
 186:LPC_HID.c     ****   USB_SetAdd(currentAddress);
 187:LPC_HID.c     ****   /* Set the device status, making the soft connect active */
 188:LPC_HID.c     ****   USB_Cmd(CMD_USB_SET_DEV_STAT,1);
 189:LPC_HID.c     **** }
 190:LPC_HID.c     **** 
 191:LPC_HID.c     **** /*************************************************************************
 192:LPC_HID.c     ****  * Function Name: HID_GetConfiguration
 193:LPC_HID.c     ****  * Parameters: none
 194:LPC_HID.c     ****  * Return: unsigned char
 195:LPC_HID.c     ****  * Description: Return current device configuration
 196:LPC_HID.c     ****  *
 197:LPC_HID.c     ****  *************************************************************************/
 198:LPC_HID.c     **** unsigned char HID_GetConfiguration (void)
 199:LPC_HID.c     **** {
  16              		.loc 1 199 0
  17              		@ Function supports interworking.
  18              		@ args = 0, pretend = 0, frame = 0
  19              		@ frame_needed = 0, uses_anonymous_args = 0
  20              		@ link register save eliminated.
 200:LPC_HID.c     ****   return(currentConfiguration);
 201:LPC_HID.c     **** }
  21              		.loc 1 201 0
  22 0000 04309FE5 		ldr	r3, .L3
  23 0004 0000D3E5 		ldrb	r0, [r3, #0]	@ zero_extendqisi2
ARM GAS  /cygdrive/c/DOCUME~1/mkwapisz/LOCALS~1/Temp/cco4zUpe.s 			page 5


  24              		.loc 1 199 0
  25              		@ lr needed for prologue
  26              		.loc 1 201 0
  27 0008 1EFF2FE1 		bx	lr
  28              	.L4:
  29              		.align	2
  30              	.L3:
  31 000c 00000000 		.word	currentConfiguration
  32              	.LFE3:
  33              		.size	HID_GetConfiguration, .-HID_GetConfiguration
  34              		.section	.rodata.str1.4,"aMS",%progbits,1
  35              		.align	2
  36              	.LC0:
  37 0000 4572726F 		.ascii	"Error Send Data\000"
  37      72205365 
  37      6E642044 
  37      61746100 
  38              		.text
  39              		.align	2
  40              		.global	HID_SendReport
  41              		.type	HID_SendReport, %function
  42              	HID_SendReport:
  43              	.LFB9:
 202:LPC_HID.c     **** 
 203:LPC_HID.c     **** /*************************************************************************
 204:LPC_HID.c     ****  * Function Name: HID_CallBack
 205:LPC_HID.c     ****  * Parameters: none
 206:LPC_HID.c     ****  * Return: none
 207:LPC_HID.c     ****  * Description: HID callback subroutine
 208:LPC_HID.c     ****  *
 209:LPC_HID.c     ****  *************************************************************************/
 210:LPC_HID.c     **** void HID_CallBack (void)
 211:LPC_HID.c     **** {
 212:LPC_HID.c     ****   if (DEV_INT_STAT & USB_ErrorInterrupt)
 213:LPC_HID.c     ****   {
 214:LPC_HID.c     ****     // Error interrupt
 215:LPC_HID.c     **** //printf("\nUSB error irq\n");
 216:LPC_HID.c     ****     USB_Cmd(CMD_USB_RD_ERROR_STAT,0);
 217:LPC_HID.c     ****     DEV_INT_CLR = USB_ErrorInterrupt;
 218:LPC_HID.c     ****   }
 219:LPC_HID.c     **** 
 220:LPC_HID.c     ****   if (DEV_INT_STAT & USB_DevStatusInterrupt)
 221:LPC_HID.c     ****   {
 222:LPC_HID.c     ****     // Device status interrupt
 223:LPC_HID.c     ****     int USB_DevIntrStaus = USB_Cmd(CMD_USB_GET_DEV_STAT,0);
 224:LPC_HID.c     ****     // Bus reset
 225:LPC_HID.c     ****     if (USB_DevIntrStaus & USB_BusReset)
 226:LPC_HID.c     ****     {
 227:LPC_HID.c     **** //printf("\nUSB bus reset\n");
 228:LPC_HID.c     ****       HID_Init();
 229:LPC_HID.c     ****     }
 230:LPC_HID.c     ****     DEV_INT_CLR = USB_DevStatusInterrupt;
 231:LPC_HID.c     ****   }
 232:LPC_HID.c     **** 
 233:LPC_HID.c     ****   if (DEV_INT_STAT & USB_FastInterrupt)
 234:LPC_HID.c     ****   {
 235:LPC_HID.c     ****     DEV_INT_CLR = USB_FastInterrupt;
ARM GAS  /cygdrive/c/DOCUME~1/mkwapisz/LOCALS~1/Temp/cco4zUpe.s 			page 6


 236:LPC_HID.c     ****   }
 237:LPC_HID.c     **** 
 238:LPC_HID.c     ****   if (DEV_INT_STAT & USB_SlowInterrupt)
 239:LPC_HID.c     ****   {
 240:LPC_HID.c     ****     // Slow interrupt
 241:LPC_HID.c     ****     if (EP_INT_STAT & (1<<CTRL_ENP_OUT))
 242:LPC_HID.c     ****     {
 243:LPC_HID.c     ****       // Select And Clear interrupt
 244:LPC_HID.c     ****       HID_ImplSetupPacket();
 245:LPC_HID.c     ****       EP_INT_CLR = 1<<CTRL_ENP_OUT;
 246:LPC_HID.c     ****     }
 247:LPC_HID.c     ****     DEV_INT_CLR = USB_SlowInterrupt;
 248:LPC_HID.c     ****   }
 249:LPC_HID.c     **** }
 250:LPC_HID.c     **** 
 251:LPC_HID.c     **** /*************************************************************************
 252:LPC_HID.c     ****  * Function Name: HID_CtrlStall
 253:LPC_HID.c     ****  * Parameters: none
 254:LPC_HID.c     ****  * Return: none
 255:LPC_HID.c     ****  * Description: Stalls Cotrol Endpoint
 256:LPC_HID.c     ****  *
 257:LPC_HID.c     ****  *************************************************************************/
 258:LPC_HID.c     **** void HID_CtrlStall (void)
 259:LPC_HID.c     **** {
 260:LPC_HID.c     ****   USB_Cmd(CMD_USB_SET_EP_STAT + CTRL_ENP_OUT,0x80);
 261:LPC_HID.c     **** }
 262:LPC_HID.c     **** 
 263:LPC_HID.c     **** /*************************************************************************
 264:LPC_HID.c     ****  * Function Name: HID_SendDataByCtrlEP
 265:LPC_HID.c     ****  * Parameters: none
 266:LPC_HID.c     ****  * Return: none
 267:LPC_HID.c     ****  * Description: Send zero length size packet
 268:LPC_HID.c     ****  *
 269:LPC_HID.c     ****  *************************************************************************/
 270:LPC_HID.c     **** void HID_SendZeroLengthByCtrlEP (void)
 271:LPC_HID.c     **** {
 272:LPC_HID.c     **** //EA  USBCTRL_bit.LOG_ENDPOINT = 0;
 273:LPC_HID.c     **** //EA  USBCTRL_bit.WR_EN = 1;
 274:LPC_HID.c     **** USB_CTRL = (USB_CTRL & 0x01) | 0x02;
 275:LPC_HID.c     ****   TX_PLENGTH = 0;
 276:LPC_HID.c     ****   do
 277:LPC_HID.c     ****   {
 278:LPC_HID.c     ****     TX_DATA = 0;
 279:LPC_HID.c     ****   }
 280:LPC_HID.c     **** //EA  while (USBCTRL_bit.WR_EN);
 281:LPC_HID.c     ****   while (USB_CTRL & 0x02);
 282:LPC_HID.c     **** 
 283:LPC_HID.c     ****   // Validate buffer
 284:LPC_HID.c     ****   USB_ValidateBuffer(CTRL_ENP_IN);
 285:LPC_HID.c     **** 
 286:LPC_HID.c     ****   // Wait for interrupt by EP0 IN
 287:LPC_HID.c     ****   while ((EP_INT_STAT & (1<<CTRL_ENP_IN)) == 0)
 288:LPC_HID.c     ****   {
 289:LPC_HID.c     ****     if ((USB_Cmd(CMD_USB_SET_EP_STAT + CTRL_ENP_IN,0) & 1) == 0)
 290:LPC_HID.c     ****     {
 291:LPC_HID.c     ****       if((EP_INT_STAT & (1<<CTRL_ENP_IN)) == 0)
 292:LPC_HID.c     ****       {
ARM GAS  /cygdrive/c/DOCUME~1/mkwapisz/LOCALS~1/Temp/cco4zUpe.s 			page 7


 293:LPC_HID.c     ****         break;
 294:LPC_HID.c     ****       }
 295:LPC_HID.c     ****     }
 296:LPC_HID.c     ****   }
 297:LPC_HID.c     ****   // Clear Endpoint inerrupt (in USB clock domain)
 298:LPC_HID.c     ****   USB_Cmd(CMD_USB_SEL_CLR_INT_EP + CTRL_ENP_IN,0);
 299:LPC_HID.c     ****   // Clear interrupt
 300:LPC_HID.c     ****   EP_INT_CLR = (1<<CTRL_ENP_IN);
 301:LPC_HID.c     **** }
 302:LPC_HID.c     **** 
 303:LPC_HID.c     **** /*************************************************************************
 304:LPC_HID.c     ****  * Function Name: HID_SendDataByCtrlEP
 305:LPC_HID.c     ****  * Parameters: none
 306:LPC_HID.c     ****  * Return: none
 307:LPC_HID.c     ****  * Description: Send data by Cotrol Endpoint
 308:LPC_HID.c     ****  *
 309:LPC_HID.c     ****  *************************************************************************/
 310:LPC_HID.c     **** void HID_SendDataByCtrlEP (unsigned char * Data, unsigned int DataSize)
 311:LPC_HID.c     **** {
 312:LPC_HID.c     **** unsigned int * pData = (unsigned int *)Data;
 313:LPC_HID.c     **** unsigned int i;
 314:LPC_HID.c     **** int ZerroLength = 0;
 315:LPC_HID.c     **** 
 316:LPC_HID.c     ****   do
 317:LPC_HID.c     ****   {
 318:LPC_HID.c     ****     if (DataSize == MAX_CTRL_EP_PK_SIZE)
 319:LPC_HID.c     ****     {
 320:LPC_HID.c     ****       ++ZerroLength;
 321:LPC_HID.c     ****     }
 322:LPC_HID.c     ****     i = MIN(DataSize,MAX_CTRL_EP_PK_SIZE);
 323:LPC_HID.c     ****     DataSize -= i;
 324:LPC_HID.c     ****     // Select Endpoint
 325:LPC_HID.c     **** //EA    USBCTRL_bit.LOG_ENDPOINT = 0;
 326:LPC_HID.c     **** //EA    USBCTRL_bit.WR_EN = 1;
 327:LPC_HID.c     **** USB_CTRL = (USB_CTRL & 0x01) | 0x02;
 328:LPC_HID.c     **** 
 329:LPC_HID.c     ****     TX_PLENGTH = i;
 330:LPC_HID.c     **** 
 331:LPC_HID.c     **** 	  do
 332:LPC_HID.c     ****     {
 333:LPC_HID.c     ****       TX_DATA = *pData++;
 334:LPC_HID.c     ****     }
 335:LPC_HID.c     ****     while (USB_CTRL & 0x02);
 336:LPC_HID.c     **** //EA    while (USBCTRL_bit.WR_EN);
 337:LPC_HID.c     **** 
 338:LPC_HID.c     ****     // Validate buffer
 339:LPC_HID.c     ****     USB_ValidateBuffer(CTRL_ENP_IN);
 340:LPC_HID.c     ****     // Wait until data is send or overwrite by setup packet
 341:LPC_HID.c     ****     while ((EP_INT_STAT & (1<<CTRL_ENP_IN)) == 0)
 342:LPC_HID.c     ****     {
 343:LPC_HID.c     ****       if ((USB_Cmd(CMD_USB_SET_EP_STAT + CTRL_ENP_IN,0) & 1) == 0)
 344:LPC_HID.c     ****       {
 345:LPC_HID.c     ****         if((EP_INT_STAT & (1<<CTRL_ENP_IN)) == 0)
 346:LPC_HID.c     ****         {
 347:LPC_HID.c     ****           USB_Cmd(CMD_USB_SEL_CLR_INT_EP + CTRL_ENP_IN,0);
 348:LPC_HID.c     ****           return;
 349:LPC_HID.c     ****         }
ARM GAS  /cygdrive/c/DOCUME~1/mkwapisz/LOCALS~1/Temp/cco4zUpe.s 			page 8


 350:LPC_HID.c     ****       }
 351:LPC_HID.c     ****     }
 352:LPC_HID.c     **** 
 353:LPC_HID.c     ****     USB_Cmd(CMD_USB_SEL_CLR_INT_EP + CTRL_ENP_IN,0);
 354:LPC_HID.c     ****     EP_INT_CLR = (1<<CTRL_ENP_IN);
 355:LPC_HID.c     ****   }
 356:LPC_HID.c     ****   while (DataSize);
 357:LPC_HID.c     ****   if (ZerroLength)
 358:LPC_HID.c     ****   {
 359:LPC_HID.c     ****     HID_SendZeroLengthByCtrlEP();
 360:LPC_HID.c     ****   }
 361:LPC_HID.c     **** }
 362:LPC_HID.c     **** 
 363:LPC_HID.c     **** /*************************************************************************
 364:LPC_HID.c     ****  * Function Name: HID_ImplSetupPacket
 365:LPC_HID.c     ****  * Parameters: none
 366:LPC_HID.c     ****  * Return: none
 367:LPC_HID.c     ****  * Description: Setup packet implementation
 368:LPC_HID.c     ****  *
 369:LPC_HID.c     ****  *************************************************************************/
 370:LPC_HID.c     **** void HID_ImplSetupPacket (void)
 371:LPC_HID.c     **** {
 372:LPC_HID.c     **** static USB_SETUP_PACKET_DEF Setup __attribute__ ((aligned (8)));
 373:LPC_HID.c     **** static unsigned short Status,Length __attribute__ ((aligned (8)));
 374:LPC_HID.c     **** int i = 0;
 375:LPC_HID.c     ****   do
 376:LPC_HID.c     ****   {
 377:LPC_HID.c     ****     // Read from CTRL Endpoint (0 - out)
 378:LPC_HID.c     **** //EA    USBCTRL_bit.LOG_ENDPOINT = 0;
 379:LPC_HID.c     **** //EA    USBCTRL_bit.RD_EN = 1;
 380:LPC_HID.c     **** USB_CTRL = (USB_CTRL & 0x02) | 0x01;
 381:LPC_HID.c     **** 
 382:LPC_HID.c     ****     // Wait Packet ready flag
 383:LPC_HID.c     **** //EA    while (RCVEPKTLEN_bit.PKT_RDY == 0);
 384:LPC_HID.c     ****     while ((RX_PLENGTH & 0x800) == 0);
 385:LPC_HID.c     ****     // Read data from USB FIFO
 386:LPC_HID.c     ****     // Get size of packet
 387:LPC_HID.c     **** //EA    Length = RCVEPKTLEN_bit.PKT_LNGTH;
 388:LPC_HID.c     ****     Length = RX_PLENGTH & 0x3ff;
 389:LPC_HID.c     **** //EA    while (RCVEPKTLEN_bit.DV)
 390:LPC_HID.c     ****     while (RX_PLENGTH & 0x400)
 391:LPC_HID.c     ****     {
 392:LPC_HID.c     **** //EA      Setup.Data[i++] = RCVEDATA;
 393:LPC_HID.c     ****       Setup.Data[i++] = RX_DATA;
 394:LPC_HID.c     ****     }
 395:LPC_HID.c     ****     // Clear Buffer Full flag
 396:LPC_HID.c     ****     i = USB_ClearBuffer(CTRL_ENP_OUT);
 397:LPC_HID.c     ****     USB_Cmd(CMD_USB_SEL_CLR_INT_EP+CTRL_ENP_OUT,0);
 398:LPC_HID.c     ****   }
 399:LPC_HID.c     ****   while(i);
 400:LPC_HID.c     **** 
 401:LPC_HID.c     ****   if (Length == 0) return;
 402:LPC_HID.c     **** 
 403:LPC_HID.c     ****   switch (Setup.SetupRecuest)
 404:LPC_HID.c     ****   {
 405:LPC_HID.c     ****   case USB_GET_DESCRIPTOR:
 406:LPC_HID.c     **** //printf("\nUSB get descriptor\n");
ARM GAS  /cygdrive/c/DOCUME~1/mkwapisz/LOCALS~1/Temp/cco4zUpe.s 			page 9


 407:LPC_HID.c     **** 
 408:LPC_HID.c     ****     if (Setup.DataFields.Value == 0x100)       // Return Device Descriptor
 409:LPC_HID.c     ****     {
 410:LPC_HID.c     ****       HID_SendDataByCtrlEP((unsigned char *)devDescriptor,MIN(sizeof(devDescriptor), Setup.DataFiel
 411:LPC_HID.c     ****     }
 412:LPC_HID.c     ****     else if (Setup.DataFields.Value == 0x200)  // Return Configuration Descriptor
 413:LPC_HID.c     ****     {
 414:LPC_HID.c     ****       HID_SendDataByCtrlEP((unsigned char *)cfgDescriptor,MIN(sizeof(cfgDescriptor), Setup.DataFiel
 415:LPC_HID.c     ****     }
 416:LPC_HID.c     ****     else if ((Setup.DataFields.Value & 0xFF00) == 0x300)  // Return String
 417:LPC_HID.c     ****     {
 418:LPC_HID.c     ****       if ((Setup.DataFields.Value & 0xF) < 3)
 419:LPC_HID.c     ****       {
 420:LPC_HID.c     ****         const char * Data = StrPoin[Setup.DataFields.Value & 0xF];
 421:LPC_HID.c     ****         HID_SendDataByCtrlEP((unsigned char *)Data,MIN(*Data, Setup.DataFields.Length));
 422:LPC_HID.c     ****       }
 423:LPC_HID.c     ****       else
 424:LPC_HID.c     ****       {
 425:LPC_HID.c     ****         HID_CtrlStall();
 426:LPC_HID.c     ****       }
 427:LPC_HID.c     ****     }
 428:LPC_HID.c     ****     else
 429:LPC_HID.c     ****     {
 430:LPC_HID.c     ****       HID_CtrlStall();
 431:LPC_HID.c     ****     }
 432:LPC_HID.c     ****     break;
 433:LPC_HID.c     ****   case USB_SET_ADD:
 434:LPC_HID.c     **** //printf("\nUSB set address\n");
 435:LPC_HID.c     ****     HID_SendZeroLengthByCtrlEP();
 436:LPC_HID.c     ****     currentAddress = Setup.DataFields.Value;
 437:LPC_HID.c     ****     USB_SetAdd(currentAddress);
 438:LPC_HID.c     ****     break;
 439:LPC_HID.c     ****   case USB_SET_CONFIGURATION:
 440:LPC_HID.c     **** //printf("\nUSB set configuration\n");
 441:LPC_HID.c     ****     if (Setup.DataFields.Value == 1)
 442:LPC_HID.c     ****     {
 443:LPC_HID.c     ****       currentConfiguration = Setup.DataFields.Value;
 444:LPC_HID.c     ****       USB_RealizeEndPoint(EP_REP,4,USB_LowPrior,0);
 445:LPC_HID.c     ****       USB_Cmd(CMD_USB_CFG_DEV,1);
 446:LPC_HID.c     ****       HID_SendZeroLengthByCtrlEP();
 447:LPC_HID.c     ****     }
 448:LPC_HID.c     ****     else
 449:LPC_HID.c     ****     {
 450:LPC_HID.c     ****       // Enable only Endpoint 0
 451:LPC_HID.c     ****       USB_Cmd(CMD_USB_CFG_DEV,0);
 452:LPC_HID.c     ****       HID_SendZeroLengthByCtrlEP();
 453:LPC_HID.c     ****     }
 454:LPC_HID.c     ****     break;
 455:LPC_HID.c     ****   case USB_GET_CONFIGURATION:
 456:LPC_HID.c     **** //printf("\nUSB get configuration\n");
 457:LPC_HID.c     ****     HID_SendDataByCtrlEP(&currentConfiguration,sizeof(currentConfiguration));
 458:LPC_HID.c     ****     break;
 459:LPC_HID.c     ****   case USB_GET_STATUS_DEV:
 460:LPC_HID.c     ****   case USB_GET_STATUS_INTERFACE:
 461:LPC_HID.c     **** //printf("\nUSB get status\n");
 462:LPC_HID.c     ****     Status = 0;
 463:LPC_HID.c     ****     HID_SendDataByCtrlEP((unsigned char *)&Status,sizeof(Status));
ARM GAS  /cygdrive/c/DOCUME~1/mkwapisz/LOCALS~1/Temp/cco4zUpe.s 			page 10


 464:LPC_HID.c     ****     break;
 465:LPC_HID.c     ****   case USB_GET_STATUS_ENDPOINT:
 466:LPC_HID.c     **** //printf("\nUSB get status endpoint\n");
 467:LPC_HID.c     ****     Status = 0;
 468:LPC_HID.c     ****     if (currentConfiguration && (Setup.DataFields.Index <= 1))
 469:LPC_HID.c     ****     {
 470:LPC_HID.c     ****       HID_SendDataByCtrlEP((unsigned char *)&Status,sizeof(Status));
 471:LPC_HID.c     ****     }
 472:LPC_HID.c     ****     else if (currentAddress && (Setup.DataFields.Index == 0))
 473:LPC_HID.c     ****     {
 474:LPC_HID.c     ****       HID_SendDataByCtrlEP((unsigned char *)&Status,sizeof(Status));
 475:LPC_HID.c     ****     }
 476:LPC_HID.c     ****     else
 477:LPC_HID.c     ****     {
 478:LPC_HID.c     ****       HID_CtrlStall();
 479:LPC_HID.c     ****     }
 480:LPC_HID.c     ****     break;
 481:LPC_HID.c     ****   case USB_SET_FEATURE_ENDPOINT:
 482:LPC_HID.c     **** //printf("\nUSB set feature endpoint\n");
 483:LPC_HID.c     ****     if (Setup.DataFields.Index <= 1)
 484:LPC_HID.c     ****     {
 485:LPC_HID.c     ****       HID_SendZeroLengthByCtrlEP();
 486:LPC_HID.c     ****     }
 487:LPC_HID.c     ****     else
 488:LPC_HID.c     ****     {
 489:LPC_HID.c     ****       HID_CtrlStall();
 490:LPC_HID.c     ****     }
 491:LPC_HID.c     ****     break;
 492:LPC_HID.c     ****   case USB_CLEAR_FEATURE_ENDPOINT:
 493:LPC_HID.c     **** //printf("\nUSB clear feature endpoint\n");
 494:LPC_HID.c     ****     if ((Setup.DataFields.Value == 0) && (Setup.DataFields.Index == 1))
 495:LPC_HID.c     ****     {
 496:LPC_HID.c     ****       HID_SendZeroLengthByCtrlEP();
 497:LPC_HID.c     ****     }
 498:LPC_HID.c     ****     else
 499:LPC_HID.c     ****     {
 500:LPC_HID.c     ****       HID_CtrlStall();
 501:LPC_HID.c     ****     }
 502:LPC_HID.c     ****     break;
 503:LPC_HID.c     ****   case USB_SET_FEATURE_INTERFACE:
 504:LPC_HID.c     ****   case USB_CLEAR_FEATURE_INTERFACE:
 505:LPC_HID.c     ****   case USB_HID_SET_IDLE:
 506:LPC_HID.c     **** //printf("\nUSB xxx\n");
 507:LPC_HID.c     ****     HID_SendZeroLengthByCtrlEP();
 508:LPC_HID.c     ****     break;
 509:LPC_HID.c     ****   case USB_GET_HID_DESCRIPTOR:
 510:LPC_HID.c     **** //printf("\nUSB get hid descriptor\n");
 511:LPC_HID.c     ****     HID_SendDataByCtrlEP((unsigned char*) mouseDescriptor,MIN(sizeof(mouseDescriptor), Setup.DataFi
 512:LPC_HID.c     ****     break;
 513:LPC_HID.c     ****   case USB_SET_FEATURE_DEV:
 514:LPC_HID.c     ****   case USB_CLEAR_FEATURE_DEV:
 515:LPC_HID.c     ****   case USB_SET_DESCRIPTOR:
 516:LPC_HID.c     ****   case USB_GET_INTERFACE:
 517:LPC_HID.c     ****   case USB_SET_INTERFACE:
 518:LPC_HID.c     ****   default:
 519:LPC_HID.c     **** //printf("\nUSB yyy\n");
 520:LPC_HID.c     ****     HID_CtrlStall();
ARM GAS  /cygdrive/c/DOCUME~1/mkwapisz/LOCALS~1/Temp/cco4zUpe.s 			page 11


 521:LPC_HID.c     ****     break;
 522:LPC_HID.c     ****   }
 523:LPC_HID.c     **** }
 524:LPC_HID.c     **** 
 525:LPC_HID.c     **** /*************************************************************************
 526:LPC_HID.c     ****  * Function Name: HID_SendReport
 527:LPC_HID.c     ****  * Parameters: char button, char x, char y
 528:LPC_HID.c     ****  * Return: none
 529:LPC_HID.c     ****  * Description: Send data by Cotrol Endpoint
 530:LPC_HID.c     ****  *
 531:LPC_HID.c     ****  *************************************************************************/
 532:LPC_HID.c     **** void HID_SendReport(char button, char x, char y)
 533:LPC_HID.c     **** {
  44              		.loc 1 533 0
  45              		@ Function supports interworking.
  46              		@ args = 0, pretend = 0, frame = 0
  47              		@ frame_needed = 0, uses_anonymous_args = 0
  48              	.LVL0:
 534:LPC_HID.c     **** unsigned int Data = button + (x<<8) + (y<<16);
 535:LPC_HID.c     **** unsigned int failsafe;
 536:LPC_HID.c     **** 
 537:LPC_HID.c     **** //EA  USBCTRL_bit.LOG_ENDPOINT = EP_REP >> 1;
 538:LPC_HID.c     **** //EA  USBCTRL_bit.WR_EN = 1;
 539:LPC_HID.c     **** USB_CTRL = (USB_CTRL & 0x01) | 0x02 | (EP_REP << 1);
  49              		.loc 1 539 0
  50 0010 A8C09FE5 		ldr	ip, .L20
  51              		.loc 1 533 0
  52 0014 0114A0E1 		mov	r1, r1, asl #8
  53              		.loc 1 539 0
  54 0018 28309CE5 		ldr	r3, [ip, #40]
  55              		.loc 1 533 0
  56 001c FF0000E2 		and	r0, r0, #255
  57 0020 0228A0E1 		mov	r2, r2, asl #16
  58              		.loc 1 534 0
  59 0024 FF1C01E2 		and	r1, r1, #65280
  60              	.LVL1:
  61 0028 FF2802E2 		and	r2, r2, #16711680
  62              	.LVL2:
  63 002c 010080E0 		add	r0, r0, r1
  64              	.LVL3:
  65              		.loc 1 539 0
  66 0030 013003E2 		and	r3, r3, #1
  67              		.loc 1 534 0
  68 0034 020080E0 		add	r0, r0, r2
  69              	.LVL4:
  70              		.loc 1 539 0
  71 0038 063083E3 		orr	r3, r3, #6
 540:LPC_HID.c     **** 
 541:LPC_HID.c     **** //EA  TPKTLEN = 3;
 542:LPC_HID.c     ****   TX_PLENGTH = 3;
  72              		.loc 1 542 0
  73 003c 0320A0E3 		mov	r2, #3
  74              		.loc 1 539 0
  75 0040 28308CE5 		str	r3, [ip, #40]
  76              		.loc 1 542 0
  77 0044 24208CE5 		str	r2, [ip, #36]
 543:LPC_HID.c     **** //EA  TDATA = Data;
ARM GAS  /cygdrive/c/DOCUME~1/mkwapisz/LOCALS~1/Temp/cco4zUpe.s 			page 12


 544:LPC_HID.c     ****   TX_DATA = Data;
  78              		.loc 1 544 0
  79 0048 1C008CE5 		str	r0, [ip, #28]
 545:LPC_HID.c     **** //EA  if (USBCTRL_bit.WR_EN)
 546:LPC_HID.c     ****   if (USB_CTRL & 0x02)
  80              		.loc 1 546 0
  81 004c 28309CE5 		ldr	r3, [ip, #40]
  82 0050 020013E3 		tst	r3, #2
  83              		.loc 1 533 0
  84 0054 10402DE9 		stmfd	sp!, {r4, lr}
  85              	.LCFI0:
  86              		.loc 1 546 0
  87 0058 0200000A 		beq	.L6
 547:LPC_HID.c     ****   {
 548:LPC_HID.c     **** #ifndef NDEBUG
 549:LPC_HID.c     ****     printf("Error Send Data");
  88              		.loc 1 549 0
  89 005c 60009FE5 		ldr	r0, .L20+4
  90              	.LVL5:
  91 0060 FEFFFFEB 		bl	simplePrintf
  92 0064 130000EA 		b	.L13
  93              	.LVL6:
  94              	.L6:
 550:LPC_HID.c     **** #endif
 551:LPC_HID.c     ****     return;
 552:LPC_HID.c     ****   }
 553:LPC_HID.c     **** 
 554:LPC_HID.c     ****   // Validate buffer
 555:LPC_HID.c     ****   USB_ValidateBuffer(EP_REP);
  95              		.loc 1 555 0
  96 0068 0200A0E1 		mov	r0, r2
  97              	.LVL7:
  98 006c FEFFFFEB 		bl	USB_ValidateBuffer
  99 0070 050000EA 		b	.L19
 100              	.L10:
 556:LPC_HID.c     **** 
 557:LPC_HID.c     ****   // Wait to complete of transmition
 558:LPC_HID.c     **** failsafe=0;
 559:LPC_HID.c     ****   while ((EP_INT_STAT & (1<<EP_REP)) == 0)
 560:LPC_HID.c     ****   {
 561:LPC_HID.c     ****     // Get enmdpoint status
 562:LPC_HID.c     ****     if ((USB_Cmd(CMD_USB_SET_EP_STAT + EP_REP,0) & 1) == 0)
 101              		.loc 1 562 0
 102 0074 FEFFFFEB 		bl	USB_Cmd
 103 0078 010010E3 		tst	r0, #1
 104 007c 0200001A 		bne	.L19
 563:LPC_HID.c     ****     {
 564:LPC_HID.c     ****       if((EP_INT_STAT & (1<<EP_REP)) == 0)
 105              		.loc 1 564 0
 106 0080 303094E5 		ldr	r3, [r4, #48]
 107 0084 080013E3 		tst	r3, #8
 108 0088 0400000A 		beq	.L12
 109              	.L19:
 110              		.loc 1 559 0
 111 008c 2C409FE5 		ldr	r4, .L20
 112 0090 301094E5 		ldr	r1, [r4, #48]
 113 0094 081011E2 		ands	r1, r1, #8
ARM GAS  /cygdrive/c/DOCUME~1/mkwapisz/LOCALS~1/Temp/cco4zUpe.s 			page 13


 114              		.loc 1 562 0
 115 0098 28009FE5 		ldr	r0, .L20+8
 116              		.loc 1 559 0
 117 009c F4FFFF0A 		beq	.L10
 118              	.L12:
 565:LPC_HID.c     ****       {
 566:LPC_HID.c     ****         break;
 567:LPC_HID.c     ****       }
 568:LPC_HID.c     ****     }
 569:LPC_HID.c     **** //failsafe++;
 570:LPC_HID.c     **** //if (failsafe > 10000)
 571:LPC_HID.c     **** //  break;
 572:LPC_HID.c     **** 
 573:LPC_HID.c     **** //printf("\r"); //effective!!!
 574:LPC_HID.c     **** 
 575:LPC_HID.c     ****   }
 576:LPC_HID.c     ****   USB_Cmd(CMD_USB_SEL_CLR_INT_EP + EP_REP,0);
 119              		.loc 1 576 0
 120 00a0 4300A0E3 		mov	r0, #67
 121 00a4 0010A0E3 		mov	r1, #0
 122 00a8 FEFFFFEB 		bl	USB_Cmd
 577:LPC_HID.c     ****   EP_INT_CLR = (1<<EP_REP);
 123              		.loc 1 577 0
 124 00ac 0C309FE5 		ldr	r3, .L20
 125 00b0 0820A0E3 		mov	r2, #8
 126 00b4 382083E5 		str	r2, [r3, #56]
 127              	.L13:
 578:LPC_HID.c     **** }
 128              		.loc 1 578 0
 129 00b8 1040BDE8 		ldmfd	sp!, {r4, lr}
 130 00bc 1EFF2FE1 		bx	lr
 131              	.L21:
 132              		.align	2
 133              	.L20:
 134 00c0 000009E0 		.word	-536281088
 135 00c4 00000000 		.word	.LC0
 136 00c8 43010000 		.word	323
 137              	.LFE9:
 138              		.size	HID_SendReport, .-HID_SendReport
 139              		.align	2
 140              		.global	HID_SendZeroLengthByCtrlEP
 141              		.type	HID_SendZeroLengthByCtrlEP, %function
 142              	HID_SendZeroLengthByCtrlEP:
 143              	.LFB6:
 144              		.loc 1 271 0
 145              		@ Function supports interworking.
 146              		@ args = 0, pretend = 0, frame = 0
 147              		@ frame_needed = 0, uses_anonymous_args = 0
 148              		.loc 1 274 0
 149 00cc 88309FE5 		ldr	r3, .L38
 150 00d0 282093E5 		ldr	r2, [r3, #40]
 151              		.loc 1 271 0
 152 00d4 10402DE9 		stmfd	sp!, {r4, lr}
 153              	.LCFI1:
 154              		.loc 1 274 0
 155 00d8 012002E2 		and	r2, r2, #1
 156 00dc 022082E3 		orr	r2, r2, #2
ARM GAS  /cygdrive/c/DOCUME~1/mkwapisz/LOCALS~1/Temp/cco4zUpe.s 			page 14


 157 00e0 282083E5 		str	r2, [r3, #40]
 158              		.loc 1 275 0
 159 00e4 0020A0E3 		mov	r2, #0
 160 00e8 242083E5 		str	r2, [r3, #36]
 161              	.L23:
 162              		.loc 1 278 0
 163 00ec 68309FE5 		ldr	r3, .L38
 164 00f0 0020A0E3 		mov	r2, #0
 165 00f4 1C2083E5 		str	r2, [r3, #28]
 166              		.loc 1 281 0
 167 00f8 283093E5 		ldr	r3, [r3, #40]
 168 00fc 020013E3 		tst	r3, #2
 169 0100 F9FFFF1A 		bne	.L23
 170              		.loc 1 284 0
 171 0104 0100A0E3 		mov	r0, #1
 172 0108 FEFFFFEB 		bl	USB_ValidateBuffer
 173 010c 050000EA 		b	.L37
 174              	.L26:
 175              		.loc 1 289 0
 176 0110 FEFFFFEB 		bl	USB_Cmd
 177 0114 010010E3 		tst	r0, #1
 178 0118 0200001A 		bne	.L37
 179              		.loc 1 291 0
 180 011c 303094E5 		ldr	r3, [r4, #48]
 181 0120 020013E3 		tst	r3, #2
 182 0124 0400000A 		beq	.L28
 183              	.L37:
 184              		.loc 1 287 0
 185 0128 2C409FE5 		ldr	r4, .L38
 186 012c 301094E5 		ldr	r1, [r4, #48]
 187 0130 021011E2 		ands	r1, r1, #2
 188              		.loc 1 289 0
 189 0134 24009FE5 		ldr	r0, .L38+4
 190              		.loc 1 287 0
 191 0138 F4FFFF0A 		beq	.L26
 192              	.L28:
 193              		.loc 1 298 0
 194 013c 4100A0E3 		mov	r0, #65
 195 0140 0010A0E3 		mov	r1, #0
 196 0144 FEFFFFEB 		bl	USB_Cmd
 197              		.loc 1 300 0
 198 0148 0C309FE5 		ldr	r3, .L38
 199 014c 0220A0E3 		mov	r2, #2
 200 0150 382083E5 		str	r2, [r3, #56]
 201              		.loc 1 301 0
 202 0154 1040BDE8 		ldmfd	sp!, {r4, lr}
 203 0158 1EFF2FE1 		bx	lr
 204              	.L39:
 205              		.align	2
 206              	.L38:
 207 015c 000009E0 		.word	-536281088
 208 0160 41010000 		.word	321
 209              	.LFE6:
 210              		.size	HID_SendZeroLengthByCtrlEP, .-HID_SendZeroLengthByCtrlEP
 211              		.align	2
 212              		.global	HID_SendDataByCtrlEP
 213              		.type	HID_SendDataByCtrlEP, %function
ARM GAS  /cygdrive/c/DOCUME~1/mkwapisz/LOCALS~1/Temp/cco4zUpe.s 			page 15


 214              	HID_SendDataByCtrlEP:
 215              	.LFB7:
 216              		.loc 1 311 0
 217              		@ Function supports interworking.
 218              		@ args = 0, pretend = 0, frame = 0
 219              		@ frame_needed = 0, uses_anonymous_args = 0
 220              	.LVL8:
 221 0164 F0412DE9 		stmfd	sp!, {r4, r5, r6, r7, r8, lr}
 222              	.LCFI2:
 223              		.loc 1 311 0
 224 0168 0140A0E1 		mov	r4, r1
 225              		.loc 1 312 0
 226 016c 0080A0E1 		mov	r8, r0
 227              	.LVL9:
 228 0170 0070A0E3 		mov	r7, #0
 229              	.LVL10:
 230              	.LVL11:
 231              	.L41:
 232              		.loc 1 327 0
 233 0174 B4209FE5 		ldr	r2, .L66
 234 0178 283092E5 		ldr	r3, [r2, #40]
 235              		.loc 1 318 0
 236 017c 080054E3 		cmp	r4, #8
 237              		.loc 1 327 0
 238 0180 013003E2 		and	r3, r3, #1
 239              		.loc 1 320 0
 240 0184 01708702 		addeq	r7, r7, #1
 241              		.loc 1 327 0
 242 0188 023083E3 		orr	r3, r3, #2
 243              		.loc 1 322 0
 244 018c 080054E3 		cmp	r4, #8
 245 0190 0460A031 		movcc	r6, r4
 246 0194 0860A023 		movcs	r6, #8
 247              		.loc 1 327 0
 248 0198 283082E5 		str	r3, [r2, #40]
 249              		.loc 1 329 0
 250 019c 246082E5 		str	r6, [r2, #36]
 251              	.L44:
 252              		.loc 1 333 0
 253 01a0 88309FE5 		ldr	r3, .L66
 254 01a4 042098E4 		ldr	r2, [r8], #4
 255 01a8 1C2083E5 		str	r2, [r3, #28]
 256              		.loc 1 335 0
 257 01ac 283093E5 		ldr	r3, [r3, #40]
 258 01b0 020013E3 		tst	r3, #2
 259 01b4 F9FFFF1A 		bne	.L44
 260              		.loc 1 339 0
 261 01b8 0100A0E3 		mov	r0, #1
 262              	.LVL12:
 263 01bc FEFFFFEB 		bl	USB_ValidateBuffer
 264 01c0 050000EA 		b	.L65
 265              	.L47:
 266              		.loc 1 343 0
 267 01c4 FEFFFFEB 		bl	USB_Cmd
 268 01c8 010010E3 		tst	r0, #1
 269 01cc 0200001A 		bne	.L65
 270              		.loc 1 345 0
ARM GAS  /cygdrive/c/DOCUME~1/mkwapisz/LOCALS~1/Temp/cco4zUpe.s 			page 16


 271 01d0 303095E5 		ldr	r3, [r5, #48]
 272 01d4 021013E2 		ands	r1, r3, #2
 273 01d8 1000000A 		beq	.L56
 274              	.L65:
 275              		.loc 1 341 0
 276 01dc 4C509FE5 		ldr	r5, .L66
 277 01e0 301095E5 		ldr	r1, [r5, #48]
 278 01e4 021011E2 		ands	r1, r1, #2
 279              		.loc 1 343 0
 280 01e8 44009FE5 		ldr	r0, .L66+4
 281              		.loc 1 341 0
 282 01ec F4FFFF0A 		beq	.L47
 283              		.loc 1 323 0
 284 01f0 044066E0 		rsb	r4, r6, r4
 285              		.loc 1 353 0
 286 01f4 4100A0E3 		mov	r0, #65
 287 01f8 0010A0E3 		mov	r1, #0
 288 01fc FEFFFFEB 		bl	USB_Cmd
 289              		.loc 1 354 0
 290 0200 0230A0E3 		mov	r3, #2
 291              		.loc 1 356 0
 292 0204 000054E3 		cmp	r4, #0
 293              		.loc 1 354 0
 294 0208 383085E5 		str	r3, [r5, #56]
 295              		.loc 1 356 0
 296 020c D8FFFF1A 		bne	.L41
 297              		.loc 1 357 0
 298 0210 000057E3 		cmp	r7, #0
 299 0214 0300000A 		beq	.L54
 300              		.loc 1 361 0
 301 0218 F041BDE8 		ldmfd	sp!, {r4, r5, r6, r7, r8, lr}
 302              		.loc 1 359 0
 303 021c FEFFFFEA 		b	HID_SendZeroLengthByCtrlEP
 304              	.L56:
 305              		.loc 1 347 0
 306 0220 4100A0E3 		mov	r0, #65
 307 0224 FEFFFFEB 		bl	USB_Cmd
 308              	.L54:
 309              		.loc 1 361 0
 310 0228 F041BDE8 		ldmfd	sp!, {r4, r5, r6, r7, r8, lr}
 311 022c 1EFF2FE1 		bx	lr
 312              	.L67:
 313              		.align	2
 314              	.L66:
 315 0230 000009E0 		.word	-536281088
 316 0234 41010000 		.word	321
 317              	.LFE7:
 318              		.size	HID_SendDataByCtrlEP, .-HID_SendDataByCtrlEP
 319              		.align	2
 320              		.global	HID_CtrlStall
 321              		.type	HID_CtrlStall, %function
 322              	HID_CtrlStall:
 323              	.LFB5:
 324              		.loc 1 259 0
 325              		@ Function supports interworking.
 326              		@ args = 0, pretend = 0, frame = 0
 327              		@ frame_needed = 0, uses_anonymous_args = 0
ARM GAS  /cygdrive/c/DOCUME~1/mkwapisz/LOCALS~1/Temp/cco4zUpe.s 			page 17


 328 0238 04E02DE5 		str	lr, [sp, #-4]!
 329              	.LCFI3:
 330              		.loc 1 260 0
 331 023c 8010A0E3 		mov	r1, #128
 332 0240 050DA0E3 		mov	r0, #320
 333 0244 FEFFFFEB 		bl	USB_Cmd
 334              		.loc 1 261 0
 335 0248 04E09DE4 		ldr	lr, [sp], #4
 336 024c 1EFF2FE1 		bx	lr
 337              	.LFE5:
 338              		.size	HID_CtrlStall, .-HID_CtrlStall
 339              		.align	2
 340              		.global	HID_ImplSetupPacket
 341              		.type	HID_ImplSetupPacket, %function
 342              	HID_ImplSetupPacket:
 343              	.LFB8:
 344              		.loc 1 371 0
 345              		@ Function supports interworking.
 346              		@ args = 0, pretend = 0, frame = 0
 347              		@ frame_needed = 0, uses_anonymous_args = 0
 348 0250 30402DE9 		stmfd	sp!, {r4, r5, lr}
 349              	.LCFI4:
 350              		.loc 1 371 0
 351 0254 0000A0E3 		mov	r0, #0
 352              	.LVL13:
 353              	.L71:
 354              		.loc 1 380 0
 355 0258 B0229FE5 		ldr	r2, .L136
 356 025c 283092E5 		ldr	r3, [r2, #40]
 357 0260 023003E2 		and	r3, r3, #2
 358 0264 013083E3 		orr	r3, r3, #1
 359 0268 283082E5 		str	r3, [r2, #40]
 360              	.L72:
 361              		.loc 1 384 0
 362 026c 9C229FE5 		ldr	r2, .L136
 363 0270 203092E5 		ldr	r3, [r2, #32]
 364 0274 020B13E3 		tst	r3, #2048
 365 0278 FBFFFF0A 		beq	.L72
 366              		.loc 1 388 0
 367 027c 203092E5 		ldr	r3, [r2, #32]
 368 0280 8C229FE5 		ldr	r2, .L136+4
 369 0284 3F3BC3E3 		bic	r3, r3, #64512
 370 0288 B030C2E1 		strh	r3, [r2, #0]	@ movhi
 371 028c 030000EA 		b	.L74
 372              	.L75:
 373              		.loc 1 393 0
 374 0290 182092E5 		ldr	r2, [r2, #24]
 375 0294 7C329FE5 		ldr	r3, .L136+8
 376 0298 002183E7 		str	r2, [r3, r0, asl #2]
 377 029c 010080E2 		add	r0, r0, #1
 378              	.L74:
 379              		.loc 1 390 0
 380 02a0 68229FE5 		ldr	r2, .L136
 381 02a4 203092E5 		ldr	r3, [r2, #32]
 382 02a8 015B13E2 		ands	r5, r3, #1024
 383 02ac F7FFFF1A 		bne	.L75
 384              		.loc 1 396 0
ARM GAS  /cygdrive/c/DOCUME~1/mkwapisz/LOCALS~1/Temp/cco4zUpe.s 			page 18


 385 02b0 0500A0E1 		mov	r0, r5
 386              	.LVL14:
 387 02b4 FEFFFFEB 		bl	USB_ClearBuffer
 388              		.loc 1 397 0
 389 02b8 0510A0E1 		mov	r1, r5
 390              		.loc 1 396 0
 391 02bc 0040A0E1 		mov	r4, r0
 392              		.loc 1 397 0
 393 02c0 4000A0E3 		mov	r0, #64
 394 02c4 FEFFFFEB 		bl	USB_Cmd
 395              		.loc 1 399 0
 396 02c8 000054E3 		cmp	r4, #0
 397              		.loc 1 396 0
 398 02cc 0400A011 		movne	r0, r4
 399              	.LVL15:
 400 02d0 E0FFFF1A 		bne	.L71
 401              	.LVL16:
 402              	.L77:
 403              		.loc 1 401 0
 404 02d4 38329FE5 		ldr	r3, .L136+4
 405 02d8 B030D3E1 		ldrh	r3, [r3, #0]
 406 02dc 000053E3 		cmp	r3, #0
 407 02e0 8800000A 		beq	.L128
 408              		.loc 1 403 0
 409 02e4 2C429FE5 		ldr	r4, .L136+8
 410 02e8 2C329FE5 		ldr	r3, .L136+12
 411 02ec B020D4E1 		ldrh	r2, [r4, #0]
 412 02f0 030052E1 		cmp	r2, r3
 413 02f4 7000000A 		beq	.L86
 414 02f8 0E00008A 		bhi	.L92
 415 02fc 820052E3 		cmp	r2, #130
 416 0300 5900000A 		beq	.L83
 417 0304 0200008A 		bhi	.L93
 418 0308 800052E3 		cmp	r2, #128
 419 030c 7B00003A 		bcc	.L81
 420 0310 4F0000EA 		b	.L131
 421              	.L93:
 422 0314 04329FE5 		ldr	r3, .L136+16
 423 0318 030052E1 		cmp	r2, r3
 424 031c 6A00000A 		beq	.L85
 425 0320 FC319FE5 		ldr	r3, .L136+20
 426 0324 030052E1 		cmp	r2, r3
 427 0328 6D00000A 		beq	.L84
 428 032c 023C43E2 		sub	r3, r3, #512
 429 0330 030052E1 		cmp	r2, r3
 430 0334 690000EA 		b	.L134
 431              	.L92:
 432 0338 E8319FE5 		ldr	r3, .L136+24
 433 033c 030052E1 		cmp	r2, r3
 434 0340 6900000A 		beq	.L89
 435 0344 0400008A 		bhi	.L94
 436 0348 050C52E3 		cmp	r2, #1280
 437 034c 2700000A 		beq	.L87
 438 0350 1A0D52E3 		cmp	r2, #1664
 439 0354 6900001A 		bne	.L81
 440 0358 070000EA 		b	.L88
 441              	.L94:
ARM GAS  /cygdrive/c/DOCUME~1/mkwapisz/LOCALS~1/Temp/cco4zUpe.s 			page 19


 442 035c 090C52E3 		cmp	r2, #2304
 443 0360 2900000A 		beq	.L91
 444 0364 C0319FE5 		ldr	r3, .L136+28
 445 0368 030052E1 		cmp	r2, r3
 446 036c 5C00000A 		beq	.L84
 447 0370 220D52E3 		cmp	r2, #2176
 448 0374 6100001A 		bne	.L81
 449 0378 320000EA 		b	.L90
 450              	.L88:
 451              		.loc 1 408 0
 452 037c B220D4E1 		ldrh	r2, [r4, #2]
 453 0380 010C52E3 		cmp	r2, #256
 454 0384 0400001A 		bne	.L95
 455              		.loc 1 410 0
 456 0388 B610D4E1 		ldrh	r1, [r4, #6]
 457 038c 9C019FE5 		ldr	r0, .L136+32
 458 0390 120051E3 		cmp	r1, #18
 459 0394 1210A023 		movcs	r1, #18
 460 0398 050000EA 		b	.L132
 461              	.L95:
 462              		.loc 1 412 0
 463 039c 020C52E3 		cmp	r2, #512
 464 03a0 0500001A 		bne	.L100
 465              		.loc 1 414 0
 466 03a4 B610D4E1 		ldrh	r1, [r4, #6]
 467 03a8 84019FE5 		ldr	r0, .L136+36
 468 03ac 220051E3 		cmp	r1, #34
 469 03b0 2210A023 		movcs	r1, #34
 470              	.LVL17:
 471              	.L132:
 472              		.loc 1 523 0
 473 03b4 3040BDE8 		ldmfd	sp!, {r4, r5, lr}
 474              		.loc 1 414 0
 475 03b8 FEFFFFEA 		b	HID_SendDataByCtrlEP
 476              	.LVL18:
 477              	.L100:
 478              		.loc 1 416 0
 479 03bc FF3C02E2 		and	r3, r2, #65280
 480 03c0 030C53E3 		cmp	r3, #768
 481 03c4 4D00001A 		bne	.L81
 482              		.loc 1 418 0
 483 03c8 0F2002E2 		and	r2, r2, #15
 484 03cc 020052E3 		cmp	r2, #2
 485 03d0 4A0000CA 		bgt	.L81
 486              	.LBB2:
 487              		.loc 1 420 0
 488 03d4 5C319FE5 		ldr	r3, .L136+40
 489 03d8 020193E7 		ldr	r0, [r3, r2, asl #2]
 490              	.LVL19:
 491              		.loc 1 421 0
 492 03dc B630D4E1 		ldrh	r3, [r4, #6]
 493 03e0 0010D0E5 		ldrb	r1, [r0, #0]	@ zero_extendqisi2
 494 03e4 030051E1 		cmp	r1, r3
 495 03e8 0310A021 		movcs	r1, r3
 496 03ec F0FFFFEA 		b	.L132
 497              	.LVL20:
 498              	.L87:
ARM GAS  /cygdrive/c/DOCUME~1/mkwapisz/LOCALS~1/Temp/cco4zUpe.s 			page 20


 499              	.LBE2:
 500              		.loc 1 435 0
 501 03f0 FEFFFFEB 		bl	HID_SendZeroLengthByCtrlEP
 502              		.loc 1 436 0
 503 03f4 0220D4E5 		ldrb	r2, [r4, #2]	@ zero_extendqisi2
 504 03f8 3C319FE5 		ldr	r3, .L136+44
 505              		.loc 1 437 0
 506 03fc 0200A0E1 		mov	r0, r2
 507              		.loc 1 436 0
 508 0400 0020C3E5 		strb	r2, [r3, #0]
 509              		.loc 1 437 0
 510 0404 FEFFFFEB 		bl	USB_SetAdd
 511 0408 3E0000EA 		b	.L128
 512              	.L91:
 513              		.loc 1 441 0
 514 040c B240D4E1 		ldrh	r4, [r4, #2]
 515 0410 010054E3 		cmp	r4, #1
 516              		.loc 1 451 0
 517 0414 0510A011 		movne	r1, r5
 518              		.loc 1 441 0
 519 0418 0700001A 		bne	.L135
 520              		.loc 1 443 0
 521 041c 1CC19FE5 		ldr	ip, .L136+48
 522              		.loc 1 444 0
 523 0420 0410A0E3 		mov	r1, #4
 524 0424 0520A0E1 		mov	r2, r5
 525 0428 0300A0E3 		mov	r0, #3
 526 042c 0530A0E1 		mov	r3, r5
 527              		.loc 1 443 0
 528 0430 0040CCE5 		strb	r4, [ip, #0]
 529              		.loc 1 444 0
 530 0434 FEFFFFEB 		bl	USB_RealizeEndPoint
 531              		.loc 1 445 0
 532 0438 0410A0E1 		mov	r1, r4
 533              	.L135:
 534              		.loc 1 451 0
 535 043c D800A0E3 		mov	r0, #216
 536 0440 FEFFFFEB 		bl	USB_Cmd
 537 0444 260000EA 		b	.L84
 538              	.L90:
 539              		.loc 1 457 0
 540 0448 F0009FE5 		ldr	r0, .L136+48
 541 044c 0110A0E3 		mov	r1, #1
 542 0450 D7FFFFEA 		b	.L132
 543              	.L131:
 544              		.loc 1 462 0
 545 0454 E8309FE5 		ldr	r3, .L136+52
 546 0458 0020A0E3 		mov	r2, #0	@ movhi
 547              		.loc 1 463 0
 548 045c 0300A0E1 		mov	r0, r3
 549 0460 0210A0E3 		mov	r1, #2
 550              		.loc 1 462 0
 551 0464 B020C3E1 		strh	r2, [r3, #0]	@ movhi
 552 0468 D1FFFFEA 		b	.L132
 553              	.L83:
 554              		.loc 1 468 0
 555 046c CC309FE5 		ldr	r3, .L136+48
ARM GAS  /cygdrive/c/DOCUME~1/mkwapisz/LOCALS~1/Temp/cco4zUpe.s 			page 21


 556 0470 0030D3E5 		ldrb	r3, [r3, #0]	@ zero_extendqisi2
 557              		.loc 1 467 0
 558 0474 C8009FE5 		ldr	r0, .L136+52
 559              		.loc 1 468 0
 560 0478 000053E3 		cmp	r3, #0
 561              		.loc 1 467 0
 562 047c B050C0E1 		strh	r5, [r0, #0]	@ movhi
 563              		.loc 1 468 0
 564 0480 0200000A 		beq	.L114
 565 0484 B430D4E1 		ldrh	r3, [r4, #4]
 566 0488 010053E3 		cmp	r3, #1
 567 048c 0800009A 		bls	.L133
 568              	.L114:
 569              		.loc 1 472 0
 570 0490 A4309FE5 		ldr	r3, .L136+44
 571 0494 0030D3E5 		ldrb	r3, [r3, #0]	@ zero_extendqisi2
 572 0498 000053E3 		cmp	r3, #0
 573 049c 1700000A 		beq	.L81
 574 04a0 70309FE5 		ldr	r3, .L136+8
 575 04a4 B430D3E1 		ldrh	r3, [r3, #4]
 576 04a8 000053E3 		cmp	r3, #0
 577 04ac 1300001A 		bne	.L81
 578              		.loc 1 474 0
 579 04b0 8C009FE5 		ldr	r0, .L136+52
 580              	.L133:
 581 04b4 0210A0E3 		mov	r1, #2
 582 04b8 BDFFFFEA 		b	.L132
 583              	.L86:
 584              		.loc 1 483 0
 585 04bc B430D4E1 		ldrh	r3, [r4, #4]
 586 04c0 010053E3 		cmp	r3, #1
 587 04c4 0600009A 		bls	.L84
 588 04c8 0C0000EA 		b	.L81
 589              	.L85:
 590              		.loc 1 494 0
 591 04cc B230D4E1 		ldrh	r3, [r4, #2]
 592 04d0 000053E3 		cmp	r3, #0
 593 04d4 0900001A 		bne	.L81
 594 04d8 B430D4E1 		ldrh	r3, [r4, #4]
 595 04dc 010053E3 		cmp	r3, #1
 596              	.L134:
 597 04e0 0600001A 		bne	.L81
 598              	.L84:
 599              		.loc 1 523 0
 600 04e4 3040BDE8 		ldmfd	sp!, {r4, r5, lr}
 601              		.loc 1 507 0
 602 04e8 FEFFFFEA 		b	HID_SendZeroLengthByCtrlEP
 603              	.L89:
 604              		.loc 1 511 0
 605 04ec B610D4E1 		ldrh	r1, [r4, #6]
 606 04f0 50009FE5 		ldr	r0, .L136+56
 607 04f4 320051E3 		cmp	r1, #50
 608 04f8 3210A023 		movcs	r1, #50
 609 04fc ACFFFFEA 		b	.L132
 610              	.L81:
 611              		.loc 1 523 0
 612 0500 3040BDE8 		ldmfd	sp!, {r4, r5, lr}
ARM GAS  /cygdrive/c/DOCUME~1/mkwapisz/LOCALS~1/Temp/cco4zUpe.s 			page 22


 613              		.loc 1 520 0
 614 0504 FEFFFFEA 		b	HID_CtrlStall
 615              	.L128:
 616              		.loc 1 523 0
 617 0508 3040BDE8 		ldmfd	sp!, {r4, r5, lr}
 618 050c 1EFF2FE1 		bx	lr
 619              	.L137:
 620              		.align	2
 621              	.L136:
 622 0510 000009E0 		.word	-536281088
 623 0514 00000000 		.word	Length.1460
 624 0518 08000000 		.word	Setup.1458
 625 051c 02030000 		.word	770
 626 0520 02010000 		.word	258
 627 0524 01030000 		.word	769
 628 0528 81060000 		.word	1665
 629 052c 210A0000 		.word	2593
 630 0530 00000000 		.word	devDescriptor
 631 0534 00000000 		.word	cfgDescriptor
 632 0538 00000000 		.word	StrPoin
 633 053c 00000000 		.word	currentAddress
 634 0540 00000000 		.word	currentConfiguration
 635 0544 02000000 		.word	Status.1459
 636 0548 00000000 		.word	mouseDescriptor
 637              	.LFE8:
 638              		.size	HID_ImplSetupPacket, .-HID_ImplSetupPacket
 639              		.align	2
 640              		.global	HID_Init
 641              		.type	HID_Init, %function
 642              	HID_Init:
 643              	.LFB2:
 644              		.loc 1 179 0
 645              		@ Function supports interworking.
 646              		@ args = 0, pretend = 0, frame = 0
 647              		@ frame_needed = 0, uses_anonymous_args = 0
 648 054c 30402DE9 		stmfd	sp!, {r4, r5, lr}
 649              	.LCFI5:
 650              		.loc 1 180 0
 651 0550 50C09FE5 		ldr	ip, .L140
 652 0554 0040A0E3 		mov	r4, #0
 653              		.loc 1 181 0
 654 0558 4C509FE5 		ldr	r5, .L140+4
 655              		.loc 1 183 0
 656 055c 0400A0E1 		mov	r0, r4
 657 0560 0420A0E1 		mov	r2, r4
 658 0564 0810A0E3 		mov	r1, #8
 659 0568 0130A0E3 		mov	r3, #1
 660              		.loc 1 180 0
 661 056c 0040CCE5 		strb	r4, [ip, #0]
 662              		.loc 1 181 0
 663 0570 0040C5E5 		strb	r4, [r5, #0]
 664              		.loc 1 183 0
 665 0574 FEFFFFEB 		bl	USB_RealizeEndPoint
 666              		.loc 1 184 0
 667 0578 0420A0E1 		mov	r2, r4
 668 057c 0810A0E3 		mov	r1, #8
 669 0580 0430A0E1 		mov	r3, r4
ARM GAS  /cygdrive/c/DOCUME~1/mkwapisz/LOCALS~1/Temp/cco4zUpe.s 			page 23


 670 0584 0100A0E3 		mov	r0, #1
 671 0588 FEFFFFEB 		bl	USB_RealizeEndPoint
 672              		.loc 1 186 0
 673 058c 0000D5E5 		ldrb	r0, [r5, #0]	@ zero_extendqisi2
 674 0590 FEFFFFEB 		bl	USB_SetAdd
 675              		.loc 1 188 0
 676 0594 0110A0E3 		mov	r1, #1
 677 0598 10009FE5 		ldr	r0, .L140+8
 678 059c FEFFFFEB 		bl	USB_Cmd
 679              		.loc 1 189 0
 680 05a0 3040BDE8 		ldmfd	sp!, {r4, r5, lr}
 681 05a4 1EFF2FE1 		bx	lr
 682              	.L141:
 683              		.align	2
 684              	.L140:
 685 05a8 00000000 		.word	currentConfiguration
 686 05ac 00000000 		.word	currentAddress
 687 05b0 FE010000 		.word	510
 688              	.LFE2:
 689              		.size	HID_Init, .-HID_Init
 690              		.align	2
 691              		.global	HID_CallBack
 692              		.type	HID_CallBack, %function
 693              	HID_CallBack:
 694              	.LFB4:
 695              		.loc 1 211 0
 696              		@ Function supports interworking.
 697              		@ args = 0, pretend = 0, frame = 0
 698              		@ frame_needed = 0, uses_anonymous_args = 0
 699 05b4 10402DE9 		stmfd	sp!, {r4, lr}
 700              	.LCFI6:
 701              		.loc 1 212 0
 702 05b8 8C409FE5 		ldr	r4, .L156
 703 05bc 003094E5 		ldr	r3, [r4, #0]
 704 05c0 020C13E3 		tst	r3, #512
 705 05c4 0400000A 		beq	.L143
 706              		.loc 1 216 0
 707 05c8 FB00A0E3 		mov	r0, #251
 708 05cc 0010A0E3 		mov	r1, #0
 709 05d0 FEFFFFEB 		bl	USB_Cmd
 710              		.loc 1 217 0
 711 05d4 023CA0E3 		mov	r3, #512
 712 05d8 083084E5 		str	r3, [r4, #8]
 713              	.L143:
 714              		.loc 1 220 0
 715 05dc 003094E5 		ldr	r3, [r4, #0]
 716 05e0 080013E3 		tst	r3, #8
 717 05e4 0600000A 		beq	.L145
 718              	.LBB3:
 719              		.loc 1 223 0
 720 05e8 FE00A0E3 		mov	r0, #254
 721 05ec 0010A0E3 		mov	r1, #0
 722 05f0 FEFFFFEB 		bl	USB_Cmd
 723              		.loc 1 225 0
 724 05f4 100010E3 		tst	r0, #16
 725              		.loc 1 228 0
 726 05f8 FEFFFF1B 		blne	HID_Init
ARM GAS  /cygdrive/c/DOCUME~1/mkwapisz/LOCALS~1/Temp/cco4zUpe.s 			page 24


 727              	.L147:
 728              		.loc 1 230 0
 729 05fc 0830A0E3 		mov	r3, #8
 730 0600 083084E5 		str	r3, [r4, #8]
 731              	.L145:
 732              	.LBE3:
 733              		.loc 1 233 0
 734 0604 40409FE5 		ldr	r4, .L156
 735 0608 003094E5 		ldr	r3, [r4, #0]
 736 060c 020013E3 		tst	r3, #2
 737              		.loc 1 235 0
 738 0610 0230A013 		movne	r3, #2
 739 0614 08308415 		strne	r3, [r4, #8]
 740              		.loc 1 238 0
 741 0618 003094E5 		ldr	r3, [r4, #0]
 742 061c 040013E3 		tst	r3, #4
 743 0620 0700000A 		beq	.L155
 744              		.loc 1 241 0
 745 0624 303094E5 		ldr	r3, [r4, #48]
 746 0628 010013E3 		tst	r3, #1
 747 062c 0200000A 		beq	.L153
 748              		.loc 1 244 0
 749 0630 FEFFFFEB 		bl	HID_ImplSetupPacket
 750              		.loc 1 245 0
 751 0634 0130A0E3 		mov	r3, #1
 752 0638 383084E5 		str	r3, [r4, #56]
 753              	.L153:
 754              		.loc 1 247 0
 755 063c 0430A0E3 		mov	r3, #4
 756 0640 083084E5 		str	r3, [r4, #8]
 757              	.L155:
 758              		.loc 1 249 0
 759 0644 1040BDE8 		ldmfd	sp!, {r4, lr}
 760 0648 1EFF2FE1 		bx	lr
 761              	.L157:
 762              		.align	2
 763              	.L156:
 764 064c 000009E0 		.word	-536281088
 765              	.LFE4:
 766              		.size	HID_CallBack, .-HID_CallBack
 767              		.global	mouseDescriptor
 768              		.data
 769              		.align	3
 770              		.type	mouseDescriptor, %object
 771              		.size	mouseDescriptor, 50
 772              	mouseDescriptor:
 773 0000 0501     		.short	261
 774 0002 0902     		.short	521
 775 0004 A101     		.short	417
 776 0006 0901     		.short	265
 777 0008 A100     		.short	161
 778 000a 0509     		.short	2309
 779 000c 1901     		.short	281
 780 000e 2903     		.short	809
 781 0010 1500     		.short	21
 782 0012 2501     		.short	293
 783 0014 9503     		.short	917
ARM GAS  /cygdrive/c/DOCUME~1/mkwapisz/LOCALS~1/Temp/cco4zUpe.s 			page 25


 784 0016 7501     		.short	373
 785 0018 8102     		.short	641
 786 001a 9501     		.short	405
 787 001c 7505     		.short	1397
 788 001e 8101     		.short	385
 789 0020 0501     		.short	261
 790 0022 0930     		.short	12297
 791 0024 0931     		.short	12553
 792 0026 1581     		.short	-32491
 793 0028 257F     		.short	32549
 794 002a 7508     		.short	2165
 795 002c 9502     		.short	661
 796 002e 8106     		.short	1665
 797 0030 C0C0     		.short	-16192
 798              		.global	devDescriptor
 799 0032 00000000 		.align	3
 799      0000
 800              		.type	devDescriptor, %object
 801              		.size	devDescriptor, 18
 802              	devDescriptor:
 803 0038 12       		.byte	18
 804 0039 01       		.byte	1
 805 003a 10       		.byte	16
 806 003b 01       		.byte	1
 807 003c 00       		.byte	0
 808 003d 00       		.byte	0
 809 003e 00       		.byte	0
 810 003f 08       		.byte	8
 811 0040 FF       		.byte	-1
 812 0041 FF       		.byte	-1
 813 0042 01       		.byte	1
 814 0043 00       		.byte	0
 815 0044 00       		.byte	0
 816 0045 00       		.byte	0
 817 0046 01       		.byte	1
 818 0047 02       		.byte	2
 819 0048 00       		.byte	0
 820 0049 01       		.byte	1
 821              		.global	cfgDescriptor
 822 004a 00000000 		.align	3
 822      0000
 823              		.type	cfgDescriptor, %object
 824              		.size	cfgDescriptor, 34
 825              	cfgDescriptor:
 826 0050 09       		.byte	9
 827 0051 02       		.byte	2
 828 0052 22       		.byte	34
 829 0053 00       		.byte	0
 830 0054 01       		.byte	1
 831 0055 01       		.byte	1
 832 0056 00       		.byte	0
 833 0057 A0       		.byte	-96
 834 0058 32       		.byte	50
 835 0059 09       		.byte	9
 836 005a 04       		.byte	4
 837 005b 00       		.byte	0
 838 005c 00       		.byte	0
ARM GAS  /cygdrive/c/DOCUME~1/mkwapisz/LOCALS~1/Temp/cco4zUpe.s 			page 26


 839 005d 01       		.byte	1
 840 005e 03       		.byte	3
 841 005f 01       		.byte	1
 842 0060 02       		.byte	2
 843 0061 00       		.byte	0
 844 0062 09       		.byte	9
 845 0063 21       		.byte	33
 846 0064 00       		.byte	0
 847 0065 01       		.byte	1
 848 0066 00       		.byte	0
 849 0067 01       		.byte	1
 850 0068 22       		.byte	34
 851 0069 32       		.byte	50
 852 006a 00       		.byte	0
 853 006b 07       		.byte	7
 854 006c 05       		.byte	5
 855 006d 81       		.byte	-127
 856 006e 03       		.byte	3
 857 006f 04       		.byte	4
 858 0070 00       		.byte	0
 859 0071 0A       		.byte	10
 860              		.global	LanguagesStr
 861 0072 00000000 		.align	3
 861      0000
 862              		.type	LanguagesStr, %object
 863              		.size	LanguagesStr, 4
 864              	LanguagesStr:
 865 0078 04       		.byte	4
 866 0079 03       		.byte	3
 867 007a 09       		.byte	9
 868 007b 04       		.byte	4
 869              		.global	ManufacturerStr
 870 007c 00000000 		.align	3
 871              		.type	ManufacturerStr, %object
 872              		.size	ManufacturerStr, 60
 873              	ManufacturerStr:
 874 0080 3C       		.byte	60
 875 0081 03       		.byte	3
 876 0082 50       		.byte	80
 877 0083 00       		.byte	0
 878 0084 68       		.byte	104
 879 0085 00       		.byte	0
 880 0086 69       		.byte	105
 881 0087 00       		.byte	0
 882 0088 6C       		.byte	108
 883 0089 00       		.byte	0
 884 008a 69       		.byte	105
 885 008b 00       		.byte	0
 886 008c 70       		.byte	112
 887 008d 00       		.byte	0
 888 008e 20       		.byte	32
 889 008f 00       		.byte	0
 890 0090 53       		.byte	83
 891 0091 00       		.byte	0
 892 0092 65       		.byte	101
 893 0093 00       		.byte	0
 894 0094 6D       		.byte	109
ARM GAS  /cygdrive/c/DOCUME~1/mkwapisz/LOCALS~1/Temp/cco4zUpe.s 			page 27


 895 0095 00       		.byte	0
 896 0096 69       		.byte	105
 897 0097 00       		.byte	0
 898 0098 63       		.byte	99
 899 0099 00       		.byte	0
 900 009a 6F       		.byte	111
 901 009b 00       		.byte	0
 902 009c 6E       		.byte	110
 903 009d 00       		.byte	0
 904 009e 64       		.byte	100
 905 009f 00       		.byte	0
 906 00a0 75       		.byte	117
 907 00a1 00       		.byte	0
 908 00a2 63       		.byte	99
 909 00a3 00       		.byte	0
 910 00a4 74       		.byte	116
 911 00a5 00       		.byte	0
 912 00a6 6F       		.byte	111
 913 00a7 00       		.byte	0
 914 00a8 72       		.byte	114
 915 00a9 00       		.byte	0
 916 00aa 73       		.byte	115
 917 00ab 00       		.byte	0
 918 00ac 20       		.byte	32
 919 00ad 00       		.byte	0
 920 00ae 4C       		.byte	76
 921 00af 00       		.byte	0
 922 00b0 50       		.byte	80
 923 00b1 00       		.byte	0
 924 00b2 43       		.byte	67
 925 00b3 00       		.byte	0
 926 00b4 32       		.byte	50
 927 00b5 00       		.byte	0
 928 00b6 31       		.byte	49
 929 00b7 00       		.byte	0
 930 00b8 34       		.byte	52
 931 00b9 00       		.byte	0
 932 00ba 38       		.byte	56
 933 00bb 00       		.byte	0
 934              		.global	ProductStr
 935 00bc 00000000 		.align	3
 936              		.type	ProductStr, %object
 937              		.size	ProductStr, 98
 938              	ProductStr:
 939 00c0 62       		.byte	98
 940 00c1 03       		.byte	3
 941 00c2 45       		.byte	69
 942 00c3 00       		.byte	0
 943 00c4 6D       		.byte	109
 944 00c5 00       		.byte	0
 945 00c6 62       		.byte	98
 946 00c7 00       		.byte	0
 947 00c8 65       		.byte	101
 948 00c9 00       		.byte	0
 949 00ca 64       		.byte	100
 950 00cb 00       		.byte	0
 951 00cc 64       		.byte	100
ARM GAS  /cygdrive/c/DOCUME~1/mkwapisz/LOCALS~1/Temp/cco4zUpe.s 			page 28


 952 00cd 00       		.byte	0
 953 00ce 65       		.byte	101
 954 00cf 00       		.byte	0
 955 00d0 64       		.byte	100
 956 00d1 00       		.byte	0
 957 00d2 20       		.byte	32
 958 00d3 00       		.byte	0
 959 00d4 41       		.byte	65
 960 00d5 00       		.byte	0
 961 00d6 72       		.byte	114
 962 00d7 00       		.byte	0
 963 00d8 74       		.byte	116
 964 00d9 00       		.byte	0
 965 00da 69       		.byte	105
 966 00db 00       		.byte	0
 967 00dc 73       		.byte	115
 968 00dd 00       		.byte	0
 969 00de 74       		.byte	116
 970 00df 00       		.byte	0
 971 00e0 73       		.byte	115
 972 00e1 00       		.byte	0
 973 00e2 20       		.byte	32
 974 00e3 00       		.byte	0
 975 00e4 51       		.byte	81
 976 00e5 00       		.byte	0
 977 00e6 75       		.byte	117
 978 00e7 00       		.byte	0
 979 00e8 69       		.byte	105
 980 00e9 00       		.byte	0
 981 00ea 63       		.byte	99
 982 00eb 00       		.byte	0
 983 00ec 6B       		.byte	107
 984 00ed 00       		.byte	0
 985 00ee 53       		.byte	83
 986 00ef 00       		.byte	0
 987 00f0 74       		.byte	116
 988 00f1 00       		.byte	0
 989 00f2 61       		.byte	97
 990 00f3 00       		.byte	0
 991 00f4 72       		.byte	114
 992 00f5 00       		.byte	0
 993 00f6 74       		.byte	116
 994 00f7 00       		.byte	0
 995 00f8 20       		.byte	32
 996 00f9 00       		.byte	0
 997 00fa 42       		.byte	66
 998 00fb 00       		.byte	0
 999 00fc 6F       		.byte	111
 1000 00fd 00       		.byte	0
 1001 00fe 61       		.byte	97
 1002 00ff 00       		.byte	0
 1003 0100 72       		.byte	114
 1004 0101 00       		.byte	0
 1005 0102 64       		.byte	100
 1006 0103 00       		.byte	0
 1007 0104 20       		.byte	32
 1008 0105 00       		.byte	0
ARM GAS  /cygdrive/c/DOCUME~1/mkwapisz/LOCALS~1/Temp/cco4zUpe.s 			page 29


 1009 0106 2D       		.byte	45
 1010 0107 00       		.byte	0
 1011 0108 20       		.byte	32
 1012 0109 00       		.byte	0
 1013 010a 74       		.byte	116
 1014 010b 00       		.byte	0
 1015 010c 65       		.byte	101
 1016 010d 00       		.byte	0
 1017 010e 73       		.byte	115
 1018 010f 00       		.byte	0
 1019 0110 74       		.byte	116
 1020 0111 00       		.byte	0
 1021 0112 20       		.byte	32
 1022 0113 00       		.byte	0
 1023 0114 70       		.byte	112
 1024 0115 00       		.byte	0
 1025 0116 72       		.byte	114
 1026 0117 00       		.byte	0
 1027 0118 6F       		.byte	111
 1028 0119 00       		.byte	0
 1029 011a 67       		.byte	103
 1030 011b 00       		.byte	0
 1031 011c 72       		.byte	114
 1032 011d 00       		.byte	0
 1033 011e 61       		.byte	97
 1034 011f 00       		.byte	0
 1035 0120 6D       		.byte	109
 1036 0121 00       		.byte	0
 1037              		.global	StrPoin
 1038 0122 00000000 		.section	.rodata
 1038      0000
 1039              		.align	3
 1040              		.type	StrPoin, %object
 1041              		.size	StrPoin, 12
 1042              	StrPoin:
 1043 0000 00000000 		.word	LanguagesStr
 1044 0004 00000000 		.word	ManufacturerStr
 1045 0008 00000000 		.word	ProductStr
 1046 000c 00000000 		.bss
 1047              		.align	3
 1048              	Length.1460:
 1049 0000 0000     		.space	2
 1050              		.align	1
 1051              	Status.1459:
 1052 0002 0000     		.space	2
 1053 0004 00000000 		.align	3
 1054              	Setup.1458:
 1055 0008 00000000 		.space	8
 1055      00000000 
 1056              		.comm	currentConfiguration,1,8
 1057              		.comm	currentAddress,1,8
 1058              		.section	.debug_frame,"",%progbits
 1059              	.Lframe0:
 1060 0000 0C000000 		.4byte	.LECIE0-.LSCIE0
 1061              	.LSCIE0:
 1062 0004 FFFFFFFF 		.4byte	0xffffffff
 1063 0008 01       		.byte	0x1
ARM GAS  /cygdrive/c/DOCUME~1/mkwapisz/LOCALS~1/Temp/cco4zUpe.s 			page 30


 1064 0009 00       		.ascii	"\000"
 1065 000a 01       		.uleb128 0x1
 1066 000b 7C       		.sleb128 -4
 1067 000c 0E       		.byte	0xe
 1068 000d 0C       		.byte	0xc
 1069 000e 0D       		.uleb128 0xd
 1070 000f 00       		.uleb128 0x0
 1071              		.align	2
 1072              	.LECIE0:
 1073              	.LSFDE0:
 1074 0010 0C000000 		.4byte	.LEFDE0-.LASFDE0
 1075              	.LASFDE0:
 1076 0014 00000000 		.4byte	.Lframe0
 1077 0018 00000000 		.4byte	.LFB3
 1078 001c 10000000 		.4byte	.LFE3-.LFB3
 1079              		.align	2
 1080              	.LEFDE0:
 1081              	.LSFDE2:
 1082 0020 14000000 		.4byte	.LEFDE2-.LASFDE2
 1083              	.LASFDE2:
 1084 0024 00000000 		.4byte	.Lframe0
 1085 0028 10000000 		.4byte	.LFB9
 1086 002c BC000000 		.4byte	.LFE9-.LFB9
 1087 0030 02       		.byte	0x4
 1088 0031 48       		.4byte	.LCFI0-.LFB9
 1089 0032 0E       		.byte	0xe
 1090 0033 08       		.uleb128 0x8
 1091 0034 8E       		.byte	0x8e
 1092 0035 01       		.uleb128 0x1
 1093 0036 84       		.byte	0x84
 1094 0037 02       		.uleb128 0x2
 1095              		.align	2
 1096              	.LEFDE2:
 1097              	.LSFDE4:
 1098 0038 14000000 		.4byte	.LEFDE4-.LASFDE4
 1099              	.LASFDE4:
 1100 003c 00000000 		.4byte	.Lframe0
 1101 0040 CC000000 		.4byte	.LFB6
 1102 0044 98000000 		.4byte	.LFE6-.LFB6
 1103 0048 4C       		.byte	0x4
 1104              		.4byte	.LCFI1-.LFB6
 1105 0049 0E       		.byte	0xe
 1106 004a 08       		.uleb128 0x8
 1107 004b 8E       		.byte	0x8e
 1108 004c 01       		.uleb128 0x1
 1109 004d 84       		.byte	0x84
 1110 004e 02       		.uleb128 0x2
 1111 004f 00       		.align	2
 1112              	.LEFDE4:
 1113              	.LSFDE6:
 1114 0050 1C000000 		.4byte	.LEFDE6-.LASFDE6
 1115              	.LASFDE6:
 1116 0054 00000000 		.4byte	.Lframe0
 1117 0058 64010000 		.4byte	.LFB7
 1118 005c D4000000 		.4byte	.LFE7-.LFB7
 1119 0060 44       		.byte	0x4
 1120              		.4byte	.LCFI2-.LFB7
ARM GAS  /cygdrive/c/DOCUME~1/mkwapisz/LOCALS~1/Temp/cco4zUpe.s 			page 31


 1121 0061 0E       		.byte	0xe
 1122 0062 18       		.uleb128 0x18
 1123 0063 8E       		.byte	0x8e
 1124 0064 01       		.uleb128 0x1
 1125 0065 88       		.byte	0x88
 1126 0066 02       		.uleb128 0x2
 1127 0067 87       		.byte	0x87
 1128 0068 03       		.uleb128 0x3
 1129 0069 86       		.byte	0x86
 1130 006a 04       		.uleb128 0x4
 1131 006b 85       		.byte	0x85
 1132 006c 05       		.uleb128 0x5
 1133 006d 84       		.byte	0x84
 1134 006e 06       		.uleb128 0x6
 1135 006f 00       		.align	2
 1136              	.LEFDE6:
 1137              	.LSFDE8:
 1138 0070 14000000 		.4byte	.LEFDE8-.LASFDE8
 1139              	.LASFDE8:
 1140 0074 00000000 		.4byte	.Lframe0
 1141 0078 38020000 		.4byte	.LFB5
 1142 007c 18000000 		.4byte	.LFE5-.LFB5
 1143 0080 44       		.byte	0x4
 1144              		.4byte	.LCFI3-.LFB5
 1145 0081 0E       		.byte	0xe
 1146 0082 04       		.uleb128 0x4
 1147 0083 8E       		.byte	0x8e
 1148 0084 01       		.uleb128 0x1
 1149 0085 000000   		.align	2
 1150              	.LEFDE8:
 1151              	.LSFDE10:
 1152 0088 18000000 		.4byte	.LEFDE10-.LASFDE10
 1153              	.LASFDE10:
 1154 008c 00000000 		.4byte	.Lframe0
 1155 0090 50020000 		.4byte	.LFB8
 1156 0094 FC020000 		.4byte	.LFE8-.LFB8
 1157 0098 44       		.byte	0x4
 1158              		.4byte	.LCFI4-.LFB8
 1159 0099 0E       		.byte	0xe
 1160 009a 0C       		.uleb128 0xc
 1161 009b 8E       		.byte	0x8e
 1162 009c 01       		.uleb128 0x1
 1163 009d 85       		.byte	0x85
 1164 009e 02       		.uleb128 0x2
 1165 009f 84       		.byte	0x84
 1166 00a0 03       		.uleb128 0x3
 1167 00a1 000000   		.align	2
 1168              	.LEFDE10:
 1169              	.LSFDE12:
 1170 00a4 18000000 		.4byte	.LEFDE12-.LASFDE12
 1171              	.LASFDE12:
 1172 00a8 00000000 		.4byte	.Lframe0
 1173 00ac 4C050000 		.4byte	.LFB2
 1174 00b0 68000000 		.4byte	.LFE2-.LFB2
 1175 00b4 44       		.byte	0x4
 1176              		.4byte	.LCFI5-.LFB2
 1177 00b5 0E       		.byte	0xe
ARM GAS  /cygdrive/c/DOCUME~1/mkwapisz/LOCALS~1/Temp/cco4zUpe.s 			page 32


 1178 00b6 0C       		.uleb128 0xc
 1179 00b7 8E       		.byte	0x8e
 1180 00b8 01       		.uleb128 0x1
 1181 00b9 85       		.byte	0x85
 1182 00ba 02       		.uleb128 0x2
 1183 00bb 84       		.byte	0x84
 1184 00bc 03       		.uleb128 0x3
 1185 00bd 000000   		.align	2
 1186              	.LEFDE12:
 1187              	.LSFDE14:
 1188 00c0 14000000 		.4byte	.LEFDE14-.LASFDE14
 1189              	.LASFDE14:
 1190 00c4 00000000 		.4byte	.Lframe0
 1191 00c8 B4050000 		.4byte	.LFB4
 1192 00cc 9C000000 		.4byte	.LFE4-.LFB4
 1193 00d0 44       		.byte	0x4
 1194              		.4byte	.LCFI6-.LFB4
 1195 00d1 0E       		.byte	0xe
 1196 00d2 08       		.uleb128 0x8
 1197 00d3 8E       		.byte	0x8e
 1198 00d4 01       		.uleb128 0x1
 1199 00d5 84       		.byte	0x84
 1200 00d6 02       		.uleb128 0x2
 1201 00d7 00       		.align	2
 1202              	.LEFDE14:
 1203              		.text
 1204              	.Letext0: