ARM GAS  /cygdrive/c/DOCUME~1/mkwapisz/LOCALS~1/Temp/ccen1O9M.s 			page 1


   1              		.file	"irqUart.c"
   2              		.section	.debug_abbrev,"",%progbits
   3              	.Ldebug_abbrev0:
   4              		.section	.debug_info,"",%progbits
   5              	.Ldebug_info0:
   6              		.section	.debug_line,"",%progbits
   7              	.Ldebug_line0:
   8 0000 92000000 		.text
   8      02005300 
   8      00000201 
   8      FB0E0D00 
   8      01010101 
   9              	.Ltext0:
  10              		.align	2
  11              		.global	uart1ISR
  12              		.type	uart1ISR, %function
  13              	uart1ISR:
  14              	.LFB2:
  15              		.file 1 "irqUart.c"
   1:irqUart.c     **** /******************************************************************************
   2:irqUart.c     ****  *
   3:irqUart.c     ****  * Copyright:
   4:irqUart.c     ****  *    (C) 2005 Embedded Artists AB
   5:irqUart.c     ****  *
   6:irqUart.c     ****  * File:
   7:irqUart.c     ****  *    irqUart.c
   8:irqUart.c     ****  *
   9:irqUart.c     ****  * Description:
  10:irqUart.c     ****  *    Sample irq code, that must be compiled in ARM code.
  11:irqUart.c     ****  *
  12:irqUart.c     ****  *****************************************************************************/
  13:irqUart.c     **** 
  14:irqUart.c     **** /******************************************************************************
  15:irqUart.c     ****  * Includes
  16:irqUart.c     ****  *****************************************************************************/
  17:irqUart.c     **** #include "../../pre_emptive_os/api/general.h"
  18:irqUart.c     **** #include <lpc2xxx.h>
  19:irqUart.c     **** #include "irqUart.h"
  20:irqUart.c     **** #include "../uart.h"
  21:irqUart.c     **** 
  22:irqUart.c     **** /*****************************************************************************
  23:irqUart.c     ****  * Public function prototypes
  24:irqUart.c     ****  ****************************************************************************/
  25:irqUart.c     **** //void uart1ISR(void) __attribute__ ((interrupt));
  26:irqUart.c     **** 
  27:irqUart.c     **** 
  28:irqUart.c     **** /*****************************************************************************
  29:irqUart.c     ****  * Implementation of public functions
  30:irqUart.c     ****  ****************************************************************************/
  31:irqUart.c     **** 
  32:irqUart.c     **** /*****************************************************************************
  33:irqUart.c     ****  *
  34:irqUart.c     ****  * Description:
  35:irqUart.c     ****  *    Actual uart #1 ISR that is called whenever the uart generated an interrupt.
  36:irqUart.c     ****  *
  37:irqUart.c     ****  ****************************************************************************/
  38:irqUart.c     **** void
ARM GAS  /cygdrive/c/DOCUME~1/mkwapisz/LOCALS~1/Temp/ccen1O9M.s 			page 2


  39:irqUart.c     **** uart1ISR(void)
  40:irqUart.c     **** {
  16              		.loc 1 40 0
  17              		@ Function supports interworking.
  18              		@ args = 0, pretend = 0, frame = 12
  19              		@ frame_needed = 0, uses_anonymous_args = 0
  20              		@ link register save eliminated.
  21 0000 0CD04DE2 		sub	sp, sp, #12
  22              	.LCFI0:
  23              		@ lr needed for prologue
  24 0004 580000EA 		b	.L29
  25              	.LVL0:
  26              	.L3:
  41:irqUart.c     ****   volatile tU8  statusReg;
  42:irqUart.c     ****   volatile tU8  dummy;
  43:irqUart.c     ****   volatile tU32 tmpHead;
  44:irqUart.c     ****   volatile tU32 tmpTail;
  45:irqUart.c     **** 
  46:irqUart.c     ****   //loop until not more interrupt sources
  47:irqUart.c     ****   while (((statusReg = U1IIR) & 0x01) == 0)
  48:irqUart.c     ****   {
  49:irqUart.c     ****     //identify and process the highest priority interrupt
  50:irqUart.c     ****     switch (statusReg & 0x0E)
  27              		.loc 1 50 0
  28 0008 0B30DDE5 		ldrb	r3, [sp, #11]	@ zero_extendqisi2
  29 000c 0E3003E2 		and	r3, r3, #14
  30              	.LVL1:
  31 0010 023043E2 		sub	r3, r3, #2
  32 0014 0A0053E3 		cmp	r3, #10
  33 0018 03F19F97 		ldrls	pc, [pc, r3, asl #2]
  34 001c 4B0000EA 		b	.L4
  35              		.p2align 2
  36              	.L8:
  37 0020 B8000000 		.word	.L5
  38 0024 50010000 		.word	.L4
  39 0028 58000000 		.word	.L23
  40 002c 50010000 		.word	.L4
  41 0030 4C000000 		.word	.L7
  42 0034 50010000 		.word	.L4
  43 0038 50010000 		.word	.L4
  44 003c 50010000 		.word	.L4
  45 0040 50010000 		.word	.L4
  46 0044 50010000 		.word	.L4
  47 0048 58000000 		.word	.L23
  48              	.L7:
  51:irqUart.c     ****     {
  52:irqUart.c     ****       case 0x06:  //Receive Line Status
  53:irqUart.c     ****       dummy = U1LSR;  //read LSR to clear bits
  49              		.loc 1 53 0
  50 004c 48319FE5 		ldr	r3, .L30
  51 0050 143093E5 		ldr	r3, [r3, #20]
  52 0054 420000EA 		b	.L28
  53              	.L23:
  54:irqUart.c     ****       break;
  55:irqUart.c     **** 
  56:irqUart.c     ****       case 0x0c:  //Character Timeout Indicator
  57:irqUart.c     ****       case 0x04:  //Receive Data Available
ARM GAS  /cygdrive/c/DOCUME~1/mkwapisz/LOCALS~1/Temp/ccen1O9M.s 			page 3


  58:irqUart.c     ****       do
  59:irqUart.c     ****       {
  60:irqUart.c     ****         tmpHead     = (uart1RxHead + 1) & RX_BUFFER_MASK;
  54              		.loc 1 60 0
  55 0058 40219FE5 		ldr	r2, .L30+4
  56 005c 003092E5 		ldr	r3, [r2, #0]
  57 0060 013083E2 		add	r3, r3, #1
  58 0064 3F3003E2 		and	r3, r3, #63
  59 0068 04308DE5 		str	r3, [sp, #4]
  61:irqUart.c     ****         uart1RxHead = tmpHead;
  60              		.loc 1 61 0
  61 006c 04309DE5 		ldr	r3, [sp, #4]
  62 0070 003082E5 		str	r3, [r2, #0]
  62:irqUart.c     **** 
  63:irqUart.c     ****         if(tmpHead == uart1RxTail)
  63              		.loc 1 63 0
  64 0074 28319FE5 		ldr	r3, .L30+8
  65 0078 04209DE5 		ldr	r2, [sp, #4]
  66 007c 003093E5 		ldr	r3, [r3, #0]
  67 0080 030052E1 		cmp	r2, r3
  64:irqUart.c     ****           tmpHead = U1RBR;              //dummy read to reset IRQ flag
  65:irqUart.c     ****         else
  66:irqUart.c     ****           uart1RxBuf[tmpHead] = U1RBR;  //will reset IRQ flag
  68              		.loc 1 66 0
  69 0084 10319F15 		ldrne	r3, .L30
  70              		.loc 1 64 0
  71 0088 0C319F05 		ldreq	r3, .L30
  72              		.loc 1 66 0
  73 008c 04109D15 		ldrne	r1, [sp, #4]
  74              		.loc 1 64 0
  75 0090 00309305 		ldreq	r3, [r3, #0]
  76              		.loc 1 66 0
  77 0094 00209315 		ldrne	r2, [r3, #0]
  78 0098 08319F15 		ldrne	r3, .L30+12
  79              		.loc 1 64 0
  80 009c 04308D05 		streq	r3, [sp, #4]
  81              		.loc 1 66 0
  82 00a0 0120C317 		strneb	r2, [r3, r1]
  67:irqUart.c     ****       } while (U1LSR & 0x01);
  83              		.loc 1 67 0
  84 00a4 F0309FE5 		ldr	r3, .L30
  85 00a8 143093E5 		ldr	r3, [r3, #20]
  86 00ac 010013E3 		tst	r3, #1
  87 00b0 2D00000A 		beq	.L29
  88 00b4 E7FFFFEA 		b	.L23
  89              	.L5:
  68:irqUart.c     ****       break;
  69:irqUart.c     **** 
  70:irqUart.c     ****       case 0x02:  //Transmit Holding Register Empty
  71:irqUart.c     ****       //check if all data is transmitted
  72:irqUart.c     ****       if (uart1TxHead != uart1TxTail)
  90              		.loc 1 72 0
  91 00b8 EC309FE5 		ldr	r3, .L30+16
  92 00bc 002093E5 		ldr	r2, [r3, #0]
  93 00c0 E8309FE5 		ldr	r3, .L30+20
  94 00c4 003093E5 		ldr	r3, [r3, #0]
  95 00c8 030052E1 		cmp	r2, r3
ARM GAS  /cygdrive/c/DOCUME~1/mkwapisz/LOCALS~1/Temp/ccen1O9M.s 			page 4


  96 00cc 1700000A 		beq	.L12
  97              	.LBB2:
  73:irqUart.c     ****       {
  74:irqUart.c     ****       	tU32 bytesToSend;
  75:irqUart.c     ****       	
  76:irqUart.c     ****       	if (statusReg & 0xc0)
  98              		.loc 1 76 0
  99 00d0 0B30DDE5 		ldrb	r3, [sp, #11]	@ zero_extendqisi2
 100 00d4 C00013E3 		tst	r3, #192
 101 00d8 0100A003 		moveq	r0, #1
 102 00dc 1000A013 		movne	r0, #16
 103              	.L16:
  77:irqUart.c     ****       	  bytesToSend = 16;    //FIFO enabled
  78:irqUart.c     ****       	else
  79:irqUart.c     ****       	  bytesToSend = 1;     //no FIFO enabled
  80:irqUart.c     **** 
  81:irqUart.c     ****       	do
  82:irqUart.c     ****       	{
  83:irqUart.c     ****           //calculate buffer index
  84:irqUart.c     ****           tmpTail = (uart1TxTail + 1) & TX_BUFFER_MASK;
 104              		.loc 1 84 0
 105 00e0 C8109FE5 		ldr	r1, .L30+20
 106 00e4 003091E5 		ldr	r3, [r1, #0]
 107 00e8 013083E2 		add	r3, r3, #1
 108 00ec 3F3003E2 		and	r3, r3, #63
 109 00f0 00308DE5 		str	r3, [sp, #0]
  85:irqUart.c     **** 
  86:irqUart.c     ****           uart1TxTail = tmpTail;
 110              		.loc 1 86 0
 111 00f4 00309DE5 		ldr	r3, [sp, #0]
 112 00f8 003081E5 		str	r3, [r1, #0]
  87:irqUart.c     ****           U1THR = uart1TxBuf[tmpTail]; 
 113              		.loc 1 87 0
 114 00fc 00209DE5 		ldr	r2, [sp, #0]
 115 0100 AC309FE5 		ldr	r3, .L30+24
 116 0104 0220D3E7 		ldrb	r2, [r3, r2]	@ zero_extendqisi2
 117 0108 8C309FE5 		ldr	r3, .L30
 118 010c 002083E5 		str	r2, [r3, #0]
  88:irqUart.c     ****         } while((uart1TxHead != uart1TxTail) && --bytesToSend);
 119              		.loc 1 88 0
 120 0110 94309FE5 		ldr	r3, .L30+16
 121 0114 002093E5 		ldr	r2, [r3, #0]
 122 0118 003091E5 		ldr	r3, [r1, #0]
 123 011c 030052E1 		cmp	r2, r3
 124 0120 1100000A 		beq	.L29
 125 0124 010050E2 		subs	r0, r0, #1
 126 0128 0F00000A 		beq	.L29
 127 012c EBFFFFEA 		b	.L16
 128              	.L12:
 129              	.LBE2:
  89:irqUart.c     ****       }
  90:irqUart.c     **** 
  91:irqUart.c     ****       //all data has been transmitted
  92:irqUart.c     ****       else
  93:irqUart.c     ****       {
  94:irqUart.c     ****         uart1TxRunning = FALSE;
 130              		.loc 1 94 0
ARM GAS  /cygdrive/c/DOCUME~1/mkwapisz/LOCALS~1/Temp/ccen1O9M.s 			page 5


 131 0130 80309FE5 		ldr	r3, .L30+28
 132 0134 0020A0E3 		mov	r2, #0
 133 0138 0020C3E5 		strb	r2, [r3, #0]
  95:irqUart.c     ****         U1IER &= ~0x02;        //disable TX IRQ
 134              		.loc 1 95 0
 135 013c 58209FE5 		ldr	r2, .L30
 136 0140 043092E5 		ldr	r3, [r2, #4]
 137 0144 0230C3E3 		bic	r3, r3, #2
 138 0148 043082E5 		str	r3, [r2, #4]
 139 014c 060000EA 		b	.L29
 140              	.L4:
  96:irqUart.c     ****       }
  97:irqUart.c     ****       break;
  98:irqUart.c     **** 
  99:irqUart.c     ****       default:  //unknown
 100:irqUart.c     ****       dummy = U1LSR;
 141              		.loc 1 100 0
 142 0150 44309FE5 		ldr	r3, .L30
 143 0154 142093E5 		ldr	r2, [r3, #20]
 144 0158 FF2002E2 		and	r2, r2, #255
 145 015c 0A20CDE5 		strb	r2, [sp, #10]
 101:irqUart.c     ****       dummy = U1RBR;
 146              		.loc 1 101 0
 147 0160 003093E5 		ldr	r3, [r3, #0]
 148              	.L28:
 149 0164 FF3003E2 		and	r3, r3, #255
 150 0168 0A30CDE5 		strb	r3, [sp, #10]
 151              	.L29:
 152              		.loc 1 47 0
 153 016c 28309FE5 		ldr	r3, .L30
 154 0170 083093E5 		ldr	r3, [r3, #8]
 155 0174 FF3003E2 		and	r3, r3, #255
 156 0178 0B30CDE5 		strb	r3, [sp, #11]
 157 017c 0B30DDE5 		ldrb	r3, [sp, #11]	@ zero_extendqisi2
 158 0180 010013E3 		tst	r3, #1
 159 0184 9FFFFF0A 		beq	.L3
 160              	.LVL2:
 102:irqUart.c     ****       break;
 103:irqUart.c     ****     }
 104:irqUart.c     ****   }
 105:irqUart.c     **** 
 106:irqUart.c     ****   VICVectAddr = 0x00000000;    //dummy write to VIC to signal end of interrupt
 161              		.loc 1 106 0
 162 0188 0020A0E3 		mov	r2, #0
 163 018c 0030E0E3 		mvn	r3, #0
 164              	.LVL3:
 165 0190 CF2F03E5 		str	r2, [r3, #-4047]
 107:irqUart.c     **** }
 166              		.loc 1 107 0
 167 0194 0CD08DE2 		add	sp, sp, #12
 168 0198 1EFF2FE1 		bx	lr
 169              	.L31:
 170              		.align	2
 171              	.L30:
 172 019c 000001E0 		.word	-536805376
 173 01a0 00000000 		.word	uart1RxHead
 174 01a4 00000000 		.word	uart1RxTail
ARM GAS  /cygdrive/c/DOCUME~1/mkwapisz/LOCALS~1/Temp/ccen1O9M.s 			page 6


 175 01a8 00000000 		.word	uart1RxBuf
 176 01ac 00000000 		.word	uart1TxHead
 177 01b0 00000000 		.word	uart1TxTail
 178 01b4 00000000 		.word	uart1TxBuf
 179 01b8 00000000 		.word	uart1TxRunning
 180              	.LFE2:
 181              		.size	uart1ISR, .-uart1ISR
 182              		.align	2
 183              		.global	disIrq
 184              		.type	disIrq, %function
 185              	disIrq:
 186              	.LFB3:
 108:irqUart.c     **** 
 109:irqUart.c     **** /*****************************************************************************
 110:irqUart.c     ****  *
 111:irqUart.c     ****  * Description:
 112:irqUart.c     ****  *    Disable interrupts 
 113:irqUart.c     ****  *
 114:irqUart.c     ****  * Returns:
 115:irqUart.c     ****  *    The current status register, before disabling interrupts. 
 116:irqUart.c     ****  *
 117:irqUart.c     ****  ****************************************************************************/
 118:irqUart.c     **** tU32
 119:irqUart.c     **** disIrq(void)
 120:irqUart.c     **** {
 187              		.loc 1 120 0
 188              		@ Function supports interworking.
 189              		@ args = 0, pretend = 0, frame = 0
 190              		@ frame_needed = 0, uses_anonymous_args = 0
 191              		@ link register save eliminated.
 192              		@ lr needed for prologue
 121:irqUart.c     ****   tU32 returnReg;
 122:irqUart.c     **** 
 123:irqUart.c     ****   asm volatile ("disIrq1: mrs %0, cpsr  \n\t"
 124:irqUart.c     ****                 "orr r1, %0, #0xC0      \n\t"
 125:irqUart.c     ****                 "msr cpsr_c, r1         \n\t"
 126:irqUart.c     ****                 "mrs r1, cpsr           \n\t"
 127:irqUart.c     ****                 "and r1, r1, #0xC0      \n\t"
 128:irqUart.c     ****                 "cmp r1, #0xC0          \n\t"
 129:irqUart.c     ****                 "bne disIrq1            \n\t"
 130:irqUart.c     ****                 : "=r"(returnReg)
 131:irqUart.c     ****                 :
 132:irqUart.c     ****                 : "r1"
 133:irqUart.c     ****                );
 134:irqUart.c     ****   return returnReg;
 135:irqUart.c     **** }
 193              		.loc 1 135 0
 194 01bc 00000FE1 		disIrq1: mrs r0, cpsr  
 195 01c0 C01080E3 		orr r1, r0, #0xC0      
 196 01c4 01F021E1 		msr cpsr_c, r1         
 197 01c8 00100FE1 		mrs r1, cpsr           
 198 01cc C01001E2 		and r1, r1, #0xC0      
 199 01d0 C00051E3 		cmp r1, #0xC0          
 200 01d4 F8FFFF1A 		bne disIrq1            
 201              		
 202 01d8 1EFF2FE1 		bx	lr
 203              	.LFE3:
ARM GAS  /cygdrive/c/DOCUME~1/mkwapisz/LOCALS~1/Temp/ccen1O9M.s 			page 7


 204              		.size	disIrq, .-disIrq
 205              		.align	2
 206              		.global	restoreIrq
 207              		.type	restoreIrq, %function
 208              	restoreIrq:
 209              	.LFB4:
 136:irqUart.c     **** 
 137:irqUart.c     **** /*****************************************************************************
 138:irqUart.c     ****  *
 139:irqUart.c     ****  * Description:
 140:irqUart.c     ****  *    Restore interrupt state. 
 141:irqUart.c     ****  *
 142:irqUart.c     ****  * Params:
 143:irqUart.c     ****  *    [in] restoreValue - The value of the new status register. 
 144:irqUart.c     ****  *
 145:irqUart.c     ****  ****************************************************************************/
 146:irqUart.c     **** void
 147:irqUart.c     **** restoreIrq(tU32 restoreValue)
 148:irqUart.c     **** {
 210              		.loc 1 148 0
 211              		@ Function supports interworking.
 212              		@ args = 0, pretend = 0, frame = 0
 213              		@ frame_needed = 0, uses_anonymous_args = 0
 214              		@ link register save eliminated.
 215              	.LVL4:
 216              		@ lr needed for prologue
 149:irqUart.c     ****   asm volatile ("msr cpsr_c, %0  \n\t"
 217              		.loc 1 149 0
 218 01dc 00F021E1 		msr cpsr_c, r0  
 219              		
 150:irqUart.c     ****                 :
 151:irqUart.c     ****                 : "r" (restoreValue)
 152:irqUart.c     ****                 : "r1"
 153:irqUart.c     ****                );
 154:irqUart.c     **** }
 220              		.loc 1 154 0
 221 01e0 1EFF2FE1 		bx	lr
 222              	.LFE4:
 223              		.size	restoreIrq, .-restoreIrq
 224              		.section	.debug_frame,"",%progbits
 225              	.Lframe0:
 226 0000 0C000000 		.4byte	.LECIE0-.LSCIE0
 227              	.LSCIE0:
 228 0004 FFFFFFFF 		.4byte	0xffffffff
 229 0008 01       		.byte	0x1
 230 0009 00       		.ascii	"\000"
 231 000a 01       		.uleb128 0x1
 232 000b 7C       		.sleb128 -4
 233 000c 0E       		.byte	0xe
 234 000d 0C       		.byte	0xc
 235 000e 0D       		.uleb128 0xd
 236 000f 00       		.uleb128 0x0
 237              		.align	2
 238              	.LECIE0:
 239              	.LSFDE0:
 240 0010 10000000 		.4byte	.LEFDE0-.LASFDE0
 241              	.LASFDE0:
ARM GAS  /cygdrive/c/DOCUME~1/mkwapisz/LOCALS~1/Temp/ccen1O9M.s 			page 8


 242 0014 00000000 		.4byte	.Lframe0
 243 0018 00000000 		.4byte	.LFB2
 244 001c BC010000 		.4byte	.LFE2-.LFB2
 245 0020 44       		.byte	0x4
 246              		.4byte	.LCFI0-.LFB2
 247 0021 0E       		.byte	0xe
 248 0022 0C       		.uleb128 0xc
 249 0023 00       		.align	2
 250              	.LEFDE0:
 251              	.LSFDE2:
 252 0024 0C000000 		.4byte	.LEFDE2-.LASFDE2
 253              	.LASFDE2:
 254 0028 00000000 		.4byte	.Lframe0
 255 002c BC010000 		.4byte	.LFB3
 256 0030 20000000 		.4byte	.LFE3-.LFB3
 257              		.align	2
 258              	.LEFDE2:
 259              	.LSFDE4:
 260 0034 0C000000 		.4byte	.LEFDE4-.LASFDE4
 261              	.LASFDE4:
 262 0038 00000000 		.4byte	.Lframe0
 263 003c DC010000 		.4byte	.LFB4
 264 0040 08000000 		.4byte	.LFE4-.LFB4
 265              		.align	2
 266              	.LEFDE4:
 267              		.file 2 "../../pre_emptive_os/api/general.h"
 268              		.file 3 "irqUart.h"
 269              		.text
 270              	.Letext0:
 271              		.section	.debug_loc,"",%progbits
 272              	.Ldebug_loc0:
 273              	.LLST0:
 274 0000 00000000 		.4byte	.LFB2-.Ltext0
 275 0004 04000000 		.4byte	.LCFI0-.Ltext0
 276 0008 0100     		.2byte	0x1
 277 000a 5D       		.byte	0x5d
 278 000b 04000000 		.4byte	.LCFI0-.Ltext0
 279 000f BC010000 		.4byte	.LFE2-.Ltext0
 280 0013 0200     		.2byte	0x2
 281 0015 7D       		.byte	0x7d
 282 0016 0C       		.sleb128 12
 283 0017 00000000 		.4byte	0x0
 284 001b 00000000 		.4byte	0x0
 285              	.LLST1:
 286 001f 08000000 		.4byte	.LVL0-.Ltext0
 287 0023 10000000 		.4byte	.LVL1-.Ltext0
 288 0027 0100     		.2byte	0x1
 289 0029 53       		.byte	0x53
 290 002a 10000000 		.4byte	.LVL1-.Ltext0
 291 002e 88010000 		.4byte	.LVL2-.Ltext0
 292 0032 0200     		.2byte	0x2
 293 0034 91       		.byte	0x91
 294 0035 77       		.sleb128 -9
 295 0036 88010000 		.4byte	.LVL2-.Ltext0
 296 003a 90010000 		.4byte	.LVL3-.Ltext0
 297 003e 0100     		.2byte	0x1
 298 0040 53       		.byte	0x53
ARM GAS  /cygdrive/c/DOCUME~1/mkwapisz/LOCALS~1/Temp/ccen1O9M.s 			page 9


 299 0041 90010000 		.4byte	.LVL3-.Ltext0
 300 0045 BC010000 		.4byte	.LFE2-.Ltext0
 301 0049 0200     		.2byte	0x2
 302 004b 91       		.byte	0x91
 303 004c 77       		.sleb128 -9
 304 004d 00000000 		.4byte	0x0
 305 0051 00000000 		.4byte	0x0
 306              		.section	.debug_info
 307 0000 93010000 		.4byte	0x193
 308 0004 0200     		.2byte	0x2
 309 0006 00000000 		.4byte	.Ldebug_abbrev0
 310 000a 04       		.byte	0x4
 311 000b 01       		.uleb128 0x1
 312 000c 00000000 		.4byte	.Ldebug_line0
 313 0010 E4010000 		.4byte	.Letext0
 314 0014 00000000 		.4byte	.Ltext0
 315 0018 B6000000 		.4byte	.LASF22
 316 001c 01       		.byte	0x1
 317 001d 58000000 		.4byte	.LASF23
 318 0021 EB000000 		.4byte	.LASF24
 319 0025 02       		.uleb128 0x2
 320 0026 74553800 		.ascii	"tU8\000"
 321 002a 02       		.byte	0x2
 322 002b 47       		.byte	0x47
 323 002c 30000000 		.4byte	0x30
 324 0030 03       		.uleb128 0x3
 325 0031 7B000000 		.4byte	.LASF0
 326 0035 01       		.byte	0x1
 327 0036 08       		.byte	0x8
 328 0037 03       		.uleb128 0x3
 329 0038 CC000000 		.4byte	.LASF1
 330 003c 02       		.byte	0x2
 331 003d 07       		.byte	0x7
 332 003e 04       		.uleb128 0x4
 333 003f 72010000 		.4byte	.LASF2
 334 0043 02       		.byte	0x2
 335 0044 49       		.byte	0x49
 336 0045 49000000 		.4byte	0x49
 337 0049 03       		.uleb128 0x3
 338 004a 0B000000 		.4byte	.LASF3
 339 004e 04       		.byte	0x4
 340 004f 07       		.byte	0x7
 341 0050 03       		.uleb128 0x3
 342 0051 DF000000 		.4byte	.LASF4
 343 0055 01       		.byte	0x1
 344 0056 06       		.byte	0x6
 345 0057 03       		.uleb128 0x3
 346 0058 5D010000 		.4byte	.LASF5
 347 005c 02       		.byte	0x2
 348 005d 05       		.byte	0x5
 349 005e 05       		.uleb128 0x5
 350 005f 696E7400 		.ascii	"int\000"
 351 0063 04       		.byte	0x4
 352 0064 05       		.byte	0x5
 353 0065 06       		.uleb128 0x6
 354 0066 CF000000 		.4byte	0xcf
 355 006a 01       		.byte	0x1
ARM GAS  /cygdrive/c/DOCUME~1/mkwapisz/LOCALS~1/Temp/ccen1O9M.s 			page 10


 356 006b 62000000 		.4byte	.LASF11
 357 006f 01       		.byte	0x1
 358 0070 28       		.byte	0x28
 359 0071 01       		.byte	0x1
 360 0072 00000000 		.4byte	.LFB2
 361 0076 BC010000 		.4byte	.LFE2
 362 007a 00000000 		.4byte	.LLST0
 363 007e 07       		.uleb128 0x7
 364 007f 89000000 		.4byte	.LASF6
 365 0083 01       		.byte	0x1
 366 0084 29       		.byte	0x29
 367 0085 CF000000 		.4byte	0xcf
 368 0089 1F000000 		.4byte	.LLST1
 369 008d 08       		.uleb128 0x8
 370 008e 46000000 		.4byte	.LASF7
 371 0092 01       		.byte	0x1
 372 0093 2A       		.byte	0x2a
 373 0094 CF000000 		.4byte	0xcf
 374 0098 02       		.byte	0x2
 375 0099 91       		.byte	0x91
 376 009a 76       		.sleb128 -10
 377 009b 08       		.uleb128 0x8
 378 009c 6B000000 		.4byte	.LASF8
 379 00a0 01       		.byte	0x1
 380 00a1 2B       		.byte	0x2b
 381 00a2 D4000000 		.4byte	0xd4
 382 00a6 02       		.byte	0x2
 383 00a7 91       		.byte	0x91
 384 00a8 70       		.sleb128 -16
 385 00a9 08       		.uleb128 0x8
 386 00aa 73000000 		.4byte	.LASF9
 387 00ae 01       		.byte	0x1
 388 00af 2C       		.byte	0x2c
 389 00b0 D4000000 		.4byte	0xd4
 390 00b4 02       		.byte	0x2
 391 00b5 91       		.byte	0x91
 392 00b6 6C       		.sleb128 -20
 393 00b7 09       		.uleb128 0x9
 394 00b8 D0000000 		.4byte	.LBB2
 395 00bc 30010000 		.4byte	.LBE2
 396 00c0 08       		.uleb128 0x8
 397 00c1 2E000000 		.4byte	.LASF10
 398 00c5 01       		.byte	0x1
 399 00c6 4A       		.byte	0x4a
 400 00c7 3E000000 		.4byte	0x3e
 401 00cb 01       		.byte	0x1
 402 00cc 50       		.byte	0x50
 403 00cd 00       		.byte	0x0
 404 00ce 00       		.byte	0x0
 405 00cf 0A       		.uleb128 0xa
 406 00d0 25000000 		.4byte	0x25
 407 00d4 0A       		.uleb128 0xa
 408 00d5 3E000000 		.4byte	0x3e
 409 00d9 0B       		.uleb128 0xb
 410 00da 00010000 		.4byte	0x100
 411 00de 01       		.byte	0x1
 412 00df 18000000 		.4byte	.LASF12
ARM GAS  /cygdrive/c/DOCUME~1/mkwapisz/LOCALS~1/Temp/ccen1O9M.s 			page 11


 413 00e3 01       		.byte	0x1
 414 00e4 78       		.byte	0x78
 415 00e5 01       		.byte	0x1
 416 00e6 3E000000 		.4byte	0x3e
 417 00ea BC010000 		.4byte	.LFB3
 418 00ee DC010000 		.4byte	.LFE3
 419 00f2 01       		.byte	0x1
 420 00f3 5D       		.byte	0x5d
 421 00f4 0C       		.uleb128 0xc
 422 00f5 C2000000 		.4byte	.LASF13
 423 00f9 01       		.byte	0x1
 424 00fa 79       		.byte	0x79
 425 00fb 3E000000 		.4byte	0x3e
 426 00ff 00       		.byte	0x0
 427 0100 0D       		.uleb128 0xd
 428 0101 25010000 		.4byte	0x125
 429 0105 01       		.byte	0x1
 430 0106 00000000 		.4byte	.LASF14
 431 010a 01       		.byte	0x1
 432 010b 94       		.byte	0x94
 433 010c 01       		.byte	0x1
 434 010d DC010000 		.4byte	.LFB4
 435 0111 E4010000 		.4byte	.LFE4
 436 0115 01       		.byte	0x1
 437 0116 5D       		.byte	0x5d
 438 0117 0E       		.uleb128 0xe
 439 0118 50010000 		.4byte	.LASF25
 440 011c 01       		.byte	0x1
 441 011d 93       		.byte	0x93
 442 011e 3E000000 		.4byte	0x3e
 443 0122 01       		.byte	0x1
 444 0123 50       		.byte	0x50
 445 0124 00       		.byte	0x0
 446 0125 0F       		.uleb128 0xf
 447 0126 30010000 		.4byte	0x130
 448 012a 25000000 		.4byte	0x25
 449 012e 10       		.uleb128 0x10
 450 012f 00       		.byte	0x0
 451 0130 11       		.uleb128 0x11
 452 0131 9F000000 		.4byte	.LASF15
 453 0135 03       		.byte	0x3
 454 0136 13       		.byte	0x13
 455 0137 25010000 		.4byte	0x125
 456 013b 01       		.byte	0x1
 457 013c 01       		.byte	0x1
 458 013d 11       		.uleb128 0x11
 459 013e 93000000 		.4byte	.LASF16
 460 0142 03       		.byte	0x3
 461 0143 14       		.byte	0x14
 462 0144 D4000000 		.4byte	0xd4
 463 0148 01       		.byte	0x1
 464 0149 01       		.byte	0x1
 465 014a 11       		.uleb128 0x11
 466 014b AA000000 		.4byte	.LASF17
 467 014f 03       		.byte	0x3
 468 0150 15       		.byte	0x15
 469 0151 D4000000 		.4byte	0xd4
ARM GAS  /cygdrive/c/DOCUME~1/mkwapisz/LOCALS~1/Temp/ccen1O9M.s 			page 12


 470 0155 01       		.byte	0x1
 471 0156 01       		.byte	0x1
 472 0157 11       		.uleb128 0x11
 473 0158 1F000000 		.4byte	.LASF18
 474 015c 03       		.byte	0x3
 475 015d 16       		.byte	0x16
 476 015e CF000000 		.4byte	0xcf
 477 0162 01       		.byte	0x1
 478 0163 01       		.byte	0x1
 479 0164 0F       		.uleb128 0xf
 480 0165 6F010000 		.4byte	0x16f
 481 0169 25000000 		.4byte	0x25
 482 016d 10       		.uleb128 0x10
 483 016e 00       		.byte	0x0
 484 016f 11       		.uleb128 0x11
 485 0170 67010000 		.4byte	.LASF19
 486 0174 03       		.byte	0x3
 487 0175 18       		.byte	0x18
 488 0176 64010000 		.4byte	0x164
 489 017a 01       		.byte	0x1
 490 017b 01       		.byte	0x1
 491 017c 11       		.uleb128 0x11
 492 017d 3A000000 		.4byte	.LASF20
 493 0181 03       		.byte	0x3
 494 0182 19       		.byte	0x19
 495 0183 D4000000 		.4byte	0xd4
 496 0187 01       		.byte	0x1
 497 0188 01       		.byte	0x1
 498 0189 11       		.uleb128 0x11
 499 018a 4C000000 		.4byte	.LASF21
 500 018e 03       		.byte	0x3
 501 018f 1A       		.byte	0x1a
 502 0190 D4000000 		.4byte	0xd4
 503 0194 01       		.byte	0x1
 504 0195 01       		.byte	0x1
 505 0196 00       		.byte	0x0
 506              		.section	.debug_abbrev
 507 0000 01       		.uleb128 0x1
 508 0001 11       		.uleb128 0x11
 509 0002 01       		.byte	0x1
 510 0003 10       		.uleb128 0x10
 511 0004 06       		.uleb128 0x6
 512 0005 12       		.uleb128 0x12
 513 0006 01       		.uleb128 0x1
 514 0007 11       		.uleb128 0x11
 515 0008 01       		.uleb128 0x1
 516 0009 25       		.uleb128 0x25
 517 000a 0E       		.uleb128 0xe
 518 000b 13       		.uleb128 0x13
 519 000c 0B       		.uleb128 0xb
 520 000d 03       		.uleb128 0x3
 521 000e 0E       		.uleb128 0xe
 522 000f 1B       		.uleb128 0x1b
 523 0010 0E       		.uleb128 0xe
 524 0011 00       		.byte	0x0
 525 0012 00       		.byte	0x0
 526 0013 02       		.uleb128 0x2
ARM GAS  /cygdrive/c/DOCUME~1/mkwapisz/LOCALS~1/Temp/ccen1O9M.s 			page 13


 527 0014 16       		.uleb128 0x16
 528 0015 00       		.byte	0x0
 529 0016 03       		.uleb128 0x3
 530 0017 08       		.uleb128 0x8
 531 0018 3A       		.uleb128 0x3a
 532 0019 0B       		.uleb128 0xb
 533 001a 3B       		.uleb128 0x3b
 534 001b 0B       		.uleb128 0xb
 535 001c 49       		.uleb128 0x49
 536 001d 13       		.uleb128 0x13
 537 001e 00       		.byte	0x0
 538 001f 00       		.byte	0x0
 539 0020 03       		.uleb128 0x3
 540 0021 24       		.uleb128 0x24
 541 0022 00       		.byte	0x0
 542 0023 03       		.uleb128 0x3
 543 0024 0E       		.uleb128 0xe
 544 0025 0B       		.uleb128 0xb
 545 0026 0B       		.uleb128 0xb
 546 0027 3E       		.uleb128 0x3e
 547 0028 0B       		.uleb128 0xb
 548 0029 00       		.byte	0x0
 549 002a 00       		.byte	0x0
 550 002b 04       		.uleb128 0x4
 551 002c 16       		.uleb128 0x16
 552 002d 00       		.byte	0x0
 553 002e 03       		.uleb128 0x3
 554 002f 0E       		.uleb128 0xe
 555 0030 3A       		.uleb128 0x3a
 556 0031 0B       		.uleb128 0xb
 557 0032 3B       		.uleb128 0x3b
 558 0033 0B       		.uleb128 0xb
 559 0034 49       		.uleb128 0x49
 560 0035 13       		.uleb128 0x13
 561 0036 00       		.byte	0x0
 562 0037 00       		.byte	0x0
 563 0038 05       		.uleb128 0x5
 564 0039 24       		.uleb128 0x24
 565 003a 00       		.byte	0x0
 566 003b 03       		.uleb128 0x3
 567 003c 08       		.uleb128 0x8
 568 003d 0B       		.uleb128 0xb
 569 003e 0B       		.uleb128 0xb
 570 003f 3E       		.uleb128 0x3e
 571 0040 0B       		.uleb128 0xb
 572 0041 00       		.byte	0x0
 573 0042 00       		.byte	0x0
 574 0043 06       		.uleb128 0x6
 575 0044 2E       		.uleb128 0x2e
 576 0045 01       		.byte	0x1
 577 0046 01       		.uleb128 0x1
 578 0047 13       		.uleb128 0x13
 579 0048 3F       		.uleb128 0x3f
 580 0049 0C       		.uleb128 0xc
 581 004a 03       		.uleb128 0x3
 582 004b 0E       		.uleb128 0xe
 583 004c 3A       		.uleb128 0x3a
ARM GAS  /cygdrive/c/DOCUME~1/mkwapisz/LOCALS~1/Temp/ccen1O9M.s 			page 14


 584 004d 0B       		.uleb128 0xb
 585 004e 3B       		.uleb128 0x3b
 586 004f 0B       		.uleb128 0xb
 587 0050 27       		.uleb128 0x27
 588 0051 0C       		.uleb128 0xc
 589 0052 11       		.uleb128 0x11
 590 0053 01       		.uleb128 0x1
 591 0054 12       		.uleb128 0x12
 592 0055 01       		.uleb128 0x1
 593 0056 40       		.uleb128 0x40
 594 0057 06       		.uleb128 0x6
 595 0058 00       		.byte	0x0
 596 0059 00       		.byte	0x0
 597 005a 07       		.uleb128 0x7
 598 005b 34       		.uleb128 0x34
 599 005c 00       		.byte	0x0
 600 005d 03       		.uleb128 0x3
 601 005e 0E       		.uleb128 0xe
 602 005f 3A       		.uleb128 0x3a
 603 0060 0B       		.uleb128 0xb
 604 0061 3B       		.uleb128 0x3b
 605 0062 0B       		.uleb128 0xb
 606 0063 49       		.uleb128 0x49
 607 0064 13       		.uleb128 0x13
 608 0065 02       		.uleb128 0x2
 609 0066 06       		.uleb128 0x6
 610 0067 00       		.byte	0x0
 611 0068 00       		.byte	0x0
 612 0069 08       		.uleb128 0x8
 613 006a 34       		.uleb128 0x34
 614 006b 00       		.byte	0x0
 615 006c 03       		.uleb128 0x3
 616 006d 0E       		.uleb128 0xe
 617 006e 3A       		.uleb128 0x3a
 618 006f 0B       		.uleb128 0xb
 619 0070 3B       		.uleb128 0x3b
 620 0071 0B       		.uleb128 0xb
 621 0072 49       		.uleb128 0x49
 622 0073 13       		.uleb128 0x13
 623 0074 02       		.uleb128 0x2
 624 0075 0A       		.uleb128 0xa
 625 0076 00       		.byte	0x0
 626 0077 00       		.byte	0x0
 627 0078 09       		.uleb128 0x9
 628 0079 0B       		.uleb128 0xb
 629 007a 01       		.byte	0x1
 630 007b 11       		.uleb128 0x11
 631 007c 01       		.uleb128 0x1
 632 007d 12       		.uleb128 0x12
 633 007e 01       		.uleb128 0x1
 634 007f 00       		.byte	0x0
 635 0080 00       		.byte	0x0
 636 0081 0A       		.uleb128 0xa
 637 0082 35       		.uleb128 0x35
 638 0083 00       		.byte	0x0
 639 0084 49       		.uleb128 0x49
 640 0085 13       		.uleb128 0x13
ARM GAS  /cygdrive/c/DOCUME~1/mkwapisz/LOCALS~1/Temp/ccen1O9M.s 			page 15


 641 0086 00       		.byte	0x0
 642 0087 00       		.byte	0x0
 643 0088 0B       		.uleb128 0xb
 644 0089 2E       		.uleb128 0x2e
 645 008a 01       		.byte	0x1
 646 008b 01       		.uleb128 0x1
 647 008c 13       		.uleb128 0x13
 648 008d 3F       		.uleb128 0x3f
 649 008e 0C       		.uleb128 0xc
 650 008f 03       		.uleb128 0x3
 651 0090 0E       		.uleb128 0xe
 652 0091 3A       		.uleb128 0x3a
 653 0092 0B       		.uleb128 0xb
 654 0093 3B       		.uleb128 0x3b
 655 0094 0B       		.uleb128 0xb
 656 0095 27       		.uleb128 0x27
 657 0096 0C       		.uleb128 0xc
 658 0097 49       		.uleb128 0x49
 659 0098 13       		.uleb128 0x13
 660 0099 11       		.uleb128 0x11
 661 009a 01       		.uleb128 0x1
 662 009b 12       		.uleb128 0x12
 663 009c 01       		.uleb128 0x1
 664 009d 40       		.uleb128 0x40
 665 009e 0A       		.uleb128 0xa
 666 009f 00       		.byte	0x0
 667 00a0 00       		.byte	0x0
 668 00a1 0C       		.uleb128 0xc
 669 00a2 34       		.uleb128 0x34
 670 00a3 00       		.byte	0x0
 671 00a4 03       		.uleb128 0x3
 672 00a5 0E       		.uleb128 0xe
 673 00a6 3A       		.uleb128 0x3a
 674 00a7 0B       		.uleb128 0xb
 675 00a8 3B       		.uleb128 0x3b
 676 00a9 0B       		.uleb128 0xb
 677 00aa 49       		.uleb128 0x49
 678 00ab 13       		.uleb128 0x13
 679 00ac 00       		.byte	0x0
 680 00ad 00       		.byte	0x0
 681 00ae 0D       		.uleb128 0xd
 682 00af 2E       		.uleb128 0x2e
 683 00b0 01       		.byte	0x1
 684 00b1 01       		.uleb128 0x1
 685 00b2 13       		.uleb128 0x13
 686 00b3 3F       		.uleb128 0x3f
 687 00b4 0C       		.uleb128 0xc
 688 00b5 03       		.uleb128 0x3
 689 00b6 0E       		.uleb128 0xe
 690 00b7 3A       		.uleb128 0x3a
 691 00b8 0B       		.uleb128 0xb
 692 00b9 3B       		.uleb128 0x3b
 693 00ba 0B       		.uleb128 0xb
 694 00bb 27       		.uleb128 0x27
 695 00bc 0C       		.uleb128 0xc
 696 00bd 11       		.uleb128 0x11
 697 00be 01       		.uleb128 0x1
ARM GAS  /cygdrive/c/DOCUME~1/mkwapisz/LOCALS~1/Temp/ccen1O9M.s 			page 16


 698 00bf 12       		.uleb128 0x12
 699 00c0 01       		.uleb128 0x1
 700 00c1 40       		.uleb128 0x40
 701 00c2 0A       		.uleb128 0xa
 702 00c3 00       		.byte	0x0
 703 00c4 00       		.byte	0x0
 704 00c5 0E       		.uleb128 0xe
 705 00c6 05       		.uleb128 0x5
 706 00c7 00       		.byte	0x0
 707 00c8 03       		.uleb128 0x3
 708 00c9 0E       		.uleb128 0xe
 709 00ca 3A       		.uleb128 0x3a
 710 00cb 0B       		.uleb128 0xb
 711 00cc 3B       		.uleb128 0x3b
 712 00cd 0B       		.uleb128 0xb
 713 00ce 49       		.uleb128 0x49
 714 00cf 13       		.uleb128 0x13
 715 00d0 02       		.uleb128 0x2
 716 00d1 0A       		.uleb128 0xa
 717 00d2 00       		.byte	0x0
 718 00d3 00       		.byte	0x0
 719 00d4 0F       		.uleb128 0xf
 720 00d5 01       		.uleb128 0x1
 721 00d6 01       		.byte	0x1
 722 00d7 01       		.uleb128 0x1
 723 00d8 13       		.uleb128 0x13
 724 00d9 49       		.uleb128 0x49
 725 00da 13       		.uleb128 0x13
 726 00db 00       		.byte	0x0
 727 00dc 00       		.byte	0x0
 728 00dd 10       		.uleb128 0x10
 729 00de 21       		.uleb128 0x21
 730 00df 00       		.byte	0x0
 731 00e0 00       		.byte	0x0
 732 00e1 00       		.byte	0x0
 733 00e2 11       		.uleb128 0x11
 734 00e3 34       		.uleb128 0x34
 735 00e4 00       		.byte	0x0
 736 00e5 03       		.uleb128 0x3
 737 00e6 0E       		.uleb128 0xe
 738 00e7 3A       		.uleb128 0x3a
 739 00e8 0B       		.uleb128 0xb
 740 00e9 3B       		.uleb128 0x3b
 741 00ea 0B       		.uleb128 0xb
 742 00eb 49       		.uleb128 0x49
 743 00ec 13       		.uleb128 0x13
 744 00ed 3F       		.uleb128 0x3f
 745 00ee 0C       		.uleb128 0xc
 746 00ef 3C       		.uleb128 0x3c
 747 00f0 0C       		.uleb128 0xc
 748 00f1 00       		.byte	0x0
 749 00f2 00       		.byte	0x0
 750 00f3 00       		.byte	0x0
 751              		.section	.debug_pubnames,"",%progbits
 752 0000 35000000 		.4byte	0x35
 753 0004 0200     		.2byte	0x2
 754 0006 00000000 		.4byte	.Ldebug_info0
ARM GAS  /cygdrive/c/DOCUME~1/mkwapisz/LOCALS~1/Temp/ccen1O9M.s 			page 17


 755 000a 97010000 		.4byte	0x197
 756 000e 65000000 		.4byte	0x65
 757 0012 75617274 		.ascii	"uart1ISR\000"
 757      31495352 
 757      00
 758 001b D9000000 		.4byte	0xd9
 759 001f 64697349 		.ascii	"disIrq\000"
 759      727100
 760 0026 00010000 		.4byte	0x100
 761 002a 72657374 		.ascii	"restoreIrq\000"
 761      6F726549 
 761      727100
 762 0035 00000000 		.4byte	0x0
 763              		.section	.debug_aranges,"",%progbits
 764 0000 1C000000 		.4byte	0x1c
 765 0004 0200     		.2byte	0x2
 766 0006 00000000 		.4byte	.Ldebug_info0
 767 000a 04       		.byte	0x4
 768 000b 00       		.byte	0x0
 769 000c 0000     		.2byte	0x0
 770 000e 0000     		.2byte	0x0
 771 0010 00000000 		.4byte	.Ltext0
 772 0014 E4010000 		.4byte	.Letext0-.Ltext0
 773 0018 00000000 		.4byte	0x0
 774 001c 00000000 		.4byte	0x0
 775              		.section	.debug_str,"MS",%progbits,1
 776              	.LASF14:
 777 0000 72657374 		.ascii	"restoreIrq\000"
 777      6F726549 
 777      727100
 778              	.LASF3:
 779 000b 756E7369 		.ascii	"unsigned int\000"
 779      676E6564 
 779      20696E74 
 779      00
 780              	.LASF12:
 781 0018 64697349 		.ascii	"disIrq\000"
 781      727100
 782              	.LASF18:
 783 001f 75617274 		.ascii	"uart1TxRunning\000"
 783      31547852 
 783      756E6E69 
 783      6E6700
 784              	.LASF10:
 785 002e 62797465 		.ascii	"bytesToSend\000"
 785      73546F53 
 785      656E6400 
 786              	.LASF20:
 787 003a 75617274 		.ascii	"uart1RxHead\000"
 787      31527848 
 787      65616400 
 788              	.LASF7:
 789 0046 64756D6D 		.ascii	"dummy\000"
 789      7900
 790              	.LASF21:
 791 004c 75617274 		.ascii	"uart1RxTail\000"
 791      31527854 
ARM GAS  /cygdrive/c/DOCUME~1/mkwapisz/LOCALS~1/Temp/ccen1O9M.s 			page 18


 791      61696C00 
 792              	.LASF23:
 793 0058 69727155 		.ascii	"irqUart.c\000"
 793      6172742E 
 793      6300
 794              	.LASF11:
 795 0062 75617274 		.ascii	"uart1ISR\000"
 795      31495352 
 795      00
 796              	.LASF8:
 797 006b 746D7048 		.ascii	"tmpHead\000"
 797      65616400 
 798              	.LASF9:
 799 0073 746D7054 		.ascii	"tmpTail\000"
 799      61696C00 
 800              	.LASF0:
 801 007b 756E7369 		.ascii	"unsigned char\000"
 801      676E6564 
 801      20636861 
 801      7200
 802              	.LASF6:
 803 0089 73746174 		.ascii	"statusReg\000"
 803      75735265 
 803      6700
 804              	.LASF16:
 805 0093 75617274 		.ascii	"uart1TxHead\000"
 805      31547848 
 805      65616400 
 806              	.LASF15:
 807 009f 75617274 		.ascii	"uart1TxBuf\000"
 807      31547842 
 807      756600
 808              	.LASF17:
 809 00aa 75617274 		.ascii	"uart1TxTail\000"
 809      31547854 
 809      61696C00 
 810              	.LASF22:
 811 00b6 474E5520 		.ascii	"GNU C 4.1.1\000"
 811      4320342E 
 811      312E3100 
 812              	.LASF13:
 813 00c2 72657475 		.ascii	"returnReg\000"
 813      726E5265 
 813      6700
 814              	.LASF1:
 815 00cc 73686F72 		.ascii	"short unsigned int\000"
 815      7420756E 
 815      7369676E 
 815      65642069 
 815      6E7400
 816              	.LASF4:
 817 00df 7369676E 		.ascii	"signed char\000"
 817      65642063 
 817      68617200 
 818              	.LASF24:
 819 00eb 2F637967 		.ascii	"/cygdrive/c/Documents and Settings/mkwapisz/Desktop"
 819      64726976 
ARM GAS  /cygdrive/c/DOCUME~1/mkwapisz/LOCALS~1/Temp/ccen1O9M.s 			page 19


 819      652F632F 
 819      446F6375 
 819      6D656E74 
 820 011e 2F76332E 		.ascii	"/v3.0_without_filesys/testProgram_lpc2148_edu/irq\000"
 820      305F7769 
 820      74686F75 
 820      745F6669 
 820      6C657379 
 821              	.LASF25:
 822 0150 72657374 		.ascii	"restoreValue\000"
 822      6F726556 
 822      616C7565 
 822      00
 823              	.LASF5:
 824 015d 73686F72 		.ascii	"short int\000"
 824      7420696E 
 824      7400
 825              	.LASF19:
 826 0167 75617274 		.ascii	"uart1RxBuf\000"
 826      31527842 
 826      756600
 827              	.LASF2:
 828 0172 74553332 		.ascii	"tU32\000"
 828      00
 829              		.ident	"GCC: (GNU) 4.1.1"
ARM GAS  /cygdrive/c/DOCUME~1/mkwapisz/LOCALS~1/Temp/ccen1O9M.s 			page 20


DEFINED SYMBOLS
                            *ABS*:00000000 irqUart.c
/cygdrive/c/DOCUME~1/mkwapisz/LOCALS~1/Temp/ccen1O9M.s:13     .text:00000000 uart1ISR
/cygdrive/c/DOCUME~1/mkwapisz/LOCALS~1/Temp/ccen1O9M.s:21     .text:00000000 $a
/cygdrive/c/DOCUME~1/mkwapisz/LOCALS~1/Temp/ccen1O9M.s:37     .text:00000020 $d
/cygdrive/c/DOCUME~1/mkwapisz/LOCALS~1/Temp/ccen1O9M.s:50     .text:0000004c $a
/cygdrive/c/DOCUME~1/mkwapisz/LOCALS~1/Temp/ccen1O9M.s:172    .text:0000019c $d
/cygdrive/c/DOCUME~1/mkwapisz/LOCALS~1/Temp/ccen1O9M.s:185    .text:000001bc disIrq
/cygdrive/c/DOCUME~1/mkwapisz/LOCALS~1/Temp/ccen1O9M.s:194    .text:000001bc disIrq1
/cygdrive/c/DOCUME~1/mkwapisz/LOCALS~1/Temp/ccen1O9M.s:194    .text:000001bc $a
/cygdrive/c/DOCUME~1/mkwapisz/LOCALS~1/Temp/ccen1O9M.s:208    .text:000001dc restoreIrq

UNDEFINED SYMBOLS
uart1RxHead
uart1RxTail
uart1RxBuf
uart1TxHead
uart1TxTail
uart1TxBuf
uart1TxRunning
