ARM GAS  /cygdrive/c/DOCUME~1/mkwapisz/LOCALS~1/Temp/ccen1O9M.s 			page 1


   1              		.file	"irqUart.c"
   8 0000 92000000 		.text
   8      02005300 
   8      00000201 
   8      FB0E0D00 
   8      01010101 
   9              	.Ltext0:
  10              		.align	2
  11              		.global	uart1ISR
  12              		.type	uart1ISR, %function
  13              	uart1ISR:
  14              	.LFB2:
  15              		.file 1 "irqUart.c"
   1:irqUart.c     **** /******************************************************************************
   2:irqUart.c     ****  *
   3:irqUart.c     ****  * Copyright:
   4:irqUart.c     ****  *    (C) 2005 Embedded Artists AB
   5:irqUart.c     ****  *
   6:irqUart.c     ****  * File:
   7:irqUart.c     ****  *    irqUart.c
   8:irqUart.c     ****  *
   9:irqUart.c     ****  * Description:
  10:irqUart.c     ****  *    Sample irq code, that must be compiled in ARM code.
  11:irqUart.c     ****  *
  12:irqUart.c     ****  *****************************************************************************/
  13:irqUart.c     **** 
  14:irqUart.c     **** /******************************************************************************
  15:irqUart.c     ****  * Includes
  16:irqUart.c     ****  *****************************************************************************/
  17:irqUart.c     **** #include "../../pre_emptive_os/api/general.h"
  18:irqUart.c     **** #include <lpc2xxx.h>
  19:irqUart.c     **** #include "irqUart.h"
  20:irqUart.c     **** #include "../uart.h"
  21:irqUart.c     **** 
  22:irqUart.c     **** /*****************************************************************************
  23:irqUart.c     ****  * Public function prototypes
  24:irqUart.c     ****  ****************************************************************************/
  25:irqUart.c     **** //void uart1ISR(void) __attribute__ ((interrupt));
  26:irqUart.c     **** 
  27:irqUart.c     **** 
  28:irqUart.c     **** /*****************************************************************************
  29:irqUart.c     ****  * Implementation of public functions
  30:irqUart.c     ****  ****************************************************************************/
  31:irqUart.c     **** 
  32:irqUart.c     **** /*****************************************************************************
  33:irqUart.c     ****  *
  34:irqUart.c     ****  * Description:
  35:irqUart.c     ****  *    Actual uart #1 ISR that is called whenever the uart generated an interrupt.
  36:irqUart.c     ****  *
  37:irqUart.c     ****  ****************************************************************************/
  38:irqUart.c     **** void
ARM GAS  /cygdrive/c/DOCUME~1/mkwapisz/LOCALS~1/Temp/ccen1O9M.s 			page 2


  39:irqUart.c     **** uart1ISR(void)
  40:irqUart.c     **** {
  16              		.loc 1 40 0
  17              		@ Function supports interworking.
  18              		@ args = 0, pretend = 0, frame = 12
  19              		@ frame_needed = 0, uses_anonymous_args = 0
  20              		@ link register save eliminated.
  21 0000 0CD04DE2 		sub	sp, sp, #12
  22              	.LCFI0:
  23              		@ lr needed for prologue
  24 0004 580000EA 		b	.L29
  25              	.LVL0:
  26              	.L3:
  41:irqUart.c     ****   volatile tU8  statusReg;
  42:irqUart.c     ****   volatile tU8  dummy;
  43:irqUart.c     ****   volatile tU32 tmpHead;
  44:irqUart.c     ****   volatile tU32 tmpTail;
  45:irqUart.c     **** 
  46:irqUart.c     ****   //loop until not more interrupt sources
  47:irqUart.c     ****   while (((statusReg = U1IIR) & 0x01) == 0)
  48:irqUart.c     ****   {
  49:irqUart.c     ****     //identify and process the highest priority interrupt
  50:irqUart.c     ****     switch (statusReg & 0x0E)
  27              		.loc 1 50 0
  28 0008 0B30DDE5 		ldrb	r3, [sp, #11]	@ zero_extendqisi2
  29 000c 0E3003E2 		and	r3, r3, #14
  30              	.LVL1:
  31 0010 023043E2 		sub	r3, r3, #2
  32 0014 0A0053E3 		cmp	r3, #10
  33 0018 03F19F97 		ldrls	pc, [pc, r3, asl #2]
  34 001c 4B0000EA 		b	.L4
  35              		.p2align 2
  36              	.L8:
  37 0020 B8000000 		.word	.L5
  38 0024 50010000 		.word	.L4
  39 0028 58000000 		.word	.L23
  40 002c 50010000 		.word	.L4
  41 0030 4C000000 		.word	.L7
  42 0034 50010000 		.word	.L4
  43 0038 50010000 		.word	.L4
  44 003c 50010000 		.word	.L4
  45 0040 50010000 		.word	.L4
  46 0044 50010000 		.word	.L4
  47 0048 58000000 		.word	.L23
  48              	.L7:
  51:irqUart.c     ****     {
  52:irqUart.c     ****       case 0x06:  //Receive Line Status
  53:irqUart.c     ****       dummy = U1LSR;  //read LSR to clear bits
  49              		.loc 1 53 0
  50 004c 48319FE5 		ldr	r3, .L30
  51 0050 143093E5 		ldr	r3, [r3, #20]
  52 0054 420000EA 		b	.L28
  53              	.L23:
  54:irqUart.c     ****       break;
  55:irqUart.c     **** 
  56:irqUart.c     ****       case 0x0c:  //Character Timeout Indicator
  57:irqUart.c     ****       case 0x04:  //Receive Data Available
ARM GAS  /cygdrive/c/DOCUME~1/mkwapisz/LOCALS~1/Temp/ccen1O9M.s 			page 3


  58:irqUart.c     ****       do
  59:irqUart.c     ****       {
  60:irqUart.c     ****         tmpHead     = (uart1RxHead + 1) & RX_BUFFER_MASK;
  54              		.loc 1 60 0
  55 0058 40219FE5 		ldr	r2, .L30+4
  56 005c 003092E5 		ldr	r3, [r2, #0]
  57 0060 013083E2 		add	r3, r3, #1
  58 0064 3F3003E2 		and	r3, r3, #63
  59 0068 04308DE5 		str	r3, [sp, #4]
  61:irqUart.c     ****         uart1RxHead = tmpHead;
  60              		.loc 1 61 0
  61 006c 04309DE5 		ldr	r3, [sp, #4]
  62 0070 003082E5 		str	r3, [r2, #0]
  62:irqUart.c     **** 
  63:irqUart.c     ****         if(tmpHead == uart1RxTail)
  63              		.loc 1 63 0
  64 0074 28319FE5 		ldr	r3, .L30+8
  65 0078 04209DE5 		ldr	r2, [sp, #4]
  66 007c 003093E5 		ldr	r3, [r3, #0]
  67 0080 030052E1 		cmp	r2, r3
  64:irqUart.c     ****           tmpHead = U1RBR;              //dummy read to reset IRQ flag
  65:irqUart.c     ****         else
  66:irqUart.c     ****           uart1RxBuf[tmpHead] = U1RBR;  //will reset IRQ flag
  68              		.loc 1 66 0
  69 0084 10319F15 		ldrne	r3, .L30
  70              		.loc 1 64 0
  71 0088 0C319F05 		ldreq	r3, .L30
  72              		.loc 1 66 0
  73 008c 04109D15 		ldrne	r1, [sp, #4]
  74              		.loc 1 64 0
  75 0090 00309305 		ldreq	r3, [r3, #0]
  76              		.loc 1 66 0
  77 0094 00209315 		ldrne	r2, [r3, #0]
  78 0098 08319F15 		ldrne	r3, .L30+12
  79              		.loc 1 64 0
  80 009c 04308D05 		streq	r3, [sp, #4]
  81              		.loc 1 66 0
  82 00a0 0120C317 		strneb	r2, [r3, r1]
  67:irqUart.c     ****       } while (U1LSR & 0x01);
  83              		.loc 1 67 0
  84 00a4 F0309FE5 		ldr	r3, .L30
  85 00a8 143093E5 		ldr	r3, [r3, #20]
  86 00ac 010013E3 		tst	r3, #1
  87 00b0 2D00000A 		beq	.L29
  88 00b4 E7FFFFEA 		b	.L23
  89              	.L5:
  68:irqUart.c     ****       break;
  69:irqUart.c     **** 
  70:irqUart.c     ****       case 0x02:  //Transmit Holding Register Empty
  71:irqUart.c     ****       //check if all data is transmitted
  72:irqUart.c     ****       if (uart1TxHead != uart1TxTail)
  90              		.loc 1 72 0
  91 00b8 EC309FE5 		ldr	r3, .L30+16
  92 00bc 002093E5 		ldr	r2, [r3, #0]
  93 00c0 E8309FE5 		ldr	r3, .L30+20
  94 00c4 003093E5 		ldr	r3, [r3, #0]
  95 00c8 030052E1 		cmp	r2, r3
ARM GAS  /cygdrive/c/DOCUME~1/mkwapisz/LOCALS~1/Temp/ccen1O9M.s 			page 4


  96 00cc 1700000A 		beq	.L12
  97              	.LBB2:
  73:irqUart.c     ****       {
  74:irqUart.c     ****       	tU32 bytesToSend;
  75:irqUart.c     ****       	
  76:irqUart.c     ****       	if (statusReg & 0xc0)
  98              		.loc 1 76 0
  99 00d0 0B30DDE5 		ldrb	r3, [sp, #11]	@ zero_extendqisi2
 100 00d4 C00013E3 		tst	r3, #192
 101 00d8 0100A003 		moveq	r0, #1
 102 00dc 1000A013 		movne	r0, #16
 103              	.L16:
  77:irqUart.c     ****       	  bytesToSend = 16;    //FIFO enabled
  78:irqUart.c     ****       	else
  79:irqUart.c     ****       	  bytesToSend = 1;     //no FIFO enabled
  80:irqUart.c     **** 
  81:irqUart.c     ****       	do
  82:irqUart.c     ****       	{
  83:irqUart.c     ****           //calculate buffer index
  84:irqUart.c     ****           tmpTail = (uart1TxTail + 1) & TX_BUFFER_MASK;
 104              		.loc 1 84 0
 105 00e0 C8109FE5 		ldr	r1, .L30+20
 106 00e4 003091E5 		ldr	r3, [r1, #0]
 107 00e8 013083E2 		add	r3, r3, #1
 108 00ec 3F3003E2 		and	r3, r3, #63
 109 00f0 00308DE5 		str	r3, [sp, #0]
  85:irqUart.c     **** 
  86:irqUart.c     ****           uart1TxTail = tmpTail;
 110              		.loc 1 86 0
 111 00f4 00309DE5 		ldr	r3, [sp, #0]
 112 00f8 003081E5 		str	r3, [r1, #0]
  87:irqUart.c     ****           U1THR = uart1TxBuf[tmpTail]; 
 113              		.loc 1 87 0
 114 00fc 00209DE5 		ldr	r2, [sp, #0]
 115 0100 AC309FE5 		ldr	r3, .L30+24
 116 0104 0220D3E7 		ldrb	r2, [r3, r2]	@ zero_extendqisi2
 117 0108 8C309FE5 		ldr	r3, .L30
 118 010c 002083E5 		str	r2, [r3, #0]
  88:irqUart.c     ****         } while((uart1TxHead != uart1TxTail) && --bytesToSend);
 119              		.loc 1 88 0
 120 0110 94309FE5 		ldr	r3, .L30+16
 121 0114 002093E5 		ldr	r2, [r3, #0]
 122 0118 003091E5 		ldr	r3, [r1, #0]
 123 011c 030052E1 		cmp	r2, r3
 124 0120 1100000A 		beq	.L29
 125 0124 010050E2 		subs	r0, r0, #1
 126 0128 0F00000A 		beq	.L29
 127 012c EBFFFFEA 		b	.L16
 128              	.L12:
 129              	.LBE2:
  89:irqUart.c     ****       }
  90:irqUart.c     **** 
  91:irqUart.c     ****       //all data has been transmitted
  92:irqUart.c     ****       else
  93:irqUart.c     ****       {
  94:irqUart.c     ****         uart1TxRunning = FALSE;
 130              		.loc 1 94 0
ARM GAS  /cygdrive/c/DOCUME~1/mkwapisz/LOCALS~1/Temp/ccen1O9M.s 			page 5


 131 0130 80309FE5 		ldr	r3, .L30+28
 132 0134 0020A0E3 		mov	r2, #0
 133 0138 0020C3E5 		strb	r2, [r3, #0]
  95:irqUart.c     ****         U1IER &= ~0x02;        //disable TX IRQ
 134              		.loc 1 95 0
 135 013c 58209FE5 		ldr	r2, .L30
 136 0140 043092E5 		ldr	r3, [r2, #4]
 137 0144 0230C3E3 		bic	r3, r3, #2
 138 0148 043082E5 		str	r3, [r2, #4]
 139 014c 060000EA 		b	.L29
 140              	.L4:
  96:irqUart.c     ****       }
  97:irqUart.c     ****       break;
  98:irqUart.c     **** 
  99:irqUart.c     ****       default:  //unknown
 100:irqUart.c     ****       dummy = U1LSR;
 141              		.loc 1 100 0
 142 0150 44309FE5 		ldr	r3, .L30
 143 0154 142093E5 		ldr	r2, [r3, #20]
 144 0158 FF2002E2 		and	r2, r2, #255
 145 015c 0A20CDE5 		strb	r2, [sp, #10]
 101:irqUart.c     ****       dummy = U1RBR;
 146              		.loc 1 101 0
 147 0160 003093E5 		ldr	r3, [r3, #0]
 148              	.L28:
 149 0164 FF3003E2 		and	r3, r3, #255
 150 0168 0A30CDE5 		strb	r3, [sp, #10]
 151              	.L29:
 152              		.loc 1 47 0
 153 016c 28309FE5 		ldr	r3, .L30
 154 0170 083093E5 		ldr	r3, [r3, #8]
 155 0174 FF3003E2 		and	r3, r3, #255
 156 0178 0B30CDE5 		strb	r3, [sp, #11]
 157 017c 0B30DDE5 		ldrb	r3, [sp, #11]	@ zero_extendqisi2
 158 0180 010013E3 		tst	r3, #1
 159 0184 9FFFFF0A 		beq	.L3
 160              	.LVL2:
 102:irqUart.c     ****       break;
 103:irqUart.c     ****     }
 104:irqUart.c     ****   }
 105:irqUart.c     **** 
 106:irqUart.c     ****   VICVectAddr = 0x00000000;    //dummy write to VIC to signal end of interrupt
 161              		.loc 1 106 0
 162 0188 0020A0E3 		mov	r2, #0
 163 018c 0030E0E3 		mvn	r3, #0
 164              	.LVL3:
 165 0190 CF2F03E5 		str	r2, [r3, #-4047]
 107:irqUart.c     **** }
 166              		.loc 1 107 0
 167 0194 0CD08DE2 		add	sp, sp, #12
 168 0198 1EFF2FE1 		bx	lr
 169              	.L31:
 170              		.align	2
 171              	.L30:
 172 019c 000001E0 		.word	-536805376
 173 01a0 00000000 		.word	uart1RxHead
 174 01a4 00000000 		.word	uart1RxTail
ARM GAS  /cygdrive/c/DOCUME~1/mkwapisz/LOCALS~1/Temp/ccen1O9M.s 			page 6


 175 01a8 00000000 		.word	uart1RxBuf
 176 01ac 00000000 		.word	uart1TxHead
 177 01b0 00000000 		.word	uart1TxTail
 178 01b4 00000000 		.word	uart1TxBuf
 179 01b8 00000000 		.word	uart1TxRunning
 180              	.LFE2:
 181              		.size	uart1ISR, .-uart1ISR
 182              		.align	2
 183              		.global	disIrq
 184              		.type	disIrq, %function
 185              	disIrq:
 186              	.LFB3:
 108:irqUart.c     **** 
 109:irqUart.c     **** /*****************************************************************************
 110:irqUart.c     ****  *
 111:irqUart.c     ****  * Description:
 112:irqUart.c     ****  *    Disable interrupts 
 113:irqUart.c     ****  *
 114:irqUart.c     ****  * Returns:
 115:irqUart.c     ****  *    The current status register, before disabling interrupts. 
 116:irqUart.c     ****  *
 117:irqUart.c     ****  ****************************************************************************/
 118:irqUart.c     **** tU32
 119:irqUart.c     **** disIrq(void)
 120:irqUart.c     **** {
 187              		.loc 1 120 0
 188              		@ Function supports interworking.
 189              		@ args = 0, pretend = 0, frame = 0
 190              		@ frame_needed = 0, uses_anonymous_args = 0
 191              		@ link register save eliminated.
 192              		@ lr needed for prologue
 121:irqUart.c     ****   tU32 returnReg;
 122:irqUart.c     **** 
 123:irqUart.c     ****   asm volatile ("disIrq1: mrs %0, cpsr  \n\t"
 124:irqUart.c     ****                 "orr r1, %0, #0xC0      \n\t"
 125:irqUart.c     ****                 "msr cpsr_c, r1         \n\t"
 126:irqUart.c     ****                 "mrs r1, cpsr           \n\t"
 127:irqUart.c     ****                 "and r1, r1, #0xC0      \n\t"
 128:irqUart.c     ****                 "cmp r1, #0xC0          \n\t"
 129:irqUart.c     ****                 "bne disIrq1            \n\t"
 130:irqUart.c     ****                 : "=r"(returnReg)
 131:irqUart.c     ****                 :
 132:irqUart.c     ****                 : "r1"
 133:irqUart.c     ****                );
 134:irqUart.c     ****   return returnReg;
 135:irqUart.c     **** }
 193              		.loc 1 135 0
 194 01bc 00000FE1 		disIrq1: mrs r0, cpsr  
 195 01c0 C01080E3 		orr r1, r0, #0xC0      
 196 01c4 01F021E1 		msr cpsr_c, r1         
 197 01c8 00100FE1 		mrs r1, cpsr           
 198 01cc C01001E2 		and r1, r1, #0xC0      
 199 01d0 C00051E3 		cmp r1, #0xC0          
 200 01d4 F8FFFF1A 		bne disIrq1            
 201              		
 202 01d8 1EFF2FE1 		bx	lr
 203              	.LFE3:
ARM GAS  /cygdrive/c/DOCUME~1/mkwapisz/LOCALS~1/Temp/ccen1O9M.s 			page 7


 204              		.size	disIrq, .-disIrq
 205              		.align	2
 206              		.global	restoreIrq
 207              		.type	restoreIrq, %function
 208              	restoreIrq:
 209              	.LFB4:
 136:irqUart.c     **** 
 137:irqUart.c     **** /*****************************************************************************
 138:irqUart.c     ****  *
 139:irqUart.c     ****  * Description:
 140:irqUart.c     ****  *    Restore interrupt state. 
 141:irqUart.c     ****  *
 142:irqUart.c     ****  * Params:
 143:irqUart.c     ****  *    [in] restoreValue - The value of the new status register. 
 144:irqUart.c     ****  *
 145:irqUart.c     ****  ****************************************************************************/
 146:irqUart.c     **** void
 147:irqUart.c     **** restoreIrq(tU32 restoreValue)
 148:irqUart.c     **** {
 210              		.loc 1 148 0
 211              		@ Function supports interworking.
 212              		@ args = 0, pretend = 0, frame = 0
 213              		@ frame_needed = 0, uses_anonymous_args = 0
 214              		@ link register save eliminated.
 215              	.LVL4:
 216              		@ lr needed for prologue
 149:irqUart.c     ****   asm volatile ("msr cpsr_c, %0  \n\t"
 217              		.loc 1 149 0
 218 01dc 00F021E1 		msr cpsr_c, r0  
 219              		
 150:irqUart.c     ****                 :
 151:irqUart.c     ****                 : "r" (restoreValue)
 152:irqUart.c     ****                 : "r1"
 153:irqUart.c     ****                );
 154:irqUart.c     **** }
 220              		.loc 1 154 0
 221 01e0 1EFF2FE1 		bx	lr
 222              	.LFE4:
 223              		.size	restoreIrq, .-restoreIrq
 224              		.section	.debug_frame,"",%progbits
 225              	.Lframe0:
 226 0000 0C000000 		.4byte	.LECIE0-.LSCIE0
 227              	.LSCIE0:
 228 0004 FFFFFFFF 		.4byte	0xffffffff
 229 0008 01       		.byte	0x1
 230 0009 00       		.ascii	"\000"
 231 000a 01       		.uleb128 0x1
 232 000b 7C       		.sleb128 -4
 233 000c 0E       		.byte	0xe
 234 000d 0C       		.byte	0xc
 235 000e 0D       		.uleb128 0xd
 236 000f 00       		.uleb128 0x0
 237              		.align	2
 238              	.LECIE0:
 239              	.LSFDE0:
 240 0010 10000000 		.4byte	.LEFDE0-.LASFDE0
 241              	.LASFDE0:
ARM GAS  /cygdrive/c/DOCUME~1/mkwapisz/LOCALS~1/Temp/ccen1O9M.s 			page 8


 242 0014 00000000 		.4byte	.Lframe0
 243 0018 00000000 		.4byte	.LFB2
 244 001c BC010000 		.4byte	.LFE2-.LFB2
 245 0020 44       		.byte	0x4
 246              		.4byte	.LCFI0-.LFB2
 247 0021 0E       		.byte	0xe
 248 0022 0C       		.uleb128 0xc
 249 0023 00       		.align	2
 250              	.LEFDE0:
 251              	.LSFDE2:
 252 0024 0C000000 		.4byte	.LEFDE2-.LASFDE2
 253              	.LASFDE2:
 254 0028 00000000 		.4byte	.Lframe0
 255 002c BC010000 		.4byte	.LFB3
 256 0030 20000000 		.4byte	.LFE3-.LFB3
 257              		.align	2
 258              	.LEFDE2:
 259              	.LSFDE4:
 260 0034 0C000000 		.4byte	.LEFDE4-.LASFDE4
 261              	.LASFDE4:
 262 0038 00000000 		.4byte	.Lframe0
 263 003c DC010000 		.4byte	.LFB4
 264 0040 08000000 		.4byte	.LFE4-.LFB4
 265              		.align	2
 266              	.LEFDE4:
 267              		.file 2 "../../pre_emptive_os/api/general.h"
 268              		.file 3 "irqUart.h"
 269              		.text
 270              	.Letext0: