ARM GAS  /cygdrive/c/DOCUME~1/mkwapisz/LOCALS~1/Temp/ccXrHZLf.s 			page 1


   1              		.code	16
   2              		.file	"eeprom.c"
   3              		.section	.debug_abbrev,"",%progbits
   4              	.Ldebug_abbrev0:
   5              		.section	.debug_info,"",%progbits
   6              	.Ldebug_info0:
   7              		.section	.debug_line,"",%progbits
   8              	.Ldebug_line0:
   9 0000 E1000000 		.text
   9      02004200 
   9      00000201 
   9      FB0E0D00 
   9      01010101 
  10              	.Ltext0:
  11              		.align	2
  12              		.global	eepromWrite
  13              		.code 16
  14              		.thumb_func
  15              		.type	eepromWrite, %function
  16              	eepromWrite:
  17              	.LFB5:
  18              		.file 1 "eeprom.c"
   1:eeprom.c      **** /******************************************************************************
   2:eeprom.c      ****  * Includes
   3:eeprom.c      ****  *****************************************************************************/
   4:eeprom.c      **** #include "../pre_emptive_os/api/general.h"
   5:eeprom.c      **** #include "i2c.h"
   6:eeprom.c      **** 
   7:eeprom.c      **** /******************************************************************************
   8:eeprom.c      ****  * Defines and typedefs
   9:eeprom.c      ****  *****************************************************************************/
  10:eeprom.c      **** 
  11:eeprom.c      **** #define EEPROM_SIZE       0x0100
  12:eeprom.c      **** #define LOCAL_EEPROM_ADDR 0x0
  13:eeprom.c      **** #define EEPROM_ADDR       0xA0
  14:eeprom.c      **** 
  15:eeprom.c      **** #define I2C_EEPROM_ADDR   (EEPROM_ADDR + (LOCAL_EEPROM_ADDR << 1))
  16:eeprom.c      **** #define I2C_EEPROM_RCV    (EEPROM_ADDR + (LOCAL_EEPROM_ADDR << 1) + 0x01)
  17:eeprom.c      **** #define I2C_EEPROM_SND    (EEPROM_ADDR + (LOCAL_EEPROM_ADDR << 1) + 0x00)
  18:eeprom.c      **** 
  19:eeprom.c      **** 
  20:eeprom.c      **** /******************************************************************************
  21:eeprom.c      ****  * Implementation of public functions
  22:eeprom.c      ****  *****************************************************************************/
  23:eeprom.c      **** 
  24:eeprom.c      **** /******************************************************************************
  25:eeprom.c      ****  *
  26:eeprom.c      ****  * Description:
  27:eeprom.c      ****  *    Waits till I2C returns ACK (after BURN cycle)
  28:eeprom.c      ****  *
  29:eeprom.c      ****  *    Note: After a stop condition, you may need a bus free time before you 
  30:eeprom.c      ****  *          can generate a new start condition.
  31:eeprom.c      ****  *
  32:eeprom.c      ****  * Returns:
  33:eeprom.c      ****  *    I2C_CODE_OK or I2C_CODE_ERROR
  34:eeprom.c      ****  *
  35:eeprom.c      ****  *****************************************************************************/
ARM GAS  /cygdrive/c/DOCUME~1/mkwapisz/LOCALS~1/Temp/ccXrHZLf.s 			page 2


  36:eeprom.c      **** tS8 
  37:eeprom.c      **** eepromPoll(void)
  38:eeprom.c      **** {
  39:eeprom.c      ****   tS8 retCode  = I2C_CODE_OK;
  40:eeprom.c      ****   tU8 status   = 0;
  41:eeprom.c      ****   tBool burnEnd = FALSE;
  42:eeprom.c      **** 
  43:eeprom.c      ****   while(burnEnd == FALSE)
  44:eeprom.c      ****   {
  45:eeprom.c      ****     /* Generate Start condition */
  46:eeprom.c      ****     retCode = i2cStart();
  47:eeprom.c      **** 
  48:eeprom.c      ****     /* Transmit SLA+W */
  49:eeprom.c      ****     if(retCode == I2C_CODE_OK)
  50:eeprom.c      ****     {
  51:eeprom.c      ****       /* Write SLA+W */
  52:eeprom.c      ****       retCode = i2cPutChar(I2C_EEPROM_SND);
  53:eeprom.c      ****       while(retCode == I2C_CODE_BUSY)
  54:eeprom.c      ****       {
  55:eeprom.c      ****         retCode = i2cPutChar(I2C_EEPROM_SND);
  56:eeprom.c      ****       }
  57:eeprom.c      ****     }
  58:eeprom.c      **** 
  59:eeprom.c      ****     if(retCode == I2C_CODE_OK)
  60:eeprom.c      ****     {
  61:eeprom.c      ****       /* Wait until SLA+W transmitted */
  62:eeprom.c      ****       /* Get new status */
  63:eeprom.c      ****       status = i2cCheckStatus();
  64:eeprom.c      **** 
  65:eeprom.c      ****       if(status == 0x18)
  66:eeprom.c      ****       {
  67:eeprom.c      ****         /* data transmitted and ACK received */
  68:eeprom.c      ****         burnEnd = TRUE;
  69:eeprom.c      ****       }
  70:eeprom.c      ****       else if(status == 0x20)
  71:eeprom.c      ****       {
  72:eeprom.c      ****         /* data transmitted and ACK not received */
  73:eeprom.c      ****         // send start bit, start again
  74:eeprom.c      ****         burnEnd = FALSE;
  75:eeprom.c      ****       }
  76:eeprom.c      ****       else if( status != 0xf8 )
  77:eeprom.c      ****       {
  78:eeprom.c      ****         /* error ---*/
  79:eeprom.c      ****         retCode = I2C_CODE_ERROR;
  80:eeprom.c      ****         burnEnd = TRUE;
  81:eeprom.c      ****       }
  82:eeprom.c      ****     }
  83:eeprom.c      **** 
  84:eeprom.c      ****     /* Generate Stop condition */
  85:eeprom.c      ****     i2cStop();
  86:eeprom.c      **** 
  87:eeprom.c      ****   } // end of while 
  88:eeprom.c      **** 
  89:eeprom.c      **** 
  90:eeprom.c      ****   return retCode;
  91:eeprom.c      **** 
  92:eeprom.c      **** }
ARM GAS  /cygdrive/c/DOCUME~1/mkwapisz/LOCALS~1/Temp/ccXrHZLf.s 			page 3


  93:eeprom.c      **** 
  94:eeprom.c      **** /******************************************************************************
  95:eeprom.c      ****  *
  96:eeprom.c      ****  * Description:
  97:eeprom.c      ****  *    Start a read
  98:eeprom.c      ****  *
  99:eeprom.c      ****  * Params:
 100:eeprom.c      ****  *    [in] devAddr - device address
 101:eeprom.c      ****  *    [in] address - eeprom address
 102:eeprom.c      ****  *
 103:eeprom.c      ****  * Returns:
 104:eeprom.c      ****  *    I2C_CODE_OK or I2C_CODE_ERROR
 105:eeprom.c      ****  *
 106:eeprom.c      ****  *****************************************************************************/
 107:eeprom.c      **** tS8 
 108:eeprom.c      **** eepromStartRead(tU8  devAddr, 
 109:eeprom.c      ****                 tU16 address)
 110:eeprom.c      **** {
 111:eeprom.c      ****   tS8 retCode = 0;
 112:eeprom.c      ****   tU8 status  = 0;
 113:eeprom.c      **** 
 114:eeprom.c      ****   /* Generate Start condition */
 115:eeprom.c      ****   retCode = i2cStart();
 116:eeprom.c      **** 
 117:eeprom.c      ****   /* Transmit address */
 118:eeprom.c      ****   if(retCode == I2C_CODE_OK )
 119:eeprom.c      ****   {
 120:eeprom.c      ****     /* Write SLA+W */
 121:eeprom.c      ****     retCode = i2cPutChar(devAddr);
 122:eeprom.c      ****     while( retCode == I2C_CODE_BUSY )
 123:eeprom.c      ****     {
 124:eeprom.c      ****       retCode = i2cPutChar( devAddr );
 125:eeprom.c      ****     }
 126:eeprom.c      ****   }
 127:eeprom.c      **** 
 128:eeprom.c      ****   if( retCode == I2C_CODE_OK )
 129:eeprom.c      ****   {
 130:eeprom.c      **** #if 0
 131:eeprom.c      ****     /* Wait until data transmitted */
 132:eeprom.c      ****     while(1)
 133:eeprom.c      ****     {
 134:eeprom.c      ****       /* Get new status */
 135:eeprom.c      ****       status = i2cCheckStatus();
 136:eeprom.c      **** 
 137:eeprom.c      ****       if( (status == 0x18) || (status == 0x28) )
 138:eeprom.c      ****       {
 139:eeprom.c      ****         /* Data transmitted and ACK received */
 140:eeprom.c      **** 
 141:eeprom.c      **** 
 142:eeprom.c      ****         /* Write data */
 143:eeprom.c      ****         retCode = i2cPutChar( (tU8)(address >> 8) );
 144:eeprom.c      ****         while(retCode == I2C_CODE_BUSY)
 145:eeprom.c      ****         {
 146:eeprom.c      ****           retCode = i2cPutChar( (tU8)(address >> 8) );
 147:eeprom.c      ****         }
 148:eeprom.c      ****         break;
 149:eeprom.c      ****       }
ARM GAS  /cygdrive/c/DOCUME~1/mkwapisz/LOCALS~1/Temp/ccXrHZLf.s 			page 4


 150:eeprom.c      ****       else if(status != 0xf8)
 151:eeprom.c      ****       {
 152:eeprom.c      ****         /* error */
 153:eeprom.c      ****         retCode = I2C_CODE_ERROR;
 154:eeprom.c      ****         break;
 155:eeprom.c      ****       }
 156:eeprom.c      ****     }
 157:eeprom.c      **** #endif
 158:eeprom.c      **** 
 159:eeprom.c      ****     if(retCode == I2C_CODE_OK)
 160:eeprom.c      ****     {
 161:eeprom.c      ****       /* Wait until data transmitted */
 162:eeprom.c      ****       while(1)
 163:eeprom.c      ****       {
 164:eeprom.c      ****         /* Get new status */
 165:eeprom.c      ****         status = i2cCheckStatus();
 166:eeprom.c      **** 
 167:eeprom.c      ****         if( (status == 0x18) || (status == 0x28) )
 168:eeprom.c      ****         {
 169:eeprom.c      ****           /* Data transmitted and ACK received */
 170:eeprom.c      **** 
 171:eeprom.c      **** 
 172:eeprom.c      ****           /* Write data */
 173:eeprom.c      ****           retCode = i2cPutChar( (tU8)(address & 0xff) );
 174:eeprom.c      ****           while( retCode == I2C_CODE_BUSY )
 175:eeprom.c      ****           {
 176:eeprom.c      ****             retCode = i2cPutChar( (tU8)(address & 0xff) );
 177:eeprom.c      ****           }
 178:eeprom.c      **** 
 179:eeprom.c      ****           break;
 180:eeprom.c      ****         }
 181:eeprom.c      ****         else if( status != 0xf8 )
 182:eeprom.c      ****         {
 183:eeprom.c      ****           /*  error */
 184:eeprom.c      ****           retCode = I2C_CODE_ERROR;
 185:eeprom.c      ****           break;
 186:eeprom.c      ****         }
 187:eeprom.c      ****       }
 188:eeprom.c      ****     }
 189:eeprom.c      ****   }
 190:eeprom.c      **** 
 191:eeprom.c      ****   /* Wait until data transmitted */
 192:eeprom.c      ****   while(1)
 193:eeprom.c      ****   {
 194:eeprom.c      ****     /* Get new status */
 195:eeprom.c      ****     status = i2cCheckStatus();
 196:eeprom.c      **** 
 197:eeprom.c      ****     if(status == 0x28)
 198:eeprom.c      ****     {
 199:eeprom.c      ****       /* Data transmitted and ACK received */
 200:eeprom.c      ****       break;
 201:eeprom.c      ****     }
 202:eeprom.c      ****     else if( status != 0xf8 )
 203:eeprom.c      ****     {
 204:eeprom.c      ****       /* error */
 205:eeprom.c      ****       retCode = I2C_CODE_ERROR;
 206:eeprom.c      ****       break;
ARM GAS  /cygdrive/c/DOCUME~1/mkwapisz/LOCALS~1/Temp/ccXrHZLf.s 			page 5


 207:eeprom.c      ****     }
 208:eeprom.c      ****   }
 209:eeprom.c      **** 
 210:eeprom.c      ****   /* Generate Start condition */
 211:eeprom.c      ****   retCode = i2cRepeatStart();
 212:eeprom.c      **** 
 213:eeprom.c      ****   /* Transmit device address */
 214:eeprom.c      ****   if( retCode == I2C_CODE_OK)
 215:eeprom.c      ****   {
 216:eeprom.c      ****     /* Write SLA+R */
 217:eeprom.c      ****     retCode = i2cPutChar( devAddr + 0x01 );
 218:eeprom.c      ****     while( retCode == I2C_CODE_BUSY )
 219:eeprom.c      ****     {
 220:eeprom.c      ****       retCode = i2cPutChar( devAddr + 0x01 );
 221:eeprom.c      ****     }
 222:eeprom.c      ****   }
 223:eeprom.c      **** 
 224:eeprom.c      ****   /* Wait until SLA+R transmitted */
 225:eeprom.c      ****   while(1)
 226:eeprom.c      ****   {
 227:eeprom.c      ****     /* Get new status */
 228:eeprom.c      ****     status = i2cCheckStatus();
 229:eeprom.c      **** 
 230:eeprom.c      ****     if(status == 0x40)
 231:eeprom.c      ****     {
 232:eeprom.c      ****       /* Data transmitted and ACK received */
 233:eeprom.c      ****       break;
 234:eeprom.c      ****     }
 235:eeprom.c      ****     else if(status != 0xf8)
 236:eeprom.c      ****     {
 237:eeprom.c      ****       /* error */
 238:eeprom.c      ****       retCode = I2C_CODE_ERROR;
 239:eeprom.c      ****       break;
 240:eeprom.c      ****     }
 241:eeprom.c      ****   }
 242:eeprom.c      **** 
 243:eeprom.c      ****   // Do not generate a stop bit
 244:eeprom.c      **** 
 245:eeprom.c      ****   return retCode;
 246:eeprom.c      **** }
 247:eeprom.c      **** 
 248:eeprom.c      **** //-------------------------------------------------------------
 249:eeprom.c      **** // Random Read followed by sequential read
 250:eeprom.c      **** //-------------------------------------------------------------
 251:eeprom.c      **** // Receive buffer:
 252:eeprom.c      **** // Byte 00: DeviceAddress R/Wn=0 (WRITE)
 253:eeprom.c      **** ////////// Byte 01: EEPROM Address MSB   (A14..A08)
 254:eeprom.c      **** // Byte 02: EEPROM Address LSB   (A07..A00)
 255:eeprom.c      **** // Byte 03: DeviceAddress R/Wn=1 (READ)
 256:eeprom.c      **** // Byte 04 to 67: Buffer for data read from EEPROM
 257:eeprom.c      **** //-------------------------------------------------------------
 258:eeprom.c      **** //  Parameters:
 259:eeprom.c      **** //      pRxData     A pointer to the receive buffer
 260:eeprom.c      **** //      Length      The number of data bytes to receive
 261:eeprom.c      **** //
 262:eeprom.c      **** //  Returns:
 263:eeprom.c      **** //      MA_OK or I2C status code
ARM GAS  /cygdrive/c/DOCUME~1/mkwapisz/LOCALS~1/Temp/ccXrHZLf.s 			page 6


 264:eeprom.c      **** //
 265:eeprom.c      **** //-------------------------------------------------------------
 266:eeprom.c      **** tS8 
 267:eeprom.c      **** eepromPageRead(tU16 address, 
 268:eeprom.c      ****                tU8* pBuf, 
 269:eeprom.c      ****                tU16 len) 
 270:eeprom.c      **** {
 271:eeprom.c      ****   tS8  retCode = 0;
 272:eeprom.c      ****   tU8  status  = 0;
 273:eeprom.c      ****   tU16 i       = 0;
 274:eeprom.c      **** 
 275:eeprom.c      ****   /* Write 4 bytes, see 24C256 Random Read */
 276:eeprom.c      ****   retCode = eepromStartRead(I2C_EEPROM_ADDR, address);
 277:eeprom.c      **** 
 278:eeprom.c      **** 
 279:eeprom.c      ****   if( retCode == I2C_CODE_OK )
 280:eeprom.c      ****   {
 281:eeprom.c      ****     /* wait until address transmitted and receive data */
 282:eeprom.c      ****     for(i = 1; i <= len; i++ )
 283:eeprom.c      ****     {
 284:eeprom.c      ****       /* wait until data transmitted */
 285:eeprom.c      ****       while(1)
 286:eeprom.c      ****       {
 287:eeprom.c      ****         /* Get new status */
 288:eeprom.c      ****         status = i2cCheckStatus();
 289:eeprom.c      **** 
 290:eeprom.c      ****         if(( status == 0x40 ) || ( status == 0x48 ) || ( status == 0x50 ))
 291:eeprom.c      ****         {
 292:eeprom.c      ****           /* Data received */
 293:eeprom.c      **** 
 294:eeprom.c      ****           if(i == len )
 295:eeprom.c      ****           {
 296:eeprom.c      ****             /* Set generate NACK */
 297:eeprom.c      ****             retCode = i2cGetChar( I2C_MODE_ACK1, pBuf );
 298:eeprom.c      ****           }
 299:eeprom.c      ****           else
 300:eeprom.c      ****           {
 301:eeprom.c      ****             retCode = i2cGetChar( I2C_MODE_ACK0, pBuf );
 302:eeprom.c      ****           }
 303:eeprom.c      **** 
 304:eeprom.c      ****           /* Read data */
 305:eeprom.c      ****           retCode = i2cGetChar( I2C_MODE_READ, pBuf );
 306:eeprom.c      ****           while( retCode == I2C_CODE_EMPTY )
 307:eeprom.c      ****           {
 308:eeprom.c      ****             retCode = i2cGetChar( I2C_MODE_READ, pBuf );
 309:eeprom.c      ****           }
 310:eeprom.c      ****           pBuf++;
 311:eeprom.c      **** 
 312:eeprom.c      ****           break;
 313:eeprom.c      ****         }
 314:eeprom.c      ****         else if( status != 0xf8 )
 315:eeprom.c      ****         {
 316:eeprom.c      ****           /* ERROR */
 317:eeprom.c      ****           i = len;
 318:eeprom.c      ****           retCode = I2C_CODE_ERROR;
 319:eeprom.c      ****           break;
 320:eeprom.c      ****         }
ARM GAS  /cygdrive/c/DOCUME~1/mkwapisz/LOCALS~1/Temp/ccXrHZLf.s 			page 7


 321:eeprom.c      ****       }
 322:eeprom.c      ****     }
 323:eeprom.c      ****   }
 324:eeprom.c      **** 
 325:eeprom.c      ****   /* Generate Stop condition */
 326:eeprom.c      ****   i2cStop();
 327:eeprom.c      **** 
 328:eeprom.c      ****   return retCode;
 329:eeprom.c      **** 
 330:eeprom.c      **** }
 331:eeprom.c      **** 
 332:eeprom.c      **** 
 333:eeprom.c      **** tS8
 334:eeprom.c      **** eepromWrite(tU16 addr,
 335:eeprom.c      ****             tU8* pData,
 336:eeprom.c      ****             tU16 len)
 337:eeprom.c      **** {
  19              		.loc 1 337 0
  20 0000 F0B5     		push	{r4, r5, r6, r7, lr}
  21              	.LCFI0:
  22              	.LVL0:
  23              		.loc 1 337 0
  24 0002 0004     		lsl	r0, r0, #16
  25              	.LVL1:
  26 0004 1204     		lsl	r2, r2, #16
  27              	.LVL2:
  28 0006 0F1C     		mov	r7, r1
  29 0008 050C     		lsr	r5, r0, #16
  30              	.LVL3:
  31 000a 160C     		lsr	r6, r2, #16
  32              	.LVL4:
 338:eeprom.c      ****   tS8 retCode = 0;
 339:eeprom.c      ****   tU8 status  = 0;
 340:eeprom.c      ****   tU8 i       = 0;
 341:eeprom.c      **** 
 342:eeprom.c      ****   do
 343:eeprom.c      ****   {
 344:eeprom.c      **** 
 345:eeprom.c      ****     /* generate Start condition */
 346:eeprom.c      ****     retCode = i2cStart();
  33              		.loc 1 346 0
  34 000c FFF7FEFF 		bl	i2cStart
  35              	.LVL5:
  36 0010 0006     		lsl	r0, r0, #24
 347:eeprom.c      ****     if(retCode != I2C_CODE_OK)
  37              		.loc 1 347 0
  38 0012 040E     		lsr	r4, r0, #24
  39              	.LVL6:
  40 0014 0016     		asr	r0, r0, #24
  41 0016 0128     		cmp	r0, #1
  42 0018 20D1     		bne	.L2
 348:eeprom.c      ****       break;
 349:eeprom.c      **** 
 350:eeprom.c      **** 
 351:eeprom.c      ****     /* write EEPROM I2C address */
 352:eeprom.c      ****     retCode = i2cWriteWithWait(I2C_EEPROM_ADDR);
  43              		.loc 1 352 0
ARM GAS  /cygdrive/c/DOCUME~1/mkwapisz/LOCALS~1/Temp/ccXrHZLf.s 			page 8


  44 001a A020     		mov	r0, #160
  45 001c FFF7FEFF 		bl	i2cWriteWithWait
  46 0020 0006     		lsl	r0, r0, #24
 353:eeprom.c      ****     if(retCode != I2C_CODE_OK)
  47              		.loc 1 353 0
  48 0022 040E     		lsr	r4, r0, #24
  49 0024 0016     		asr	r0, r0, #24
  50 0026 0128     		cmp	r0, #1
  51 0028 18D1     		bne	.L2
 354:eeprom.c      ****       break;
 355:eeprom.c      **** 
 356:eeprom.c      **** #if 0
 357:eeprom.c      ****     /* write offset high in EEPROM space  */
 358:eeprom.c      ****     retCode = i2cWriteWithWait( (tU8)(addr >> 8));
 359:eeprom.c      ****     if(retCode != I2C_CODE_OK)
 360:eeprom.c      ****       break;
 361:eeprom.c      **** #endif
 362:eeprom.c      **** 
 363:eeprom.c      ****     /* write offset low in EEPROM space  */
 364:eeprom.c      ****     retCode = i2cWriteWithWait( (tU8)(addr & 0xFF));
  52              		.loc 1 364 0
  53 002a 2806     		lsl	r0, r5, #24
  54 002c 000E     		lsr	r0, r0, #24
  55 002e FFF7FEFF 		bl	i2cWriteWithWait
  56 0032 0006     		lsl	r0, r0, #24
 365:eeprom.c      ****     if(retCode != I2C_CODE_OK)
  57              		.loc 1 365 0
  58 0034 040E     		lsr	r4, r0, #24
  59 0036 0016     		asr	r0, r0, #24
  60 0038 0128     		cmp	r0, #1
  61 003a 0FD1     		bne	.L2
 366:eeprom.c      ****       break;
  62              		.loc 1 366 0
  63 003c 0025     		mov	r5, #0
  64              	.LVL7:
  65 003e 09E0     		b	.L6
  66              	.L7:
 367:eeprom.c      **** 
 368:eeprom.c      **** 
 369:eeprom.c      ****     /* write data */
 370:eeprom.c      ****     for(i = 0; i <len; i++)
 371:eeprom.c      ****     {
 372:eeprom.c      ****       retCode = i2cWriteWithWait(*pData);
  67              		.loc 1 372 0
  68 0040 E85D     		ldrb	r0, [r5, r7]
  69 0042 FFF7FEFF 		bl	i2cWriteWithWait
 373:eeprom.c      ****       if(retCode != I2C_CODE_OK)
  70              		.loc 1 373 0
  71 0046 0006     		lsl	r0, r0, #24
  72 0048 0316     		asr	r3, r0, #24
  73              		.loc 1 372 0
  74 004a 0135     		add	r5, r5, #1
  75              		.loc 1 373 0
  76 004c 012B     		cmp	r3, #1
  77 004e 01D0     		beq	.L6
  78 0050 040E     		lsr	r4, r0, #24
  79 0052 03E0     		b	.L2
ARM GAS  /cygdrive/c/DOCUME~1/mkwapisz/LOCALS~1/Temp/ccXrHZLf.s 			page 9


  80              	.L6:
  81              		.loc 1 370 0
  82 0054 2B06     		lsl	r3, r5, #24
  83 0056 1B0E     		lsr	r3, r3, #24
  84 0058 B342     		cmp	r3, r6
  85 005a F1D3     		bcc	.L7
  86              	.LVL8:
  87              	.L2:
 374:eeprom.c      ****         break;
 375:eeprom.c      **** 
 376:eeprom.c      ****       pData++;
 377:eeprom.c      ****     }
 378:eeprom.c      **** 
 379:eeprom.c      ****   } while(0);
 380:eeprom.c      **** 
 381:eeprom.c      ****   /* generate Stop condition */
 382:eeprom.c      ****   i2cStop();
  88              		.loc 1 382 0
  89 005c FFF7FEFF 		bl	i2cStop
  90 0060 2006     		lsl	r0, r4, #24
  91 0062 0016     		asr	r0, r0, #24
 383:eeprom.c      **** 
 384:eeprom.c      **** 
 385:eeprom.c      ****   return retCode;
 386:eeprom.c      **** }
  92              		.loc 1 386 0
  93              		@ sp needed for prologue
  94              	.LVL9:
  95              	.LVL10:
  96              	.LVL11:
  97              	.LVL12:
  98 0064 F0BC     		pop	{r4, r5, r6, r7}
  99 0066 02BC     		pop	{r1}
 100 0068 0847     		bx	r1
 101              	.LFE5:
 102              		.size	eepromWrite, .-eepromWrite
 103 006a 0000     		.align	2
 104              		.global	eepromPoll
 105              		.code 16
 106              		.thumb_func
 107              		.type	eepromPoll, %function
 108              	eepromPoll:
 109              	.LFB2:
 110              		.loc 1 38 0
 111 006c 10B5     		push	{r4, lr}
 112              	.LCFI1:
 113              	.LVL13:
 114              	.L13:
 115              		.loc 1 46 0
 116 006e FFF7FEFF 		bl	i2cStart
 117              		.loc 1 49 0
 118 0072 0006     		lsl	r0, r0, #24
 119 0074 0016     		asr	r0, r0, #24
 120 0076 0128     		cmp	r0, #1
 121 0078 12D1     		bne	.L14
 122              	.L17:
 123              		.loc 1 55 0
ARM GAS  /cygdrive/c/DOCUME~1/mkwapisz/LOCALS~1/Temp/ccXrHZLf.s 			page 10


 124 007a A020     		mov	r0, #160
 125 007c FFF7FEFF 		bl	i2cPutChar
 126 0080 0006     		lsl	r0, r0, #24
 127 0082 040E     		lsr	r4, r0, #24
 128              		.loc 1 53 0
 129 0084 2306     		lsl	r3, r4, #24
 130 0086 1B16     		asr	r3, r3, #24
 131 0088 1A1D     		add	r2, r3, #4
 132 008a F6D0     		beq	.L17
 133              		.loc 1 59 0
 134 008c 012B     		cmp	r3, #1
 135 008e 07D1     		bne	.L14
 136              		.loc 1 63 0
 137 0090 FFF7FEFF 		bl	i2cCheckStatus
 138              		.loc 1 65 0
 139 0094 1828     		cmp	r0, #24
 140 0096 07D0     		beq	.L20
 141              		.loc 1 70 0
 142 0098 2028     		cmp	r0, #32
 143 009a 01D0     		beq	.L14
 144              		.loc 1 76 0
 145 009c F828     		cmp	r0, #248
 146 009e 02D1     		bne	.L23
 147              	.L14:
 148              		.loc 1 85 0
 149 00a0 FFF7FEFF 		bl	i2cStop
 150 00a4 E3E7     		b	.L13
 151              	.L23:
 152              		.loc 1 43 0
 153 00a6 FF24     		mov	r4, #255
 154              	.L20:
 155              		.loc 1 85 0
 156 00a8 FFF7FEFF 		bl	i2cStop
 157 00ac 2006     		lsl	r0, r4, #24
 158 00ae 0016     		asr	r0, r0, #24
 159              		.loc 1 92 0
 160              		@ sp needed for prologue
 161              	.LVL14:
 162 00b0 10BC     		pop	{r4}
 163 00b2 02BC     		pop	{r1}
 164 00b4 0847     		bx	r1
 165              	.LFE2:
 166              		.size	eepromPoll, .-eepromPoll
 167 00b6 0000     		.align	2
 168              		.global	eepromStartRead
 169              		.code 16
 170              		.thumb_func
 171              		.type	eepromStartRead, %function
 172              	eepromStartRead:
 173              	.LFB3:
 174              		.loc 1 110 0
 175 00b8 30B5     		push	{r4, r5, lr}
 176              	.LCFI2:
 177              	.LVL15:
 178              		.loc 1 110 0
 179 00ba 0006     		lsl	r0, r0, #24
 180              	.LVL16:
ARM GAS  /cygdrive/c/DOCUME~1/mkwapisz/LOCALS~1/Temp/ccXrHZLf.s 			page 11


 181 00bc 0904     		lsl	r1, r1, #16
 182              	.LVL17:
 183 00be 050E     		lsr	r5, r0, #24
 184              	.LVL18:
 185 00c0 0C0C     		lsr	r4, r1, #16
 186              	.LVL19:
 187              		.loc 1 115 0
 188 00c2 FFF7FEFF 		bl	i2cStart
 189              		.loc 1 118 0
 190 00c6 0006     		lsl	r0, r0, #24
 191 00c8 0016     		asr	r0, r0, #24
 192 00ca 0128     		cmp	r0, #1
 193 00cc 1CD1     		bne	.L48
 194              	.L29:
 195              		.loc 1 124 0
 196 00ce 281C     		mov	r0, r5
 197 00d0 FFF7FEFF 		bl	i2cPutChar
 198 00d4 0006     		lsl	r0, r0, #24
 199 00d6 000E     		lsr	r0, r0, #24
 200              	.LVL20:
 201              		.loc 1 122 0
 202 00d8 0306     		lsl	r3, r0, #24
 203 00da 1816     		asr	r0, r3, #24
 204              	.LVL21:
 205 00dc 031D     		add	r3, r0, #4
 206 00de F6D0     		beq	.L29
 207              		.loc 1 128 0
 208 00e0 0128     		cmp	r0, #1
 209 00e2 11D1     		bne	.L48
 210              	.LVL22:
 211              	.L47:
 212              		.loc 1 165 0
 213 00e4 FFF7FEFF 		bl	i2cCheckStatus
 214              	.LVL23:
 215              	.LVL24:
 216              		.loc 1 167 0
 217 00e8 1828     		cmp	r0, #24
 218 00ea 01D0     		beq	.L32
 219 00ec 2828     		cmp	r0, #40
 220 00ee 09D1     		bne	.L34
 221              	.L32:
 222              		.loc 1 173 0
 223 00f0 2306     		lsl	r3, r4, #24
 224 00f2 1C0E     		lsr	r4, r3, #24
 225              	.LVL25:
 226              	.L36:
 227              		.loc 1 176 0
 228 00f4 201C     		mov	r0, r4
 229              	.LVL26:
 230 00f6 FFF7FEFF 		bl	i2cPutChar
 231 00fa 0006     		lsl	r0, r0, #24
 232 00fc 000E     		lsr	r0, r0, #24
 233              	.LVL27:
 234              		.loc 1 174 0
 235 00fe FC28     		cmp	r0, #252
 236 0100 F8D0     		beq	.L36
 237 0102 01E0     		b	.L48
ARM GAS  /cygdrive/c/DOCUME~1/mkwapisz/LOCALS~1/Temp/ccXrHZLf.s 			page 12


 238              	.LVL28:
 239              	.L34:
 240              		.loc 1 181 0
 241 0104 F828     		cmp	r0, #248
 242 0106 EDD0     		beq	.L47
 243              	.LVL29:
 244              	.L48:
 245              		.loc 1 195 0
 246 0108 FFF7FEFF 		bl	i2cCheckStatus
 247              	.LVL30:
 248              		.loc 1 197 0
 249 010c 2828     		cmp	r0, #40
 250 010e 01D0     		beq	.L37
 251              		.loc 1 202 0
 252 0110 F828     		cmp	r0, #248
 253 0112 F9D0     		beq	.L48
 254              	.L37:
 255              		.loc 1 211 0
 256 0114 FFF7FEFF 		bl	i2cRepeatStart
 257 0118 0006     		lsl	r0, r0, #24
 258              		.loc 1 214 0
 259 011a 040E     		lsr	r4, r0, #24
 260              	.LVL31:
 261 011c 0016     		asr	r0, r0, #24
 262 011e 0128     		cmp	r0, #1
 263 0120 09D1     		bne	.L49
 264              		.loc 1 217 0
 265 0122 6B1C     		add	r3, r5, #1
 266 0124 1B06     		lsl	r3, r3, #24
 267 0126 1D0E     		lsr	r5, r3, #24
 268              	.LVL32:
 269              	.L42:
 270              		.loc 1 220 0
 271 0128 281C     		mov	r0, r5
 272 012a FFF7FEFF 		bl	i2cPutChar
 273 012e 0006     		lsl	r0, r0, #24
 274 0130 040E     		lsr	r4, r0, #24
 275              		.loc 1 218 0
 276 0132 FC2C     		cmp	r4, #252
 277 0134 F8D0     		beq	.L42
 278              	.LVL33:
 279              	.L49:
 280              		.loc 1 228 0
 281 0136 FFF7FEFF 		bl	i2cCheckStatus
 282              		.loc 1 230 0
 283 013a 4028     		cmp	r0, #64
 284 013c 02D0     		beq	.L43
 285              		.loc 1 235 0
 286 013e F828     		cmp	r0, #248
 287 0140 F9D0     		beq	.L49
 288 0142 FF24     		mov	r4, #255
 289              	.L43:
 290 0144 2006     		lsl	r0, r4, #24
 291 0146 0016     		asr	r0, r0, #24
 292              		.loc 1 246 0
 293              		@ sp needed for prologue
 294              	.LVL34:
ARM GAS  /cygdrive/c/DOCUME~1/mkwapisz/LOCALS~1/Temp/ccXrHZLf.s 			page 13


 295              	.LVL35:
 296 0148 30BC     		pop	{r4, r5}
 297 014a 02BC     		pop	{r1}
 298 014c 0847     		bx	r1
 299              	.LFE3:
 300              		.size	eepromStartRead, .-eepromStartRead
 301 014e 0000     		.align	2
 302              		.global	lm75Read
 303              		.code 16
 304              		.thumb_func
 305              		.type	lm75Read, %function
 306              	lm75Read:
 307              	.LFB6:
 387:eeprom.c      **** 
 388:eeprom.c      **** 
 389:eeprom.c      **** tS8 
 390:eeprom.c      **** lm75Read(tU8 address, tU8* pBuf, tU16 len) 
 391:eeprom.c      **** {
 308              		.loc 1 391 0
 309 0150 F0B5     		push	{r4, r5, r6, r7, lr}
 310              	.LCFI3:
 311              	.LVL36:
 312              		.loc 1 391 0
 313 0152 0006     		lsl	r0, r0, #24
 314              	.LVL37:
 315 0154 1204     		lsl	r2, r2, #16
 316              	.LVL38:
 317 0156 0D1C     		mov	r5, r1
 318 0158 000E     		lsr	r0, r0, #24
 319              	.LVL39:
 392:eeprom.c      ****   tS8  retCode = 0;
 393:eeprom.c      ****   tU8  status  = 0;
 394:eeprom.c      ****   tU16 i       = 0;
 395:eeprom.c      **** 
 396:eeprom.c      ****   retCode = eepromStartRead(address, 0);
 320              		.loc 1 396 0
 321 015a 0021     		mov	r1, #0
 322              	.LVL40:
 323              		.loc 1 391 0
 324 015c 160C     		lsr	r6, r2, #16
 325              	.LVL41:
 326              		.loc 1 396 0
 327 015e FFF7FEFF 		bl	eepromStartRead
 328              	.LVL42:
 329 0162 0006     		lsl	r0, r0, #24
 397:eeprom.c      **** 
 398:eeprom.c      **** 
 399:eeprom.c      ****   if( retCode == I2C_CODE_OK )
 330              		.loc 1 399 0
 331 0164 040E     		lsr	r4, r0, #24
 332              	.LVL43:
 333 0166 0016     		asr	r0, r0, #24
 334 0168 0128     		cmp	r0, #1
 335 016a 24D1     		bne	.L55
 336 016c 0127     		mov	r7, #1
 337              	.LVL44:
 338 016e 20E0     		b	.L57
ARM GAS  /cygdrive/c/DOCUME~1/mkwapisz/LOCALS~1/Temp/ccXrHZLf.s 			page 14


 339              	.LVL45:
 340              	.L72:
 400:eeprom.c      ****   {
 401:eeprom.c      ****     /* wait until address transmitted and receive data */
 402:eeprom.c      ****     for(i = 1; i <= len; i++ )
 403:eeprom.c      ****     {
 404:eeprom.c      ****       /* wait until data transmitted */
 405:eeprom.c      ****       while(1)
 406:eeprom.c      ****       {
 407:eeprom.c      ****         /* Get new status */
 408:eeprom.c      ****         status = i2cCheckStatus();
 341              		.loc 1 408 0
 342 0170 FFF7FEFF 		bl	i2cCheckStatus
 343              	.LVL46:
 344              	.LVL47:
 409:eeprom.c      **** 
 410:eeprom.c      ****         if(( status == 0x40 ) || ( status == 0x48 ) || ( status == 0x50 ))
 345              		.loc 1 410 0
 346 0174 4028     		cmp	r0, #64
 347 0176 03D0     		beq	.L59
 348 0178 4828     		cmp	r0, #72
 349 017a 01D0     		beq	.L59
 350 017c 5028     		cmp	r0, #80
 351 017e 11D1     		bne	.L62
 352              	.L59:
 411:eeprom.c      ****         {
 412:eeprom.c      ****           /* Data received */
 413:eeprom.c      **** 
 414:eeprom.c      ****           if(i == len )
 353              		.loc 1 414 0
 354 0180 B742     		cmp	r7, r6
 355 0182 01D1     		bne	.L63
 415:eeprom.c      ****           {
 416:eeprom.c      ****             /* Set generate NACK */
 417:eeprom.c      ****             retCode = i2cGetChar( I2C_MODE_ACK1, pBuf );
 356              		.loc 1 417 0
 357 0184 0120     		mov	r0, #1
 358              	.LVL48:
 359 0186 00E0     		b	.L75
 360              	.LVL49:
 361              	.L63:
 418:eeprom.c      ****           }
 419:eeprom.c      ****           else
 420:eeprom.c      ****           {
 421:eeprom.c      ****             retCode = i2cGetChar( I2C_MODE_ACK0, pBuf );
 362              		.loc 1 421 0
 363 0188 0020     		mov	r0, #0
 364              	.LVL50:
 365              	.L75:
 366 018a 291C     		mov	r1, r5
 367 018c FFF7FEFF 		bl	i2cGetChar
 368              	.L67:
 422:eeprom.c      ****           }
 423:eeprom.c      **** 
 424:eeprom.c      ****           /* Read data */
 425:eeprom.c      ****           retCode = i2cGetChar( I2C_MODE_READ, pBuf );
 426:eeprom.c      ****           while( retCode == I2C_CODE_EMPTY )
ARM GAS  /cygdrive/c/DOCUME~1/mkwapisz/LOCALS~1/Temp/ccXrHZLf.s 			page 15


 427:eeprom.c      ****           {
 428:eeprom.c      ****             retCode = i2cGetChar( I2C_MODE_READ, pBuf );
 369              		.loc 1 428 0
 370 0190 0220     		mov	r0, #2
 371 0192 291C     		mov	r1, r5
 372 0194 FFF7FEFF 		bl	i2cGetChar
 373 0198 0006     		lsl	r0, r0, #24
 374 019a 040E     		lsr	r4, r0, #24
 375              		.loc 1 426 0
 376 019c FD2C     		cmp	r4, #253
 377 019e F7D0     		beq	.L67
 429:eeprom.c      ****           }
 430:eeprom.c      ****           pBuf++;
 378              		.loc 1 430 0
 379 01a0 0135     		add	r5, r5, #1
 380 01a2 03E0     		b	.L69
 381              	.LVL51:
 382              	.L62:
 431:eeprom.c      **** 
 432:eeprom.c      ****           break;
 433:eeprom.c      ****         }
 434:eeprom.c      ****         else if( status != 0xf8 )
 383              		.loc 1 434 0
 384 01a4 F828     		cmp	r0, #248
 385 01a6 E3D0     		beq	.L72
 386 01a8 371C     		mov	r7, r6
 387 01aa FF24     		mov	r4, #255
 388              	.L69:
 389              		.loc 1 402 0
 390 01ac 7B1C     		add	r3, r7, #1
 391 01ae 1B04     		lsl	r3, r3, #16
 392 01b0 1F0C     		lsr	r7, r3, #16
 393              	.L57:
 394 01b2 B742     		cmp	r7, r6
 395 01b4 DCD9     		bls	.L72
 396              	.L55:
 435:eeprom.c      ****         {
 436:eeprom.c      ****           /* ERROR */
 437:eeprom.c      ****           i = len;
 438:eeprom.c      ****           retCode = I2C_CODE_ERROR;
 439:eeprom.c      ****           break;
 440:eeprom.c      ****         }
 441:eeprom.c      ****       }
 442:eeprom.c      ****     }
 443:eeprom.c      ****   }
 444:eeprom.c      **** 
 445:eeprom.c      ****   /* Generate Stop condition */
 446:eeprom.c      ****   i2cStop();
 397              		.loc 1 446 0
 398 01b6 FFF7FEFF 		bl	i2cStop
 399              	.LVL52:
 400 01ba 2006     		lsl	r0, r4, #24
 401 01bc 0016     		asr	r0, r0, #24
 447:eeprom.c      **** 
 448:eeprom.c      ****   return retCode;
 449:eeprom.c      **** 
 450:eeprom.c      **** }
ARM GAS  /cygdrive/c/DOCUME~1/mkwapisz/LOCALS~1/Temp/ccXrHZLf.s 			page 16


 402              		.loc 1 450 0
 403              		@ sp needed for prologue
 404              	.LVL53:
 405              	.LVL54:
 406              	.LVL55:
 407              	.LVL56:
 408 01be F0BC     		pop	{r4, r5, r6, r7}
 409 01c0 02BC     		pop	{r1}
 410 01c2 0847     		bx	r1
 411              	.LFE6:
 412              		.size	lm75Read, .-lm75Read
 413              		.align	2
 414              		.global	eepromPageRead
 415              		.code 16
 416              		.thumb_func
 417              		.type	eepromPageRead, %function
 418              	eepromPageRead:
 419              	.LFB4:
 420              		.loc 1 270 0
 421 01c4 F0B5     		push	{r4, r5, r6, r7, lr}
 422              	.LCFI4:
 423              	.LVL57:
 424              		.loc 1 270 0
 425 01c6 0304     		lsl	r3, r0, #16
 426 01c8 1B0C     		lsr	r3, r3, #16
 427 01ca 1204     		lsl	r2, r2, #16
 428              	.LVL58:
 429 01cc 0D1C     		mov	r5, r1
 430              		.loc 1 276 0
 431 01ce A020     		mov	r0, #160
 432              	.LVL59:
 433 01d0 191C     		mov	r1, r3
 434              	.LVL60:
 435              		.loc 1 270 0
 436 01d2 160C     		lsr	r6, r2, #16
 437              	.LVL61:
 438              		.loc 1 276 0
 439 01d4 FFF7FEFF 		bl	eepromStartRead
 440              	.LVL62:
 441 01d8 0006     		lsl	r0, r0, #24
 442              		.loc 1 279 0
 443 01da 040E     		lsr	r4, r0, #24
 444              	.LVL63:
 445 01dc 0016     		asr	r0, r0, #24
 446 01de 0128     		cmp	r0, #1
 447 01e0 24D1     		bne	.L77
 448 01e2 0127     		mov	r7, #1
 449              	.LVL64:
 450 01e4 20E0     		b	.L79
 451              	.LVL65:
 452              	.L94:
 453              		.loc 1 288 0
 454 01e6 FFF7FEFF 		bl	i2cCheckStatus
 455              	.LVL66:
 456              	.LVL67:
 457              		.loc 1 290 0
 458 01ea 4028     		cmp	r0, #64
ARM GAS  /cygdrive/c/DOCUME~1/mkwapisz/LOCALS~1/Temp/ccXrHZLf.s 			page 17


 459 01ec 03D0     		beq	.L81
 460 01ee 4828     		cmp	r0, #72
 461 01f0 01D0     		beq	.L81
 462 01f2 5028     		cmp	r0, #80
 463 01f4 11D1     		bne	.L84
 464              	.L81:
 465              		.loc 1 294 0
 466 01f6 B742     		cmp	r7, r6
 467 01f8 01D1     		bne	.L85
 468              		.loc 1 297 0
 469 01fa 0120     		mov	r0, #1
 470              	.LVL68:
 471 01fc 00E0     		b	.L97
 472              	.LVL69:
 473              	.L85:
 474              		.loc 1 301 0
 475 01fe 0020     		mov	r0, #0
 476              	.LVL70:
 477              	.L97:
 478 0200 291C     		mov	r1, r5
 479 0202 FFF7FEFF 		bl	i2cGetChar
 480              	.L89:
 481              		.loc 1 308 0
 482 0206 0220     		mov	r0, #2
 483 0208 291C     		mov	r1, r5
 484 020a FFF7FEFF 		bl	i2cGetChar
 485 020e 0006     		lsl	r0, r0, #24
 486 0210 040E     		lsr	r4, r0, #24
 487              		.loc 1 306 0
 488 0212 FD2C     		cmp	r4, #253
 489 0214 F7D0     		beq	.L89
 490              		.loc 1 310 0
 491 0216 0135     		add	r5, r5, #1
 492 0218 03E0     		b	.L91
 493              	.LVL71:
 494              	.L84:
 495              		.loc 1 314 0
 496 021a F828     		cmp	r0, #248
 497 021c E3D0     		beq	.L94
 498 021e 371C     		mov	r7, r6
 499 0220 FF24     		mov	r4, #255
 500              	.L91:
 501              		.loc 1 282 0
 502 0222 7B1C     		add	r3, r7, #1
 503 0224 1B04     		lsl	r3, r3, #16
 504 0226 1F0C     		lsr	r7, r3, #16
 505              	.L79:
 506 0228 B742     		cmp	r7, r6
 507 022a DCD9     		bls	.L94
 508              	.L77:
 509              		.loc 1 326 0
 510 022c FFF7FEFF 		bl	i2cStop
 511              	.LVL72:
 512 0230 2006     		lsl	r0, r4, #24
 513 0232 0016     		asr	r0, r0, #24
 514              		.loc 1 330 0
 515              		@ sp needed for prologue
ARM GAS  /cygdrive/c/DOCUME~1/mkwapisz/LOCALS~1/Temp/ccXrHZLf.s 			page 18


 516              	.LVL73:
 517              	.LVL74:
 518              	.LVL75:
 519              	.LVL76:
 520 0234 F0BC     		pop	{r4, r5, r6, r7}
 521 0236 02BC     		pop	{r1}
 522 0238 0847     		bx	r1
 523              	.LFE4:
 524              		.size	eepromPageRead, .-eepromPageRead
 525              		.section	.debug_frame,"",%progbits
 526              	.Lframe0:
 527 0000 0C000000 		.4byte	.LECIE0-.LSCIE0
 528              	.LSCIE0:
 529 0004 FFFFFFFF 		.4byte	0xffffffff
 530 0008 01       		.byte	0x1
 531 0009 00       		.ascii	"\000"
 532 000a 01       		.uleb128 0x1
 533 000b 7C       		.sleb128 -4
 534 000c 0E       		.byte	0xe
 535 000d 0C       		.byte	0xc
 536 000e 0D       		.uleb128 0xd
 537 000f 00       		.uleb128 0x0
 538              		.align	2
 539              	.LECIE0:
 540              	.LSFDE0:
 541 0010 1C000000 		.4byte	.LEFDE0-.LASFDE0
 542              	.LASFDE0:
 543 0014 00000000 		.4byte	.Lframe0
 544 0018 00000000 		.4byte	.LFB5
 545 001c 6A000000 		.4byte	.LFE5-.LFB5
 546 0020 42       		.byte	0x4
 547              		.4byte	.LCFI0-.LFB5
 548 0021 0E       		.byte	0xe
 549 0022 14       		.uleb128 0x14
 550 0023 84       		.byte	0x84
 551 0024 05       		.uleb128 0x5
 552 0025 85       		.byte	0x85
 553 0026 04       		.uleb128 0x4
 554 0027 86       		.byte	0x86
 555 0028 03       		.uleb128 0x3
 556 0029 87       		.byte	0x87
 557 002a 02       		.uleb128 0x2
 558 002b 8E       		.byte	0x8e
 559 002c 01       		.uleb128 0x1
 560 002d 000000   		.align	2
 561              	.LEFDE0:
 562              	.LSFDE2:
 563 0030 14000000 		.4byte	.LEFDE2-.LASFDE2
 564              	.LASFDE2:
 565 0034 00000000 		.4byte	.Lframe0
 566 0038 6C000000 		.4byte	.LFB2
 567 003c 4A000000 		.4byte	.LFE2-.LFB2
 568 0040 42       		.byte	0x4
 569              		.4byte	.LCFI1-.LFB2
 570 0041 0E       		.byte	0xe
 571 0042 08       		.uleb128 0x8
 572 0043 84       		.byte	0x84
ARM GAS  /cygdrive/c/DOCUME~1/mkwapisz/LOCALS~1/Temp/ccXrHZLf.s 			page 19


 573 0044 02       		.uleb128 0x2
 574 0045 8E       		.byte	0x8e
 575 0046 01       		.uleb128 0x1
 576 0047 00       		.align	2
 577              	.LEFDE2:
 578              	.LSFDE4:
 579 0048 18000000 		.4byte	.LEFDE4-.LASFDE4
 580              	.LASFDE4:
 581 004c 00000000 		.4byte	.Lframe0
 582 0050 B8000000 		.4byte	.LFB3
 583 0054 96000000 		.4byte	.LFE3-.LFB3
 584 0058 42       		.byte	0x4
 585              		.4byte	.LCFI2-.LFB3
 586 0059 0E       		.byte	0xe
 587 005a 0C       		.uleb128 0xc
 588 005b 84       		.byte	0x84
 589 005c 03       		.uleb128 0x3
 590 005d 85       		.byte	0x85
 591 005e 02       		.uleb128 0x2
 592 005f 8E       		.byte	0x8e
 593 0060 01       		.uleb128 0x1
 594 0061 000000   		.align	2
 595              	.LEFDE4:
 596              	.LSFDE6:
 597 0064 1C000000 		.4byte	.LEFDE6-.LASFDE6
 598              	.LASFDE6:
 599 0068 00000000 		.4byte	.Lframe0
 600 006c 50010000 		.4byte	.LFB6
 601 0070 74000000 		.4byte	.LFE6-.LFB6
 602 0074 42       		.byte	0x4
 603              		.4byte	.LCFI3-.LFB6
 604 0075 0E       		.byte	0xe
 605 0076 14       		.uleb128 0x14
 606 0077 84       		.byte	0x84
 607 0078 05       		.uleb128 0x5
 608 0079 85       		.byte	0x85
 609 007a 04       		.uleb128 0x4
 610 007b 86       		.byte	0x86
 611 007c 03       		.uleb128 0x3
 612 007d 87       		.byte	0x87
 613 007e 02       		.uleb128 0x2
 614 007f 8E       		.byte	0x8e
 615 0080 01       		.uleb128 0x1
 616 0081 000000   		.align	2
 617              	.LEFDE6:
 618              	.LSFDE8:
 619 0084 1C000000 		.4byte	.LEFDE8-.LASFDE8
 620              	.LASFDE8:
 621 0088 00000000 		.4byte	.Lframe0
 622 008c C4010000 		.4byte	.LFB4
 623 0090 76000000 		.4byte	.LFE4-.LFB4
 624 0094 42       		.byte	0x4
 625              		.4byte	.LCFI4-.LFB4
 626 0095 0E       		.byte	0xe
 627 0096 14       		.uleb128 0x14
 628 0097 84       		.byte	0x84
 629 0098 05       		.uleb128 0x5
ARM GAS  /cygdrive/c/DOCUME~1/mkwapisz/LOCALS~1/Temp/ccXrHZLf.s 			page 20


 630 0099 85       		.byte	0x85
 631 009a 04       		.uleb128 0x4
 632 009b 86       		.byte	0x86
 633 009c 03       		.uleb128 0x3
 634 009d 87       		.byte	0x87
 635 009e 02       		.uleb128 0x2
 636 009f 8E       		.byte	0x8e
 637 00a0 01       		.uleb128 0x1
 638 00a1 000000   		.align	2
 639              	.LEFDE8:
 640              		.file 2 "../pre_emptive_os/api/general.h"
 641              		.text
 642              	.Letext0:
 643 023a C046     		.section	.debug_loc,"",%progbits
 644              	.Ldebug_loc0:
 645              	.LLST0:
 646 0000 00000000 		.4byte	.LFB5-.Ltext0
 647 0004 02000000 		.4byte	.LCFI0-.Ltext0
 648 0008 0100     		.2byte	0x1
 649 000a 5D       		.byte	0x5d
 650 000b 02000000 		.4byte	.LCFI0-.Ltext0
 651 000f 6A000000 		.4byte	.LFE5-.Ltext0
 652 0013 0200     		.2byte	0x2
 653 0015 7D       		.byte	0x7d
 654 0016 14       		.sleb128 20
 655 0017 00000000 		.4byte	0x0
 656 001b 00000000 		.4byte	0x0
 657              	.LLST1:
 658 001f 02000000 		.4byte	.LVL0-.Ltext0
 659 0023 04000000 		.4byte	.LVL1-.Ltext0
 660 0027 0100     		.2byte	0x1
 661 0029 50       		.byte	0x50
 662 002a 0A000000 		.4byte	.LVL3-.Ltext0
 663 002e 3E000000 		.4byte	.LVL7-.Ltext0
 664 0032 0100     		.2byte	0x1
 665 0034 55       		.byte	0x55
 666 0035 5C000000 		.4byte	.LVL8-.Ltext0
 667 0039 64000000 		.4byte	.LVL10-.Ltext0
 668 003d 0100     		.2byte	0x1
 669 003f 55       		.byte	0x55
 670 0040 00000000 		.4byte	0x0
 671 0044 00000000 		.4byte	0x0
 672              	.LLST2:
 673 0048 02000000 		.4byte	.LVL0-.Ltext0
 674 004c 10000000 		.4byte	.LVL5-.Ltext0
 675 0050 0100     		.2byte	0x1
 676 0052 51       		.byte	0x51
 677 0053 10000000 		.4byte	.LVL5-.Ltext0
 678 0057 64000000 		.4byte	.LVL12-.Ltext0
 679 005b 0100     		.2byte	0x1
 680 005d 57       		.byte	0x57
 681 005e 00000000 		.4byte	0x0
 682 0062 00000000 		.4byte	0x0
 683              	.LLST3:
 684 0066 02000000 		.4byte	.LVL0-.Ltext0
 685 006a 06000000 		.4byte	.LVL2-.Ltext0
 686 006e 0100     		.2byte	0x1
ARM GAS  /cygdrive/c/DOCUME~1/mkwapisz/LOCALS~1/Temp/ccXrHZLf.s 			page 21


 687 0070 52       		.byte	0x52
 688 0071 0C000000 		.4byte	.LVL4-.Ltext0
 689 0075 64000000 		.4byte	.LVL11-.Ltext0
 690 0079 0100     		.2byte	0x1
 691 007b 56       		.byte	0x56
 692 007c 00000000 		.4byte	0x0
 693 0080 00000000 		.4byte	0x0
 694              	.LLST4:
 695 0084 14000000 		.4byte	.LVL6-.Ltext0
 696 0088 64000000 		.4byte	.LVL9-.Ltext0
 697 008c 0100     		.2byte	0x1
 698 008e 54       		.byte	0x54
 699 008f 00000000 		.4byte	0x0
 700 0093 00000000 		.4byte	0x0
 701              	.LLST5:
 702 0097 6C000000 		.4byte	.LFB2-.Ltext0
 703 009b 6E000000 		.4byte	.LCFI1-.Ltext0
 704 009f 0100     		.2byte	0x1
 705 00a1 5D       		.byte	0x5d
 706 00a2 6E000000 		.4byte	.LCFI1-.Ltext0
 707 00a6 B6000000 		.4byte	.LFE2-.Ltext0
 708 00aa 0200     		.2byte	0x2
 709 00ac 7D       		.byte	0x7d
 710 00ad 08       		.sleb128 8
 711 00ae 00000000 		.4byte	0x0
 712 00b2 00000000 		.4byte	0x0
 713              	.LLST6:
 714 00b6 6E000000 		.4byte	.LVL13-.Ltext0
 715 00ba B0000000 		.4byte	.LVL14-.Ltext0
 716 00be 0100     		.2byte	0x1
 717 00c0 54       		.byte	0x54
 718 00c1 00000000 		.4byte	0x0
 719 00c5 00000000 		.4byte	0x0
 720              	.LLST7:
 721 00c9 B8000000 		.4byte	.LFB3-.Ltext0
 722 00cd BA000000 		.4byte	.LCFI2-.Ltext0
 723 00d1 0100     		.2byte	0x1
 724 00d3 5D       		.byte	0x5d
 725 00d4 BA000000 		.4byte	.LCFI2-.Ltext0
 726 00d8 4E010000 		.4byte	.LFE3-.Ltext0
 727 00dc 0200     		.2byte	0x2
 728 00de 7D       		.byte	0x7d
 729 00df 0C       		.sleb128 12
 730 00e0 00000000 		.4byte	0x0
 731 00e4 00000000 		.4byte	0x0
 732              	.LLST8:
 733 00e8 BA000000 		.4byte	.LVL15-.Ltext0
 734 00ec BC000000 		.4byte	.LVL16-.Ltext0
 735 00f0 0100     		.2byte	0x1
 736 00f2 50       		.byte	0x50
 737 00f3 C0000000 		.4byte	.LVL18-.Ltext0
 738 00f7 28010000 		.4byte	.LVL32-.Ltext0
 739 00fb 0100     		.2byte	0x1
 740 00fd 55       		.byte	0x55
 741 00fe 36010000 		.4byte	.LVL33-.Ltext0
 742 0102 48010000 		.4byte	.LVL35-.Ltext0
 743 0106 0100     		.2byte	0x1
ARM GAS  /cygdrive/c/DOCUME~1/mkwapisz/LOCALS~1/Temp/ccXrHZLf.s 			page 22


 744 0108 55       		.byte	0x55
 745 0109 00000000 		.4byte	0x0
 746 010d 00000000 		.4byte	0x0
 747              	.LLST9:
 748 0111 BA000000 		.4byte	.LVL15-.Ltext0
 749 0115 BE000000 		.4byte	.LVL17-.Ltext0
 750 0119 0100     		.2byte	0x1
 751 011b 51       		.byte	0x51
 752 011c C2000000 		.4byte	.LVL19-.Ltext0
 753 0120 F4000000 		.4byte	.LVL25-.Ltext0
 754 0124 0100     		.2byte	0x1
 755 0126 54       		.byte	0x54
 756 0127 04010000 		.4byte	.LVL28-.Ltext0
 757 012b 1C010000 		.4byte	.LVL31-.Ltext0
 758 012f 0100     		.2byte	0x1
 759 0131 54       		.byte	0x54
 760 0132 00000000 		.4byte	0x0
 761 0136 00000000 		.4byte	0x0
 762              	.LLST10:
 763 013a D8000000 		.4byte	.LVL20-.Ltext0
 764 013e DC000000 		.4byte	.LVL21-.Ltext0
 765 0142 0100     		.2byte	0x1
 766 0144 50       		.byte	0x50
 767 0145 FE000000 		.4byte	.LVL27-.Ltext0
 768 0149 04010000 		.4byte	.LVL28-.Ltext0
 769 014d 0100     		.2byte	0x1
 770 014f 50       		.byte	0x50
 771 0150 08010000 		.4byte	.LVL29-.Ltext0
 772 0154 0C010000 		.4byte	.LVL30-.Ltext0
 773 0158 0100     		.2byte	0x1
 774 015a 50       		.byte	0x50
 775 015b 1C010000 		.4byte	.LVL31-.Ltext0
 776 015f 48010000 		.4byte	.LVL34-.Ltext0
 777 0163 0100     		.2byte	0x1
 778 0165 54       		.byte	0x54
 779 0166 00000000 		.4byte	0x0
 780 016a 00000000 		.4byte	0x0
 781              	.LLST11:
 782 016e E4000000 		.4byte	.LVL22-.Ltext0
 783 0172 E8000000 		.4byte	.LVL23-.Ltext0
 784 0176 0100     		.2byte	0x1
 785 0178 50       		.byte	0x50
 786 0179 E8000000 		.4byte	.LVL24-.Ltext0
 787 017d F6000000 		.4byte	.LVL26-.Ltext0
 788 0181 0100     		.2byte	0x1
 789 0183 50       		.byte	0x50
 790 0184 04010000 		.4byte	.LVL28-.Ltext0
 791 0188 0C010000 		.4byte	.LVL30-.Ltext0
 792 018c 0100     		.2byte	0x1
 793 018e 50       		.byte	0x50
 794 018f 00000000 		.4byte	0x0
 795 0193 00000000 		.4byte	0x0
 796              	.LLST12:
 797 0197 50010000 		.4byte	.LFB6-.Ltext0
 798 019b 52010000 		.4byte	.LCFI3-.Ltext0
 799 019f 0100     		.2byte	0x1
 800 01a1 5D       		.byte	0x5d
ARM GAS  /cygdrive/c/DOCUME~1/mkwapisz/LOCALS~1/Temp/ccXrHZLf.s 			page 23


 801 01a2 52010000 		.4byte	.LCFI3-.Ltext0
 802 01a6 C4010000 		.4byte	.LFE6-.Ltext0
 803 01aa 0200     		.2byte	0x2
 804 01ac 7D       		.byte	0x7d
 805 01ad 14       		.sleb128 20
 806 01ae 00000000 		.4byte	0x0
 807 01b2 00000000 		.4byte	0x0
 808              	.LLST13:
 809 01b6 52010000 		.4byte	.LVL36-.Ltext0
 810 01ba 54010000 		.4byte	.LVL37-.Ltext0
 811 01be 0100     		.2byte	0x1
 812 01c0 50       		.byte	0x50
 813 01c1 5A010000 		.4byte	.LVL39-.Ltext0
 814 01c5 62010000 		.4byte	.LVL42-.Ltext0
 815 01c9 0100     		.2byte	0x1
 816 01cb 50       		.byte	0x50
 817 01cc 00000000 		.4byte	0x0
 818 01d0 00000000 		.4byte	0x0
 819              	.LLST14:
 820 01d4 52010000 		.4byte	.LVL36-.Ltext0
 821 01d8 5C010000 		.4byte	.LVL40-.Ltext0
 822 01dc 0100     		.2byte	0x1
 823 01de 51       		.byte	0x51
 824 01df 5C010000 		.4byte	.LVL40-.Ltext0
 825 01e3 BE010000 		.4byte	.LVL54-.Ltext0
 826 01e7 0100     		.2byte	0x1
 827 01e9 55       		.byte	0x55
 828 01ea 00000000 		.4byte	0x0
 829 01ee 00000000 		.4byte	0x0
 830              	.LLST15:
 831 01f2 52010000 		.4byte	.LVL36-.Ltext0
 832 01f6 56010000 		.4byte	.LVL38-.Ltext0
 833 01fa 0100     		.2byte	0x1
 834 01fc 52       		.byte	0x52
 835 01fd 5E010000 		.4byte	.LVL41-.Ltext0
 836 0201 BE010000 		.4byte	.LVL55-.Ltext0
 837 0205 0100     		.2byte	0x1
 838 0207 56       		.byte	0x56
 839 0208 00000000 		.4byte	0x0
 840 020c 00000000 		.4byte	0x0
 841              	.LLST16:
 842 0210 66010000 		.4byte	.LVL43-.Ltext0
 843 0214 BE010000 		.4byte	.LVL53-.Ltext0
 844 0218 0100     		.2byte	0x1
 845 021a 54       		.byte	0x54
 846 021b 00000000 		.4byte	0x0
 847 021f 00000000 		.4byte	0x0
 848              	.LLST17:
 849 0223 70010000 		.4byte	.LVL45-.Ltext0
 850 0227 74010000 		.4byte	.LVL46-.Ltext0
 851 022b 0100     		.2byte	0x1
 852 022d 50       		.byte	0x50
 853 022e 74010000 		.4byte	.LVL47-.Ltext0
 854 0232 86010000 		.4byte	.LVL48-.Ltext0
 855 0236 0100     		.2byte	0x1
 856 0238 50       		.byte	0x50
 857 0239 88010000 		.4byte	.LVL49-.Ltext0
ARM GAS  /cygdrive/c/DOCUME~1/mkwapisz/LOCALS~1/Temp/ccXrHZLf.s 			page 24


 858 023d 8A010000 		.4byte	.LVL50-.Ltext0
 859 0241 0100     		.2byte	0x1
 860 0243 50       		.byte	0x50
 861 0244 A4010000 		.4byte	.LVL51-.Ltext0
 862 0248 BA010000 		.4byte	.LVL52-.Ltext0
 863 024c 0100     		.2byte	0x1
 864 024e 50       		.byte	0x50
 865 024f 00000000 		.4byte	0x0
 866 0253 00000000 		.4byte	0x0
 867              	.LLST18:
 868 0257 6E010000 		.4byte	.LVL44-.Ltext0
 869 025b BE010000 		.4byte	.LVL56-.Ltext0
 870 025f 0100     		.2byte	0x1
 871 0261 57       		.byte	0x57
 872 0262 00000000 		.4byte	0x0
 873 0266 00000000 		.4byte	0x0
 874              	.LLST19:
 875 026a C4010000 		.4byte	.LFB4-.Ltext0
 876 026e C6010000 		.4byte	.LCFI4-.Ltext0
 877 0272 0100     		.2byte	0x1
 878 0274 5D       		.byte	0x5d
 879 0275 C6010000 		.4byte	.LCFI4-.Ltext0
 880 0279 3A020000 		.4byte	.LFE4-.Ltext0
 881 027d 0200     		.2byte	0x2
 882 027f 7D       		.byte	0x7d
 883 0280 14       		.sleb128 20
 884 0281 00000000 		.4byte	0x0
 885 0285 00000000 		.4byte	0x0
 886              	.LLST20:
 887 0289 C6010000 		.4byte	.LVL57-.Ltext0
 888 028d D0010000 		.4byte	.LVL59-.Ltext0
 889 0291 0100     		.2byte	0x1
 890 0293 50       		.byte	0x50
 891 0294 D0010000 		.4byte	.LVL59-.Ltext0
 892 0298 D8010000 		.4byte	.LVL62-.Ltext0
 893 029c 0100     		.2byte	0x1
 894 029e 53       		.byte	0x53
 895 029f 00000000 		.4byte	0x0
 896 02a3 00000000 		.4byte	0x0
 897              	.LLST21:
 898 02a7 C6010000 		.4byte	.LVL57-.Ltext0
 899 02ab D2010000 		.4byte	.LVL60-.Ltext0
 900 02af 0100     		.2byte	0x1
 901 02b1 51       		.byte	0x51
 902 02b2 D2010000 		.4byte	.LVL60-.Ltext0
 903 02b6 34020000 		.4byte	.LVL74-.Ltext0
 904 02ba 0100     		.2byte	0x1
 905 02bc 55       		.byte	0x55
 906 02bd 00000000 		.4byte	0x0
 907 02c1 00000000 		.4byte	0x0
 908              	.LLST22:
 909 02c5 C6010000 		.4byte	.LVL57-.Ltext0
 910 02c9 CC010000 		.4byte	.LVL58-.Ltext0
 911 02cd 0100     		.2byte	0x1
 912 02cf 52       		.byte	0x52
 913 02d0 D4010000 		.4byte	.LVL61-.Ltext0
 914 02d4 34020000 		.4byte	.LVL75-.Ltext0
ARM GAS  /cygdrive/c/DOCUME~1/mkwapisz/LOCALS~1/Temp/ccXrHZLf.s 			page 25


 915 02d8 0100     		.2byte	0x1
 916 02da 56       		.byte	0x56
 917 02db 00000000 		.4byte	0x0
 918 02df 00000000 		.4byte	0x0
 919              	.LLST23:
 920 02e3 DC010000 		.4byte	.LVL63-.Ltext0
 921 02e7 34020000 		.4byte	.LVL73-.Ltext0
 922 02eb 0100     		.2byte	0x1
 923 02ed 54       		.byte	0x54
 924 02ee 00000000 		.4byte	0x0
 925 02f2 00000000 		.4byte	0x0
 926              	.LLST24:
 927 02f6 E6010000 		.4byte	.LVL65-.Ltext0
 928 02fa EA010000 		.4byte	.LVL66-.Ltext0
 929 02fe 0100     		.2byte	0x1
 930 0300 50       		.byte	0x50
 931 0301 EA010000 		.4byte	.LVL67-.Ltext0
 932 0305 FC010000 		.4byte	.LVL68-.Ltext0
 933 0309 0100     		.2byte	0x1
 934 030b 50       		.byte	0x50
 935 030c FE010000 		.4byte	.LVL69-.Ltext0
 936 0310 00020000 		.4byte	.LVL70-.Ltext0
 937 0314 0100     		.2byte	0x1
 938 0316 50       		.byte	0x50
 939 0317 1A020000 		.4byte	.LVL71-.Ltext0
 940 031b 30020000 		.4byte	.LVL72-.Ltext0
 941 031f 0100     		.2byte	0x1
 942 0321 50       		.byte	0x50
 943 0322 00000000 		.4byte	0x0
 944 0326 00000000 		.4byte	0x0
 945              	.LLST25:
 946 032a E4010000 		.4byte	.LVL64-.Ltext0
 947 032e 34020000 		.4byte	.LVL76-.Ltext0
 948 0332 0100     		.2byte	0x1
 949 0334 57       		.byte	0x57
 950 0335 00000000 		.4byte	0x0
 951 0339 00000000 		.4byte	0x0
 952              		.section	.debug_info
 953 0000 86020000 		.4byte	0x286
 954 0004 0200     		.2byte	0x2
 955 0006 00000000 		.4byte	.Ldebug_abbrev0
 956 000a 04       		.byte	0x4
 957 000b 01       		.uleb128 0x1
 958 000c 00000000 		.4byte	.Ldebug_line0
 959 0010 3A020000 		.4byte	.Letext0
 960 0014 00000000 		.4byte	.Ltext0
 961 0018 D3000000 		.4byte	.LASF19
 962 001c 01       		.byte	0x1
 963 001d CA000000 		.4byte	.LASF20
 964 0021 46000000 		.4byte	.LASF21
 965 0025 02       		.uleb128 0x2
 966 0026 74553800 		.ascii	"tU8\000"
 967 002a 02       		.byte	0x2
 968 002b 47       		.byte	0x47
 969 002c 30000000 		.4byte	0x30
 970 0030 03       		.uleb128 0x3
 971 0031 AC000000 		.4byte	.LASF1
ARM GAS  /cygdrive/c/DOCUME~1/mkwapisz/LOCALS~1/Temp/ccXrHZLf.s 			page 26


 972 0035 01       		.byte	0x1
 973 0036 08       		.byte	0x8
 974 0037 04       		.uleb128 0x4
 975 0038 18010000 		.4byte	.LASF0
 976 003c 02       		.byte	0x2
 977 003d 48       		.byte	0x48
 978 003e 42000000 		.4byte	0x42
 979 0042 03       		.uleb128 0x3
 980 0043 EE000000 		.4byte	.LASF2
 981 0047 02       		.byte	0x2
 982 0048 07       		.byte	0x7
 983 0049 03       		.uleb128 0x3
 984 004a 00000000 		.4byte	.LASF3
 985 004e 04       		.byte	0x4
 986 004f 07       		.byte	0x7
 987 0050 02       		.uleb128 0x2
 988 0051 74533800 		.ascii	"tS8\000"
 989 0055 02       		.byte	0x2
 990 0056 4A       		.byte	0x4a
 991 0057 5B000000 		.4byte	0x5b
 992 005b 03       		.uleb128 0x3
 993 005c 01010000 		.4byte	.LASF4
 994 0060 01       		.byte	0x1
 995 0061 06       		.byte	0x6
 996 0062 03       		.uleb128 0x3
 997 0063 2B010000 		.4byte	.LASF5
 998 0067 02       		.byte	0x2
 999 0068 05       		.byte	0x5
 1000 0069 05       		.uleb128 0x5
 1001 006a 696E7400 		.ascii	"int\000"
 1002 006e 04       		.byte	0x4
 1003 006f 05       		.byte	0x5
 1004 0070 04       		.uleb128 0x4
 1005 0071 25010000 		.4byte	.LASF6
 1006 0075 02       		.byte	0x2
 1007 0076 4D       		.byte	0x4d
 1008 0077 30000000 		.4byte	0x30
 1009 007b 06       		.uleb128 0x6
 1010 007c F0000000 		.4byte	0xf0
 1011 0080 01       		.byte	0x1
 1012 0081 0D000000 		.4byte	.LASF11
 1013 0085 01       		.byte	0x1
 1014 0086 5101     		.2byte	0x151
 1015 0088 01       		.byte	0x1
 1016 0089 50000000 		.4byte	0x50
 1017 008d 00000000 		.4byte	.LFB5
 1018 0091 6A000000 		.4byte	.LFE5
 1019 0095 00000000 		.4byte	.LLST0
 1020 0099 07       		.uleb128 0x7
 1021 009a 41000000 		.4byte	.LASF7
 1022 009e 01       		.byte	0x1
 1023 009f 4E01     		.2byte	0x14e
 1024 00a1 37000000 		.4byte	0x37
 1025 00a5 1F000000 		.4byte	.LLST1
 1026 00a9 07       		.uleb128 0x7
 1027 00aa 35010000 		.4byte	.LASF8
 1028 00ae 01       		.byte	0x1
ARM GAS  /cygdrive/c/DOCUME~1/mkwapisz/LOCALS~1/Temp/ccXrHZLf.s 			page 27


 1029 00af 4F01     		.2byte	0x14f
 1030 00b1 F0000000 		.4byte	0xf0
 1031 00b5 48000000 		.4byte	.LLST2
 1032 00b9 08       		.uleb128 0x8
 1033 00ba 6C656E00 		.ascii	"len\000"
 1034 00be 01       		.byte	0x1
 1035 00bf 5001     		.2byte	0x150
 1036 00c1 37000000 		.4byte	0x37
 1037 00c5 66000000 		.4byte	.LLST3
 1038 00c9 09       		.uleb128 0x9
 1039 00ca 19000000 		.4byte	.LASF9
 1040 00ce 01       		.byte	0x1
 1041 00cf 5201     		.2byte	0x152
 1042 00d1 50000000 		.4byte	0x50
 1043 00d5 84000000 		.4byte	.LLST4
 1044 00d9 0A       		.uleb128 0xa
 1045 00da 2A000000 		.4byte	.LASF10
 1046 00de 01       		.byte	0x1
 1047 00df 5301     		.2byte	0x153
 1048 00e1 25000000 		.4byte	0x25
 1049 00e5 0B       		.uleb128 0xb
 1050 00e6 6900     		.ascii	"i\000"
 1051 00e8 01       		.byte	0x1
 1052 00e9 5401     		.2byte	0x154
 1053 00eb 25000000 		.4byte	0x25
 1054 00ef 00       		.byte	0x0
 1055 00f0 0C       		.uleb128 0xc
 1056 00f1 04       		.byte	0x4
 1057 00f2 25000000 		.4byte	0x25
 1058 00f6 0D       		.uleb128 0xd
 1059 00f7 39010000 		.4byte	0x139
 1060 00fb 01       		.byte	0x1
 1061 00fc 0D010000 		.4byte	.LASF12
 1062 0100 01       		.byte	0x1
 1063 0101 26       		.byte	0x26
 1064 0102 01       		.byte	0x1
 1065 0103 50000000 		.4byte	0x50
 1066 0107 6C000000 		.4byte	.LFB2
 1067 010b B6000000 		.4byte	.LFE2
 1068 010f 97000000 		.4byte	.LLST5
 1069 0113 0E       		.uleb128 0xe
 1070 0114 19000000 		.4byte	.LASF9
 1071 0118 01       		.byte	0x1
 1072 0119 27       		.byte	0x27
 1073 011a 50000000 		.4byte	0x50
 1074 011e B6000000 		.4byte	.LLST6
 1075 0122 0F       		.uleb128 0xf
 1076 0123 2A000000 		.4byte	.LASF10
 1077 0127 01       		.byte	0x1
 1078 0128 28       		.byte	0x28
 1079 0129 25000000 		.4byte	0x25
 1080 012d 0F       		.uleb128 0xf
 1081 012e 1D010000 		.4byte	.LASF13
 1082 0132 01       		.byte	0x1
 1083 0133 29       		.byte	0x29
 1084 0134 70000000 		.4byte	0x70
 1085 0138 00       		.byte	0x0
ARM GAS  /cygdrive/c/DOCUME~1/mkwapisz/LOCALS~1/Temp/ccXrHZLf.s 			page 28


 1086 0139 0D       		.uleb128 0xd
 1087 013a 93010000 		.4byte	0x193
 1088 013e 01       		.byte	0x1
 1089 013f BA000000 		.4byte	.LASF14
 1090 0143 01       		.byte	0x1
 1091 0144 6E       		.byte	0x6e
 1092 0145 01       		.byte	0x1
 1093 0146 50000000 		.4byte	0x50
 1094 014a B8000000 		.4byte	.LFB3
 1095 014e 4E010000 		.4byte	.LFE3
 1096 0152 C9000000 		.4byte	.LLST7
 1097 0156 10       		.uleb128 0x10
 1098 0157 39000000 		.4byte	.LASF15
 1099 015b 01       		.byte	0x1
 1100 015c 6C       		.byte	0x6c
 1101 015d 25000000 		.4byte	0x25
 1102 0161 E8000000 		.4byte	.LLST8
 1103 0165 10       		.uleb128 0x10
 1104 0166 31000000 		.4byte	.LASF16
 1105 016a 01       		.byte	0x1
 1106 016b 6D       		.byte	0x6d
 1107 016c 37000000 		.4byte	0x37
 1108 0170 11010000 		.4byte	.LLST9
 1109 0174 0E       		.uleb128 0xe
 1110 0175 19000000 		.4byte	.LASF9
 1111 0179 01       		.byte	0x1
 1112 017a 6F       		.byte	0x6f
 1113 017b 50000000 		.4byte	0x50
 1114 017f 3A010000 		.4byte	.LLST10
 1115 0183 0E       		.uleb128 0xe
 1116 0184 2A000000 		.4byte	.LASF10
 1117 0188 01       		.byte	0x1
 1118 0189 70       		.byte	0x70
 1119 018a 25000000 		.4byte	0x25
 1120 018e 6E010000 		.4byte	.LLST11
 1121 0192 00       		.byte	0x0
 1122 0193 06       		.uleb128 0x6
 1123 0194 10020000 		.4byte	0x210
 1124 0198 01       		.byte	0x1
 1125 0199 21000000 		.4byte	.LASF17
 1126 019d 01       		.byte	0x1
 1127 019e 8701     		.2byte	0x187
 1128 01a0 01       		.byte	0x1
 1129 01a1 50000000 		.4byte	0x50
 1130 01a5 50010000 		.4byte	.LFB6
 1131 01a9 C4010000 		.4byte	.LFE6
 1132 01ad 97010000 		.4byte	.LLST12
 1133 01b1 07       		.uleb128 0x7
 1134 01b2 31000000 		.4byte	.LASF16
 1135 01b6 01       		.byte	0x1
 1136 01b7 8601     		.2byte	0x186
 1137 01b9 25000000 		.4byte	0x25
 1138 01bd B6010000 		.4byte	.LLST13
 1139 01c1 07       		.uleb128 0x7
 1140 01c2 A7000000 		.4byte	.LASF18
 1141 01c6 01       		.byte	0x1
 1142 01c7 8601     		.2byte	0x186
ARM GAS  /cygdrive/c/DOCUME~1/mkwapisz/LOCALS~1/Temp/ccXrHZLf.s 			page 29


 1143 01c9 F0000000 		.4byte	0xf0
 1144 01cd D4010000 		.4byte	.LLST14
 1145 01d1 08       		.uleb128 0x8
 1146 01d2 6C656E00 		.ascii	"len\000"
 1147 01d6 01       		.byte	0x1
 1148 01d7 8601     		.2byte	0x186
 1149 01d9 37000000 		.4byte	0x37
 1150 01dd F2010000 		.4byte	.LLST15
 1151 01e1 09       		.uleb128 0x9
 1152 01e2 19000000 		.4byte	.LASF9
 1153 01e6 01       		.byte	0x1
 1154 01e7 8801     		.2byte	0x188
 1155 01e9 50000000 		.4byte	0x50
 1156 01ed 10020000 		.4byte	.LLST16
 1157 01f1 09       		.uleb128 0x9
 1158 01f2 2A000000 		.4byte	.LASF10
 1159 01f6 01       		.byte	0x1
 1160 01f7 8901     		.2byte	0x189
 1161 01f9 25000000 		.4byte	0x25
 1162 01fd 23020000 		.4byte	.LLST17
 1163 0201 11       		.uleb128 0x11
 1164 0202 6900     		.ascii	"i\000"
 1165 0204 01       		.byte	0x1
 1166 0205 8A01     		.2byte	0x18a
 1167 0207 37000000 		.4byte	0x37
 1168 020b 57020000 		.4byte	.LLST18
 1169 020f 00       		.byte	0x0
 1170 0210 12       		.uleb128 0x12
 1171 0211 01       		.byte	0x1
 1172 0212 DF000000 		.4byte	.LASF22
 1173 0216 01       		.byte	0x1
 1174 0217 0E01     		.2byte	0x10e
 1175 0219 01       		.byte	0x1
 1176 021a 50000000 		.4byte	0x50
 1177 021e C4010000 		.4byte	.LFB4
 1178 0222 3A020000 		.4byte	.LFE4
 1179 0226 6A020000 		.4byte	.LLST19
 1180 022a 07       		.uleb128 0x7
 1181 022b 31000000 		.4byte	.LASF16
 1182 022f 01       		.byte	0x1
 1183 0230 0B01     		.2byte	0x10b
 1184 0232 37000000 		.4byte	0x37
 1185 0236 89020000 		.4byte	.LLST20
 1186 023a 07       		.uleb128 0x7
 1187 023b A7000000 		.4byte	.LASF18
 1188 023f 01       		.byte	0x1
 1189 0240 0C01     		.2byte	0x10c
 1190 0242 F0000000 		.4byte	0xf0
 1191 0246 A7020000 		.4byte	.LLST21
 1192 024a 08       		.uleb128 0x8
 1193 024b 6C656E00 		.ascii	"len\000"
 1194 024f 01       		.byte	0x1
 1195 0250 0D01     		.2byte	0x10d
 1196 0252 37000000 		.4byte	0x37
 1197 0256 C5020000 		.4byte	.LLST22
 1198 025a 09       		.uleb128 0x9
 1199 025b 19000000 		.4byte	.LASF9
ARM GAS  /cygdrive/c/DOCUME~1/mkwapisz/LOCALS~1/Temp/ccXrHZLf.s 			page 30


 1200 025f 01       		.byte	0x1
 1201 0260 0F01     		.2byte	0x10f
 1202 0262 50000000 		.4byte	0x50
 1203 0266 E3020000 		.4byte	.LLST23
 1204 026a 09       		.uleb128 0x9
 1205 026b 2A000000 		.4byte	.LASF10
 1206 026f 01       		.byte	0x1
 1207 0270 1001     		.2byte	0x110
 1208 0272 25000000 		.4byte	0x25
 1209 0276 F6020000 		.4byte	.LLST24
 1210 027a 11       		.uleb128 0x11
 1211 027b 6900     		.ascii	"i\000"
 1212 027d 01       		.byte	0x1
 1213 027e 1101     		.2byte	0x111
 1214 0280 37000000 		.4byte	0x37
 1215 0284 2A030000 		.4byte	.LLST25
 1216 0288 00       		.byte	0x0
 1217 0289 00       		.byte	0x0
 1218              		.section	.debug_abbrev
 1219 0000 01       		.uleb128 0x1
 1220 0001 11       		.uleb128 0x11
 1221 0002 01       		.byte	0x1
 1222 0003 10       		.uleb128 0x10
 1223 0004 06       		.uleb128 0x6
 1224 0005 12       		.uleb128 0x12
 1225 0006 01       		.uleb128 0x1
 1226 0007 11       		.uleb128 0x11
 1227 0008 01       		.uleb128 0x1
 1228 0009 25       		.uleb128 0x25
 1229 000a 0E       		.uleb128 0xe
 1230 000b 13       		.uleb128 0x13
 1231 000c 0B       		.uleb128 0xb
 1232 000d 03       		.uleb128 0x3
 1233 000e 0E       		.uleb128 0xe
 1234 000f 1B       		.uleb128 0x1b
 1235 0010 0E       		.uleb128 0xe
 1236 0011 00       		.byte	0x0
 1237 0012 00       		.byte	0x0
 1238 0013 02       		.uleb128 0x2
 1239 0014 16       		.uleb128 0x16
 1240 0015 00       		.byte	0x0
 1241 0016 03       		.uleb128 0x3
 1242 0017 08       		.uleb128 0x8
 1243 0018 3A       		.uleb128 0x3a
 1244 0019 0B       		.uleb128 0xb
 1245 001a 3B       		.uleb128 0x3b
 1246 001b 0B       		.uleb128 0xb
 1247 001c 49       		.uleb128 0x49
 1248 001d 13       		.uleb128 0x13
 1249 001e 00       		.byte	0x0
 1250 001f 00       		.byte	0x0
 1251 0020 03       		.uleb128 0x3
 1252 0021 24       		.uleb128 0x24
 1253 0022 00       		.byte	0x0
 1254 0023 03       		.uleb128 0x3
 1255 0024 0E       		.uleb128 0xe
 1256 0025 0B       		.uleb128 0xb
ARM GAS  /cygdrive/c/DOCUME~1/mkwapisz/LOCALS~1/Temp/ccXrHZLf.s 			page 31


 1257 0026 0B       		.uleb128 0xb
 1258 0027 3E       		.uleb128 0x3e
 1259 0028 0B       		.uleb128 0xb
 1260 0029 00       		.byte	0x0
 1261 002a 00       		.byte	0x0
 1262 002b 04       		.uleb128 0x4
 1263 002c 16       		.uleb128 0x16
 1264 002d 00       		.byte	0x0
 1265 002e 03       		.uleb128 0x3
 1266 002f 0E       		.uleb128 0xe
 1267 0030 3A       		.uleb128 0x3a
 1268 0031 0B       		.uleb128 0xb
 1269 0032 3B       		.uleb128 0x3b
 1270 0033 0B       		.uleb128 0xb
 1271 0034 49       		.uleb128 0x49
 1272 0035 13       		.uleb128 0x13
 1273 0036 00       		.byte	0x0
 1274 0037 00       		.byte	0x0
 1275 0038 05       		.uleb128 0x5
 1276 0039 24       		.uleb128 0x24
 1277 003a 00       		.byte	0x0
 1278 003b 03       		.uleb128 0x3
 1279 003c 08       		.uleb128 0x8
 1280 003d 0B       		.uleb128 0xb
 1281 003e 0B       		.uleb128 0xb
 1282 003f 3E       		.uleb128 0x3e
 1283 0040 0B       		.uleb128 0xb
 1284 0041 00       		.byte	0x0
 1285 0042 00       		.byte	0x0
 1286 0043 06       		.uleb128 0x6
 1287 0044 2E       		.uleb128 0x2e
 1288 0045 01       		.byte	0x1
 1289 0046 01       		.uleb128 0x1
 1290 0047 13       		.uleb128 0x13
 1291 0048 3F       		.uleb128 0x3f
 1292 0049 0C       		.uleb128 0xc
 1293 004a 03       		.uleb128 0x3
 1294 004b 0E       		.uleb128 0xe
 1295 004c 3A       		.uleb128 0x3a
 1296 004d 0B       		.uleb128 0xb
 1297 004e 3B       		.uleb128 0x3b
 1298 004f 05       		.uleb128 0x5
 1299 0050 27       		.uleb128 0x27
 1300 0051 0C       		.uleb128 0xc
 1301 0052 49       		.uleb128 0x49
 1302 0053 13       		.uleb128 0x13
 1303 0054 11       		.uleb128 0x11
 1304 0055 01       		.uleb128 0x1
 1305 0056 12       		.uleb128 0x12
 1306 0057 01       		.uleb128 0x1
 1307 0058 40       		.uleb128 0x40
 1308 0059 06       		.uleb128 0x6
 1309 005a 00       		.byte	0x0
 1310 005b 00       		.byte	0x0
 1311 005c 07       		.uleb128 0x7
 1312 005d 05       		.uleb128 0x5
 1313 005e 00       		.byte	0x0
ARM GAS  /cygdrive/c/DOCUME~1/mkwapisz/LOCALS~1/Temp/ccXrHZLf.s 			page 32


 1314 005f 03       		.uleb128 0x3
 1315 0060 0E       		.uleb128 0xe
 1316 0061 3A       		.uleb128 0x3a
 1317 0062 0B       		.uleb128 0xb
 1318 0063 3B       		.uleb128 0x3b
 1319 0064 05       		.uleb128 0x5
 1320 0065 49       		.uleb128 0x49
 1321 0066 13       		.uleb128 0x13
 1322 0067 02       		.uleb128 0x2
 1323 0068 06       		.uleb128 0x6
 1324 0069 00       		.byte	0x0
 1325 006a 00       		.byte	0x0
 1326 006b 08       		.uleb128 0x8
 1327 006c 05       		.uleb128 0x5
 1328 006d 00       		.byte	0x0
 1329 006e 03       		.uleb128 0x3
 1330 006f 08       		.uleb128 0x8
 1331 0070 3A       		.uleb128 0x3a
 1332 0071 0B       		.uleb128 0xb
 1333 0072 3B       		.uleb128 0x3b
 1334 0073 05       		.uleb128 0x5
 1335 0074 49       		.uleb128 0x49
 1336 0075 13       		.uleb128 0x13
 1337 0076 02       		.uleb128 0x2
 1338 0077 06       		.uleb128 0x6
 1339 0078 00       		.byte	0x0
 1340 0079 00       		.byte	0x0
 1341 007a 09       		.uleb128 0x9
 1342 007b 34       		.uleb128 0x34
 1343 007c 00       		.byte	0x0
 1344 007d 03       		.uleb128 0x3
 1345 007e 0E       		.uleb128 0xe
 1346 007f 3A       		.uleb128 0x3a
 1347 0080 0B       		.uleb128 0xb
 1348 0081 3B       		.uleb128 0x3b
 1349 0082 05       		.uleb128 0x5
 1350 0083 49       		.uleb128 0x49
 1351 0084 13       		.uleb128 0x13
 1352 0085 02       		.uleb128 0x2
 1353 0086 06       		.uleb128 0x6
 1354 0087 00       		.byte	0x0
 1355 0088 00       		.byte	0x0
 1356 0089 0A       		.uleb128 0xa
 1357 008a 34       		.uleb128 0x34
 1358 008b 00       		.byte	0x0
 1359 008c 03       		.uleb128 0x3
 1360 008d 0E       		.uleb128 0xe
 1361 008e 3A       		.uleb128 0x3a
 1362 008f 0B       		.uleb128 0xb
 1363 0090 3B       		.uleb128 0x3b
 1364 0091 05       		.uleb128 0x5
 1365 0092 49       		.uleb128 0x49
 1366 0093 13       		.uleb128 0x13
 1367 0094 00       		.byte	0x0
 1368 0095 00       		.byte	0x0
 1369 0096 0B       		.uleb128 0xb
 1370 0097 34       		.uleb128 0x34
ARM GAS  /cygdrive/c/DOCUME~1/mkwapisz/LOCALS~1/Temp/ccXrHZLf.s 			page 33


 1371 0098 00       		.byte	0x0
 1372 0099 03       		.uleb128 0x3
 1373 009a 08       		.uleb128 0x8
 1374 009b 3A       		.uleb128 0x3a
 1375 009c 0B       		.uleb128 0xb
 1376 009d 3B       		.uleb128 0x3b
 1377 009e 05       		.uleb128 0x5
 1378 009f 49       		.uleb128 0x49
 1379 00a0 13       		.uleb128 0x13
 1380 00a1 00       		.byte	0x0
 1381 00a2 00       		.byte	0x0
 1382 00a3 0C       		.uleb128 0xc
 1383 00a4 0F       		.uleb128 0xf
 1384 00a5 00       		.byte	0x0
 1385 00a6 0B       		.uleb128 0xb
 1386 00a7 0B       		.uleb128 0xb
 1387 00a8 49       		.uleb128 0x49
 1388 00a9 13       		.uleb128 0x13
 1389 00aa 00       		.byte	0x0
 1390 00ab 00       		.byte	0x0
 1391 00ac 0D       		.uleb128 0xd
 1392 00ad 2E       		.uleb128 0x2e
 1393 00ae 01       		.byte	0x1
 1394 00af 01       		.uleb128 0x1
 1395 00b0 13       		.uleb128 0x13
 1396 00b1 3F       		.uleb128 0x3f
 1397 00b2 0C       		.uleb128 0xc
 1398 00b3 03       		.uleb128 0x3
 1399 00b4 0E       		.uleb128 0xe
 1400 00b5 3A       		.uleb128 0x3a
 1401 00b6 0B       		.uleb128 0xb
 1402 00b7 3B       		.uleb128 0x3b
 1403 00b8 0B       		.uleb128 0xb
 1404 00b9 27       		.uleb128 0x27
 1405 00ba 0C       		.uleb128 0xc
 1406 00bb 49       		.uleb128 0x49
 1407 00bc 13       		.uleb128 0x13
 1408 00bd 11       		.uleb128 0x11
 1409 00be 01       		.uleb128 0x1
 1410 00bf 12       		.uleb128 0x12
 1411 00c0 01       		.uleb128 0x1
 1412 00c1 40       		.uleb128 0x40
 1413 00c2 06       		.uleb128 0x6
 1414 00c3 00       		.byte	0x0
 1415 00c4 00       		.byte	0x0
 1416 00c5 0E       		.uleb128 0xe
 1417 00c6 34       		.uleb128 0x34
 1418 00c7 00       		.byte	0x0
 1419 00c8 03       		.uleb128 0x3
 1420 00c9 0E       		.uleb128 0xe
 1421 00ca 3A       		.uleb128 0x3a
 1422 00cb 0B       		.uleb128 0xb
 1423 00cc 3B       		.uleb128 0x3b
 1424 00cd 0B       		.uleb128 0xb
 1425 00ce 49       		.uleb128 0x49
 1426 00cf 13       		.uleb128 0x13
 1427 00d0 02       		.uleb128 0x2
ARM GAS  /cygdrive/c/DOCUME~1/mkwapisz/LOCALS~1/Temp/ccXrHZLf.s 			page 34


 1428 00d1 06       		.uleb128 0x6
 1429 00d2 00       		.byte	0x0
 1430 00d3 00       		.byte	0x0
 1431 00d4 0F       		.uleb128 0xf
 1432 00d5 34       		.uleb128 0x34
 1433 00d6 00       		.byte	0x0
 1434 00d7 03       		.uleb128 0x3
 1435 00d8 0E       		.uleb128 0xe
 1436 00d9 3A       		.uleb128 0x3a
 1437 00da 0B       		.uleb128 0xb
 1438 00db 3B       		.uleb128 0x3b
 1439 00dc 0B       		.uleb128 0xb
 1440 00dd 49       		.uleb128 0x49
 1441 00de 13       		.uleb128 0x13
 1442 00df 00       		.byte	0x0
 1443 00e0 00       		.byte	0x0
 1444 00e1 10       		.uleb128 0x10
 1445 00e2 05       		.uleb128 0x5
 1446 00e3 00       		.byte	0x0
 1447 00e4 03       		.uleb128 0x3
 1448 00e5 0E       		.uleb128 0xe
 1449 00e6 3A       		.uleb128 0x3a
 1450 00e7 0B       		.uleb128 0xb
 1451 00e8 3B       		.uleb128 0x3b
 1452 00e9 0B       		.uleb128 0xb
 1453 00ea 49       		.uleb128 0x49
 1454 00eb 13       		.uleb128 0x13
 1455 00ec 02       		.uleb128 0x2
 1456 00ed 06       		.uleb128 0x6
 1457 00ee 00       		.byte	0x0
 1458 00ef 00       		.byte	0x0
 1459 00f0 11       		.uleb128 0x11
 1460 00f1 34       		.uleb128 0x34
 1461 00f2 00       		.byte	0x0
 1462 00f3 03       		.uleb128 0x3
 1463 00f4 08       		.uleb128 0x8
 1464 00f5 3A       		.uleb128 0x3a
 1465 00f6 0B       		.uleb128 0xb
 1466 00f7 3B       		.uleb128 0x3b
 1467 00f8 05       		.uleb128 0x5
 1468 00f9 49       		.uleb128 0x49
 1469 00fa 13       		.uleb128 0x13
 1470 00fb 02       		.uleb128 0x2
 1471 00fc 06       		.uleb128 0x6
 1472 00fd 00       		.byte	0x0
 1473 00fe 00       		.byte	0x0
 1474 00ff 12       		.uleb128 0x12
 1475 0100 2E       		.uleb128 0x2e
 1476 0101 01       		.byte	0x1
 1477 0102 3F       		.uleb128 0x3f
 1478 0103 0C       		.uleb128 0xc
 1479 0104 03       		.uleb128 0x3
 1480 0105 0E       		.uleb128 0xe
 1481 0106 3A       		.uleb128 0x3a
 1482 0107 0B       		.uleb128 0xb
 1483 0108 3B       		.uleb128 0x3b
 1484 0109 05       		.uleb128 0x5
ARM GAS  /cygdrive/c/DOCUME~1/mkwapisz/LOCALS~1/Temp/ccXrHZLf.s 			page 35


 1485 010a 27       		.uleb128 0x27
 1486 010b 0C       		.uleb128 0xc
 1487 010c 49       		.uleb128 0x49
 1488 010d 13       		.uleb128 0x13
 1489 010e 11       		.uleb128 0x11
 1490 010f 01       		.uleb128 0x1
 1491 0110 12       		.uleb128 0x12
 1492 0111 01       		.uleb128 0x1
 1493 0112 40       		.uleb128 0x40
 1494 0113 06       		.uleb128 0x6
 1495 0114 00       		.byte	0x0
 1496 0115 00       		.byte	0x0
 1497 0116 00       		.byte	0x0
 1498              		.section	.debug_pubnames,"",%progbits
 1499 0000 61000000 		.4byte	0x61
 1500 0004 0200     		.2byte	0x2
 1501 0006 00000000 		.4byte	.Ldebug_info0
 1502 000a 8A020000 		.4byte	0x28a
 1503 000e 7B000000 		.4byte	0x7b
 1504 0012 65657072 		.ascii	"eepromWrite\000"
 1504      6F6D5772 
 1504      69746500 
 1505 001e F6000000 		.4byte	0xf6
 1506 0022 65657072 		.ascii	"eepromPoll\000"
 1506      6F6D506F 
 1506      6C6C00
 1507 002d 39010000 		.4byte	0x139
 1508 0031 65657072 		.ascii	"eepromStartRead\000"
 1508      6F6D5374 
 1508      61727452 
 1508      65616400 
 1509 0041 93010000 		.4byte	0x193
 1510 0045 6C6D3735 		.ascii	"lm75Read\000"
 1510      52656164 
 1510      00
 1511 004e 10020000 		.4byte	0x210
 1512 0052 65657072 		.ascii	"eepromPageRead\000"
 1512      6F6D5061 
 1512      67655265 
 1512      616400
 1513 0061 00000000 		.4byte	0x0
 1514              		.section	.debug_aranges,"",%progbits
 1515 0000 1C000000 		.4byte	0x1c
 1516 0004 0200     		.2byte	0x2
 1517 0006 00000000 		.4byte	.Ldebug_info0
 1518 000a 04       		.byte	0x4
 1519 000b 00       		.byte	0x0
 1520 000c 0000     		.2byte	0x0
 1521 000e 0000     		.2byte	0x0
 1522 0010 00000000 		.4byte	.Ltext0
 1523 0014 3A020000 		.4byte	.Letext0-.Ltext0
 1524 0018 00000000 		.4byte	0x0
 1525 001c 00000000 		.4byte	0x0
 1526              		.section	.debug_str,"MS",%progbits,1
 1527              	.LASF3:
 1528 0000 756E7369 		.ascii	"unsigned int\000"
 1528      676E6564 
ARM GAS  /cygdrive/c/DOCUME~1/mkwapisz/LOCALS~1/Temp/ccXrHZLf.s 			page 36


 1528      20696E74 
 1528      00
 1529              	.LASF11:
 1530 000d 65657072 		.ascii	"eepromWrite\000"
 1530      6F6D5772 
 1530      69746500 
 1531              	.LASF9:
 1532 0019 72657443 		.ascii	"retCode\000"
 1532      6F646500 
 1533              	.LASF17:
 1534 0021 6C6D3735 		.ascii	"lm75Read\000"
 1534      52656164 
 1534      00
 1535              	.LASF10:
 1536 002a 73746174 		.ascii	"status\000"
 1536      757300
 1537              	.LASF16:
 1538 0031 61646472 		.ascii	"address\000"
 1538      65737300 
 1539              	.LASF15:
 1540 0039 64657641 		.ascii	"devAddr\000"
 1540      64647200 
 1541              	.LASF7:
 1542 0041 61646472 		.ascii	"addr\000"
 1542      00
 1543              	.LASF21:
 1544 0046 2F637967 		.ascii	"/cygdrive/c/Documents and Settings/mkwapisz/Desktop"
 1544      64726976 
 1544      652F632F 
 1544      446F6375 
 1544      6D656E74 
 1545 0079 2F76332E 		.ascii	"/v3.0_without_filesys/testProgram_lpc2148_edu\000"
 1545      305F7769 
 1545      74686F75 
 1545      745F6669 
 1545      6C657379 
 1546              	.LASF18:
 1547 00a7 70427566 		.ascii	"pBuf\000"
 1547      00
 1548              	.LASF1:
 1549 00ac 756E7369 		.ascii	"unsigned char\000"
 1549      676E6564 
 1549      20636861 
 1549      7200
 1550              	.LASF14:
 1551 00ba 65657072 		.ascii	"eepromStartRead\000"
 1551      6F6D5374 
 1551      61727452 
 1551      65616400 
 1552              	.LASF20:
 1553 00ca 65657072 		.ascii	"eeprom.c\000"
 1553      6F6D2E63 
 1553      00
 1554              	.LASF19:
 1555 00d3 474E5520 		.ascii	"GNU C 4.1.1\000"
 1555      4320342E 
 1555      312E3100 
ARM GAS  /cygdrive/c/DOCUME~1/mkwapisz/LOCALS~1/Temp/ccXrHZLf.s 			page 37


 1556              	.LASF22:
 1557 00df 65657072 		.ascii	"eepromPageRead\000"
 1557      6F6D5061 
 1557      67655265 
 1557      616400
 1558              	.LASF2:
 1559 00ee 73686F72 		.ascii	"short unsigned int\000"
 1559      7420756E 
 1559      7369676E 
 1559      65642069 
 1559      6E7400
 1560              	.LASF4:
 1561 0101 7369676E 		.ascii	"signed char\000"
 1561      65642063 
 1561      68617200 
 1562              	.LASF12:
 1563 010d 65657072 		.ascii	"eepromPoll\000"
 1563      6F6D506F 
 1563      6C6C00
 1564              	.LASF0:
 1565 0118 74553136 		.ascii	"tU16\000"
 1565      00
 1566              	.LASF13:
 1567 011d 6275726E 		.ascii	"burnEnd\000"
 1567      456E6400 
 1568              	.LASF6:
 1569 0125 74426F6F 		.ascii	"tBool\000"
 1569      6C00
 1570              	.LASF5:
 1571 012b 73686F72 		.ascii	"short int\000"
 1571      7420696E 
 1571      7400
 1572              	.LASF8:
 1573 0135 70446174 		.ascii	"pData\000"
 1573      6100
 1574              		.ident	"GCC: (GNU) 4.1.1"
ARM GAS  /cygdrive/c/DOCUME~1/mkwapisz/LOCALS~1/Temp/ccXrHZLf.s 			page 38


DEFINED SYMBOLS
                            *ABS*:00000000 eeprom.c
/cygdrive/c/DOCUME~1/mkwapisz/LOCALS~1/Temp/ccXrHZLf.s:1      .text:00000000 $t
/cygdrive/c/DOCUME~1/mkwapisz/LOCALS~1/Temp/ccXrHZLf.s:16     .text:00000000 eepromWrite
/cygdrive/c/DOCUME~1/mkwapisz/LOCALS~1/Temp/ccXrHZLf.s:108    .text:0000006c eepromPoll
/cygdrive/c/DOCUME~1/mkwapisz/LOCALS~1/Temp/ccXrHZLf.s:172    .text:000000b8 eepromStartRead
/cygdrive/c/DOCUME~1/mkwapisz/LOCALS~1/Temp/ccXrHZLf.s:306    .text:00000150 lm75Read
/cygdrive/c/DOCUME~1/mkwapisz/LOCALS~1/Temp/ccXrHZLf.s:418    .text:000001c4 eepromPageRead

UNDEFINED SYMBOLS
i2cStart
i2cWriteWithWait
i2cStop
i2cPutChar
i2cCheckStatus
i2cRepeatStart
i2cGetChar
