ARM GAS  /cygdrive/c/DOCUME~1/mkwapisz/LOCALS~1/Temp/ccL9Qa9d.s 			page 1


   1              		.code	16
   2              		.file	"testRGB.c"
   3              		.section	.debug_abbrev,"",%progbits
   4              	.Ldebug_abbrev0:
   5              		.section	.debug_info,"",%progbits
   6              	.Ldebug_info0:
   7              		.section	.debug_line,"",%progbits
   8              	.Ldebug_line0:
   9 0000 93000000 		.text
   9      02004A00 
   9      00000201 
   9      FB0E0D00 
   9      01010101 
  10              	.Ltext0:
  11              		.align	2
  12              		.global	testRGB
  13              		.code 16
  14              		.thumb_func
  15              		.type	testRGB, %function
  16              	testRGB:
  17              	.LFB2:
  18              		.file 1 "testRGB.c"
   1:testRGB.c     **** /******************************************************************************
   2:testRGB.c     ****  *
   3:testRGB.c     ****  * Copyright:
   4:testRGB.c     ****  *    (C) 2000 - 2005 Embedded Artists AB
   5:testRGB.c     ****  *
   6:testRGB.c     ****  *****************************************************************************/
   7:testRGB.c     **** 
   8:testRGB.c     **** 
   9:testRGB.c     **** #include "../pre_emptive_os/api/osapi.h"
  10:testRGB.c     **** #include "../pre_emptive_os/api/general.h"
  11:testRGB.c     **** #include <printf_P.h>
  12:testRGB.c     **** #include <lpc2xxx.h>
  13:testRGB.c     **** 
  14:testRGB.c     **** extern tU8 xbeePresent;
  15:testRGB.c     **** 
  16:testRGB.c     **** /*****************************************************************************
  17:testRGB.c     ****  *
  18:testRGB.c     ****  * Description:
  19:testRGB.c     ****  *    A process entry function. 
  20:testRGB.c     ****  *
  21:testRGB.c     ****  ****************************************************************************/
  22:testRGB.c     **** void
  23:testRGB.c     **** testRGB(void)
  24:testRGB.c     **** {
  19              		.loc 1 24 0
  20 0000 70B5     		push	{r4, r5, r6, lr}
  21              	.LCFI0:
  25:testRGB.c     **** 	tU8  continueTest;
  26:testRGB.c     **** 	tU32 counter = 0;
  27:testRGB.c     **** 	tU8  direction = 0;
  28:testRGB.c     **** 	tU8  led = 0;
  29:testRGB.c     **** 	
  30:testRGB.c     **** 	if (1 == xbeePresent)
  22              		.loc 1 30 0
  23 0002 3E4B     		ldr	r3, .L39
ARM GAS  /cygdrive/c/DOCUME~1/mkwapisz/LOCALS~1/Temp/ccL9Qa9d.s 			page 2


  24 0004 1B78     		ldrb	r3, [r3]
  25 0006 012B     		cmp	r3, #1
  26 0008 08D1     		bne	.L2
  31:testRGB.c     **** 	{
  32:testRGB.c     ****     PINSEL0 &= 0xfff03fff;  //Enable PWM2 on P0.7, PWM4 on P0.8, and PWM6 not used
  27              		.loc 1 32 0
  28 000a 3D49     		ldr	r1, .L39+4
  29 000c 3D4A     		ldr	r2, .L39+8
  30 000e 0B68     		ldr	r3, [r1]
  31 0010 1340     		and	r3, r3, r2
  32 0012 0B60     		str	r3, [r1]
  33:testRGB.c     ****     PINSEL0 |= 0x00028000;  //Enable PWM2 on P0.7, PWM4 on P0.8, and PWM6 not used
  33              		.loc 1 33 0
  34 0014 A023     		mov	r3, #160
  35 0016 0A68     		ldr	r2, [r1]
  36 0018 9B02     		lsl	r3, r3, #10
  37 001a 07E0     		b	.L36
  38              	.L2:
  34:testRGB.c     **** 	}
  35:testRGB.c     **** 	else
  36:testRGB.c     **** 	{
  37:testRGB.c     ****     PINSEL0 &= 0xfff03fff;  //Enable PWM2 on P0.7, PWM4 on P0.8, and PWM6 on P0.9
  39              		.loc 1 37 0
  40 001c 3849     		ldr	r1, .L39+4
  41 001e 394A     		ldr	r2, .L39+8
  42 0020 0B68     		ldr	r3, [r1]
  43 0022 1340     		and	r3, r3, r2
  44 0024 0B60     		str	r3, [r1]
  38:testRGB.c     ****     PINSEL0 |= 0x000a8000;  //Enable PWM2 on P0.7, PWM4 on P0.8, and PWM6 on P0.9
  45              		.loc 1 38 0
  46 0026 A823     		mov	r3, #168
  47 0028 0A68     		ldr	r2, [r1]
  48 002a 1B03     		lsl	r3, r3, #12
  49              	.L36:
  50 002c 1A43     		orr	r2, r2, r3
  39:testRGB.c     ****   }
  40:testRGB.c     **** 
  41:testRGB.c     ****   //PULSE WIDTH MODULATION INIT*********************************************
  42:testRGB.c     ****   PWM_PR  = 0x00;    // Prescale Register
  51              		.loc 1 42 0
  52 002e 364B     		ldr	r3, .L39+12
  53              		.loc 1 38 0
  54 0030 0A60     		str	r2, [r1]
  55              		.loc 1 42 0
  56 0032 0021     		mov	r1, #0
  57 0034 1960     		str	r1, [r3]
  43:testRGB.c     ****   PWM_MCR = 0x02;    // Match Control Register
  58              		.loc 1 43 0
  59 0036 0222     		mov	r2, #2
  60 0038 0833     		add	r3, r3, #8
  61 003a 1A60     		str	r2, [r3]
  44:testRGB.c     ****   PWM_MR0 = 0x1000;    // TOTAL PERIODTID   T
  62              		.loc 1 44 0
  63 003c 334A     		ldr	r2, .L39+16
  64 003e 8023     		mov	r3, #128
  65 0040 5B01     		lsl	r3, r3, #5
  66 0042 1360     		str	r3, [r2]
ARM GAS  /cygdrive/c/DOCUME~1/mkwapisz/LOCALS~1/Temp/ccL9Qa9d.s 			page 3


  45:testRGB.c     ****   PWM_MR2 = 0x0000;    // HÖG SIGNAL        t
  67              		.loc 1 45 0
  68 0044 324B     		ldr	r3, .L39+20
  69 0046 1960     		str	r1, [r3]
  46:testRGB.c     ****   PWM_MR4 = 0x0000;    // HÖG SIGNAL        t
  70              		.loc 1 46 0
  71 0048 2033     		add	r3, r3, #32
  72 004a 1960     		str	r1, [r3]
  47:testRGB.c     ****   PWM_MR6 = 0x0000;    // HÖG SIGNAL        t
  73              		.loc 1 47 0
  74 004c 0833     		add	r3, r3, #8
  75 004e 1960     		str	r1, [r3]
  48:testRGB.c     ****   PWM_LER = 0x55;    // Latch Enable Register
  76              		.loc 1 48 0
  77 0050 5522     		mov	r2, #85
  78 0052 0833     		add	r3, r3, #8
  79 0054 1A60     		str	r2, [r3]
  49:testRGB.c     ****   PWM_PCR = 0x5400;  // Prescale Counter Register PWMENA2, PWMENA4, PWMENA6
  80              		.loc 1 49 0
  81 0056 2F4A     		ldr	r2, .L39+24
  82 0058 A823     		mov	r3, #168
  83 005a DB01     		lsl	r3, r3, #7
  84 005c 1360     		str	r3, [r2]
  50:testRGB.c     ****   PWM_TCR = 0x09;    // Counter Enable och PWM Enable
  85              		.loc 1 50 0
  86 005e 2E4B     		ldr	r3, .L39+28
  87 0060 0922     		mov	r2, #9
  88 0062 0026     		mov	r6, #0
  89              	.LVL0:
  90 0064 0025     		mov	r5, #0
  91              	.LVL1:
  92 0066 0024     		mov	r4, #0
  93              	.LVL2:
  94 0068 1A60     		str	r2, [r3]
  95 006a 00E0     		b	.L38
  96              	.LVL3:
  97              	.L6:
  98 006c 0025     		mov	r5, #0
  99              	.LVL4:
 100              	.L38:
  51:testRGB.c     ****   //************************************************************************ 
  52:testRGB.c     **** 
  53:testRGB.c     ****   continueTest = TRUE;
  54:testRGB.c     ****   while(continueTest == TRUE)
  55:testRGB.c     ****   {
  56:testRGB.c     ****     if (direction == 0)
 101              		.loc 1 56 0
 102 006e 002E     		cmp	r6, #0
 103 0070 0AD1     		bne	.L7
  57:testRGB.c     ****     {
  58:testRGB.c     ****     	if (counter < 0x0080)
 104              		.loc 1 58 0
 105 0072 7F2C     		cmp	r4, #127
 106 0074 01D8     		bhi	.L9
  59:testRGB.c     ****     	  counter += 0x0005;
 107              		.loc 1 59 0
 108 0076 0534     		add	r4, r4, #5
ARM GAS  /cygdrive/c/DOCUME~1/mkwapisz/LOCALS~1/Temp/ccL9Qa9d.s 			page 4


 109 0078 00E0     		b	.L11
 110              	.L9:
  60:testRGB.c     ****     	else
  61:testRGB.c     ****         counter += 0x000f;
 111              		.loc 1 61 0
 112 007a 0F34     		add	r4, r4, #15
 113              	.L11:
  62:testRGB.c     **** 
  63:testRGB.c     ****       if (counter > 0x0300)
 114              		.loc 1 63 0
 115 007c C023     		mov	r3, #192
 116 007e 9B00     		lsl	r3, r3, #2
 117 0080 9C42     		cmp	r4, r3
 118 0082 15D9     		bls	.L12
 119 0084 0126     		mov	r6, #1
 120 0086 13E0     		b	.L12
 121              	.L7:
  64:testRGB.c     ****       {
  65:testRGB.c     ****         direction = 1;
  66:testRGB.c     ****       }
  67:testRGB.c     ****     }
  68:testRGB.c     ****     else
  69:testRGB.c     ****     {
  70:testRGB.c     ****   	  if (counter == 0x0000)
 122              		.loc 1 70 0
 123 0088 002C     		cmp	r4, #0
 124 008a 0CD1     		bne	.L14
  71:testRGB.c     ****   	  {
  72:testRGB.c     ****   		  direction = 0;
  73:testRGB.c     ****   		  led++;
 125              		.loc 1 73 0
 126 008c 6B1C     		add	r3, r5, #1
 127 008e 1B06     		lsl	r3, r3, #24
 128 0090 1D0E     		lsr	r5, r3, #24
  74:testRGB.c     ****         osSleep(40);
 129              		.loc 1 74 0
 130 0092 2820     		mov	r0, #40
 131 0094 FFF7FEFF 		bl	osSleep
  75:testRGB.c     ****   		  if (led > 2)
 132              		.loc 1 75 0
 133 0098 022D     		cmp	r5, #2
 134 009a 02D9     		bls	.L16
 135 009c 0026     		mov	r6, #0
 136 009e 0025     		mov	r5, #0
 137              	.LVL5:
 138 00a0 0EE0     		b	.L18
 139              	.LVL6:
 140              	.L16:
 141 00a2 0026     		mov	r6, #0
 142 00a4 04E0     		b	.L12
 143              	.L14:
  76:testRGB.c     ****   		  {
  77:testRGB.c     ****   		    led = 0;
  78:testRGB.c     **** continueTest = FALSE;
  79:testRGB.c     ****   		  }
  80:testRGB.c     ****   		}
  81:testRGB.c     ****       else
ARM GAS  /cygdrive/c/DOCUME~1/mkwapisz/LOCALS~1/Temp/ccL9Qa9d.s 			page 5


  82:testRGB.c     ****       {
  83:testRGB.c     ****       	if (counter < 0x0080)
 144              		.loc 1 83 0
 145 00a6 7F2C     		cmp	r4, #127
 146 00a8 01D8     		bhi	.L19
  84:testRGB.c     ****      	  counter -= 0x0005;
 147              		.loc 1 84 0
 148 00aa 053C     		sub	r4, r4, #5
 149 00ac 00E0     		b	.L12
 150              	.L19:
  85:testRGB.c     ****       	else
  86:testRGB.c     ****           counter -= 0x000f;
 151              		.loc 1 86 0
 152 00ae 0F3C     		sub	r4, r4, #15
 153              	.L12:
  87:testRGB.c     ****       }
  88:testRGB.c     ****     }
  89:testRGB.c     ****     
  90:testRGB.c     ****     switch(led)
 154              		.loc 1 90 0
 155 00b0 012D     		cmp	r5, #1
 156 00b2 0BD0     		beq	.L23
 157 00b4 012D     		cmp	r5, #1
 158 00b6 02D3     		bcc	.L22
 159 00b8 022D     		cmp	r5, #2
 160 00ba 15D1     		bne	.L33
 161 00bc 0BE0     		b	.L24
 162              	.L22:
 163 00be 0125     		mov	r5, #1
 164              	.LVL7:
 165              	.L18:
  91:testRGB.c     ****     {
  92:testRGB.c     ****     	case 0:
  93:testRGB.c     ****       PWM_MR2 = counter;    // HÖG SIGNAL
 166              		.loc 1 93 0
 167 00c0 134B     		ldr	r3, .L39+20
  94:testRGB.c     ****       PWM_LER = 0x04;    // Latch Enable Register
 168              		.loc 1 94 0
 169 00c2 0422     		mov	r2, #4
 170              		.loc 1 93 0
 171 00c4 1C60     		str	r4, [r3]
 172              		.loc 1 94 0
 173 00c6 3033     		add	r3, r3, #48
 174 00c8 1A60     		str	r2, [r3]
 175 00ca 0EE0     		b	.L25
 176              	.LVL8:
 177              	.L23:
  95:testRGB.c     ****     	break;
  96:testRGB.c     ****     	case 1:
  97:testRGB.c     ****       PWM_MR4 = counter;    // HÖG SIGNAL
 178              		.loc 1 97 0
 179 00cc 134B     		ldr	r3, .L39+32
  98:testRGB.c     ****       PWM_LER = 0x10;    // Latch Enable Register
 180              		.loc 1 98 0
 181 00ce 1022     		mov	r2, #16
 182              		.loc 1 97 0
 183 00d0 1C60     		str	r4, [r3]
ARM GAS  /cygdrive/c/DOCUME~1/mkwapisz/LOCALS~1/Temp/ccL9Qa9d.s 			page 6


 184              		.loc 1 98 0
 185 00d2 1033     		add	r3, r3, #16
 186 00d4 03E0     		b	.L37
 187              	.L24:
  99:testRGB.c     ****     	break;
 100:testRGB.c     ****     	case 2:
 101:testRGB.c     ****       PWM_MR6 = counter;    // HÖG SIGNAL
 188              		.loc 1 101 0
 189 00d6 124B     		ldr	r3, .L39+36
 102:testRGB.c     ****       PWM_LER = 0x40;    // Latch Enable Register
 190              		.loc 1 102 0
 191 00d8 4022     		mov	r2, #64
 192              		.loc 1 101 0
 193 00da 1C60     		str	r4, [r3]
 194              		.loc 1 102 0
 195 00dc 0833     		add	r3, r3, #8
 196              	.L37:
 197 00de 1A60     		str	r2, [r3]
 103:testRGB.c     ****     	break;
 104:testRGB.c     ****     	default:
 105:testRGB.c     ****     	led = 0;
 106:testRGB.c     ****     	break;
 107:testRGB.c     ****     }
 108:testRGB.c     **** 
 109:testRGB.c     ****     osSleep(1);
 198              		.loc 1 109 0
 199 00e0 0120     		mov	r0, #1
 200 00e2 FFF7FEFF 		bl	osSleep
 201 00e6 C2E7     		b	.L38
 202              	.L33:
 203              		.loc 1 103 0
 204 00e8 0125     		mov	r5, #1
 205              	.LVL9:
 206              	.L25:
 207              		.loc 1 109 0
 208 00ea 0120     		mov	r0, #1
 209 00ec FFF7FEFF 		bl	osSleep
 210              		.loc 1 54 0
 211 00f0 012D     		cmp	r5, #1
 212 00f2 BBD0     		beq	.L6
 110:testRGB.c     ****   }
 111:testRGB.c     **** }
 213              		.loc 1 111 0
 214              		@ sp needed for prologue
 215              	.LVL10:
 216              	.LVL11:
 217              	.LVL12:
 218 00f4 70BC     		pop	{r4, r5, r6}
 219 00f6 01BC     		pop	{r0}
 220 00f8 0047     		bx	r0
 221              	.L40:
 222 00fa 0000     		.align	2
 223              	.L39:
 224 00fc 00000000 		.word	xbeePresent
 225 0100 00C002E0 		.word	-536690688
 226 0104 FF3FF0FF 		.word	-1032193
 227 0108 0C4001E0 		.word	-536788980
ARM GAS  /cygdrive/c/DOCUME~1/mkwapisz/LOCALS~1/Temp/ccL9Qa9d.s 			page 7


 228 010c 184001E0 		.word	-536788968
 229 0110 204001E0 		.word	-536788960
 230 0114 4C4001E0 		.word	-536788916
 231 0118 044001E0 		.word	-536788988
 232 011c 404001E0 		.word	-536788928
 233 0120 484001E0 		.word	-536788920
 234              	.LFE2:
 235              		.size	testRGB, .-testRGB
 236              		.section	.debug_frame,"",%progbits
 237              	.Lframe0:
 238 0000 0C000000 		.4byte	.LECIE0-.LSCIE0
 239              	.LSCIE0:
 240 0004 FFFFFFFF 		.4byte	0xffffffff
 241 0008 01       		.byte	0x1
 242 0009 00       		.ascii	"\000"
 243 000a 01       		.uleb128 0x1
 244 000b 7C       		.sleb128 -4
 245 000c 0E       		.byte	0xe
 246 000d 0C       		.byte	0xc
 247 000e 0D       		.uleb128 0xd
 248 000f 00       		.uleb128 0x0
 249              		.align	2
 250              	.LECIE0:
 251              	.LSFDE0:
 252 0010 18000000 		.4byte	.LEFDE0-.LASFDE0
 253              	.LASFDE0:
 254 0014 00000000 		.4byte	.Lframe0
 255 0018 00000000 		.4byte	.LFB2
 256 001c 24010000 		.4byte	.LFE2-.LFB2
 257 0020 42       		.byte	0x4
 258              		.4byte	.LCFI0-.LFB2
 259 0021 0E       		.byte	0xe
 260 0022 10       		.uleb128 0x10
 261 0023 84       		.byte	0x84
 262 0024 04       		.uleb128 0x4
 263 0025 85       		.byte	0x85
 264 0026 03       		.uleb128 0x3
 265 0027 86       		.byte	0x86
 266 0028 02       		.uleb128 0x2
 267 0029 8E       		.byte	0x8e
 268 002a 01       		.uleb128 0x1
 269 002b 00       		.align	2
 270              	.LEFDE0:
 271              		.file 2 "../pre_emptive_os/api/../api/general.h"
 272              		.text
 273              	.Letext0:
 274              		.section	.debug_loc,"",%progbits
 275              	.Ldebug_loc0:
 276              	.LLST0:
 277 0000 00000000 		.4byte	.LFB2-.Ltext0
 278 0004 02000000 		.4byte	.LCFI0-.Ltext0
 279 0008 0100     		.2byte	0x1
 280 000a 5D       		.byte	0x5d
 281 000b 02000000 		.4byte	.LCFI0-.Ltext0
 282 000f 24010000 		.4byte	.LFE2-.Ltext0
 283 0013 0200     		.2byte	0x2
 284 0015 7D       		.byte	0x7d
ARM GAS  /cygdrive/c/DOCUME~1/mkwapisz/LOCALS~1/Temp/ccL9Qa9d.s 			page 8


 285 0016 10       		.sleb128 16
 286 0017 00000000 		.4byte	0x0
 287 001b 00000000 		.4byte	0x0
 288              	.LLST1:
 289 001f 6C000000 		.4byte	.LVL3-.Ltext0
 290 0023 6E000000 		.4byte	.LVL4-.Ltext0
 291 0027 0100     		.2byte	0x1
 292 0029 55       		.byte	0x55
 293 002a A0000000 		.4byte	.LVL5-.Ltext0
 294 002e A2000000 		.4byte	.LVL6-.Ltext0
 295 0032 0100     		.2byte	0x1
 296 0034 55       		.byte	0x55
 297 0035 C0000000 		.4byte	.LVL7-.Ltext0
 298 0039 CC000000 		.4byte	.LVL8-.Ltext0
 299 003d 0100     		.2byte	0x1
 300 003f 55       		.byte	0x55
 301 0040 EA000000 		.4byte	.LVL9-.Ltext0
 302 0044 F4000000 		.4byte	.LVL11-.Ltext0
 303 0048 0100     		.2byte	0x1
 304 004a 55       		.byte	0x55
 305 004b 00000000 		.4byte	0x0
 306 004f 00000000 		.4byte	0x0
 307              	.LLST2:
 308 0053 68000000 		.4byte	.LVL2-.Ltext0
 309 0057 F4000000 		.4byte	.LVL10-.Ltext0
 310 005b 0100     		.2byte	0x1
 311 005d 54       		.byte	0x54
 312 005e 00000000 		.4byte	0x0
 313 0062 00000000 		.4byte	0x0
 314              	.LLST3:
 315 0066 64000000 		.4byte	.LVL0-.Ltext0
 316 006a F4000000 		.4byte	.LVL12-.Ltext0
 317 006e 0100     		.2byte	0x1
 318 0070 56       		.byte	0x56
 319 0071 00000000 		.4byte	0x0
 320 0075 00000000 		.4byte	0x0
 321              	.LLST4:
 322 0079 66000000 		.4byte	.LVL1-.Ltext0
 323 007d 6C000000 		.4byte	.LVL3-.Ltext0
 324 0081 0100     		.2byte	0x1
 325 0083 55       		.byte	0x55
 326 0084 6E000000 		.4byte	.LVL4-.Ltext0
 327 0088 A0000000 		.4byte	.LVL5-.Ltext0
 328 008c 0100     		.2byte	0x1
 329 008e 55       		.byte	0x55
 330 008f A2000000 		.4byte	.LVL6-.Ltext0
 331 0093 C0000000 		.4byte	.LVL7-.Ltext0
 332 0097 0100     		.2byte	0x1
 333 0099 55       		.byte	0x55
 334 009a CC000000 		.4byte	.LVL8-.Ltext0
 335 009e EA000000 		.4byte	.LVL9-.Ltext0
 336 00a2 0100     		.2byte	0x1
 337 00a4 55       		.byte	0x55
 338 00a5 00000000 		.4byte	0x0
 339 00a9 00000000 		.4byte	0x0
 340              		.section	.debug_info
 341 0000 CC000000 		.4byte	0xcc
ARM GAS  /cygdrive/c/DOCUME~1/mkwapisz/LOCALS~1/Temp/ccL9Qa9d.s 			page 9


 342 0004 0200     		.2byte	0x2
 343 0006 00000000 		.4byte	.Ldebug_abbrev0
 344 000a 04       		.byte	0x4
 345 000b 01       		.uleb128 0x1
 346 000c 00000000 		.4byte	.Ldebug_line0
 347 0010 24010000 		.4byte	.Letext0
 348 0014 00000000 		.4byte	.Ltext0
 349 0018 73000000 		.4byte	.LASF11
 350 001c 01       		.byte	0x1
 351 001d FB000000 		.4byte	.LASF12
 352 0021 8E000000 		.4byte	.LASF13
 353 0025 02       		.uleb128 0x2
 354 0026 74553800 		.ascii	"tU8\000"
 355 002a 02       		.byte	0x2
 356 002b 47       		.byte	0x47
 357 002c 30000000 		.4byte	0x30
 358 0030 03       		.uleb128 0x3
 359 0031 16000000 		.4byte	.LASF0
 360 0035 01       		.byte	0x1
 361 0036 08       		.byte	0x8
 362 0037 03       		.uleb128 0x3
 363 0038 43000000 		.4byte	.LASF1
 364 003c 02       		.byte	0x2
 365 003d 07       		.byte	0x7
 366 003e 04       		.uleb128 0x4
 367 003f 7F000000 		.4byte	.LASF2
 368 0043 02       		.byte	0x2
 369 0044 49       		.byte	0x49
 370 0045 49000000 		.4byte	0x49
 371 0049 03       		.uleb128 0x3
 372 004a 66000000 		.4byte	.LASF3
 373 004e 04       		.byte	0x4
 374 004f 07       		.byte	0x7
 375 0050 03       		.uleb128 0x3
 376 0051 EF000000 		.4byte	.LASF4
 377 0055 01       		.byte	0x1
 378 0056 06       		.byte	0x6
 379 0057 03       		.uleb128 0x3
 380 0058 84000000 		.4byte	.LASF5
 381 005c 02       		.byte	0x2
 382 005d 05       		.byte	0x5
 383 005e 05       		.uleb128 0x5
 384 005f 696E7400 		.ascii	"int\000"
 385 0063 04       		.byte	0x4
 386 0064 05       		.byte	0x5
 387 0065 03       		.uleb128 0x3
 388 0066 24000000 		.4byte	.LASF6
 389 006a 04       		.byte	0x4
 390 006b 07       		.byte	0x7
 391 006c 06       		.uleb128 0x6
 392 006d C2000000 		.4byte	0xc2
 393 0071 01       		.byte	0x1
 394 0072 5E000000 		.4byte	.LASF14
 395 0076 01       		.byte	0x1
 396 0077 18       		.byte	0x18
 397 0078 01       		.byte	0x1
 398 0079 00000000 		.4byte	.LFB2
ARM GAS  /cygdrive/c/DOCUME~1/mkwapisz/LOCALS~1/Temp/ccL9Qa9d.s 			page 10


 399 007d 24010000 		.4byte	.LFE2
 400 0081 00000000 		.4byte	.LLST0
 401 0085 07       		.uleb128 0x7
 402 0086 36000000 		.4byte	.LASF7
 403 008a 01       		.byte	0x1
 404 008b 19       		.byte	0x19
 405 008c 25000000 		.4byte	0x25
 406 0090 1F000000 		.4byte	.LLST1
 407 0094 07       		.uleb128 0x7
 408 0095 56000000 		.4byte	.LASF8
 409 0099 01       		.byte	0x1
 410 009a 1A       		.byte	0x1a
 411 009b 3E000000 		.4byte	0x3e
 412 009f 53000000 		.4byte	.LLST2
 413 00a3 07       		.uleb128 0x7
 414 00a4 0C000000 		.4byte	.LASF9
 415 00a8 01       		.byte	0x1
 416 00a9 1B       		.byte	0x1b
 417 00aa 25000000 		.4byte	0x25
 418 00ae 66000000 		.4byte	.LLST3
 419 00b2 08       		.uleb128 0x8
 420 00b3 6C656400 		.ascii	"led\000"
 421 00b7 01       		.byte	0x1
 422 00b8 1C       		.byte	0x1c
 423 00b9 25000000 		.4byte	0x25
 424 00bd 79000000 		.4byte	.LLST4
 425 00c1 00       		.byte	0x0
 426 00c2 09       		.uleb128 0x9
 427 00c3 00000000 		.4byte	.LASF10
 428 00c7 01       		.byte	0x1
 429 00c8 0E       		.byte	0xe
 430 00c9 25000000 		.4byte	0x25
 431 00cd 01       		.byte	0x1
 432 00ce 01       		.byte	0x1
 433 00cf 00       		.byte	0x0
 434              		.section	.debug_abbrev
 435 0000 01       		.uleb128 0x1
 436 0001 11       		.uleb128 0x11
 437 0002 01       		.byte	0x1
 438 0003 10       		.uleb128 0x10
 439 0004 06       		.uleb128 0x6
 440 0005 12       		.uleb128 0x12
 441 0006 01       		.uleb128 0x1
 442 0007 11       		.uleb128 0x11
 443 0008 01       		.uleb128 0x1
 444 0009 25       		.uleb128 0x25
 445 000a 0E       		.uleb128 0xe
 446 000b 13       		.uleb128 0x13
 447 000c 0B       		.uleb128 0xb
 448 000d 03       		.uleb128 0x3
 449 000e 0E       		.uleb128 0xe
 450 000f 1B       		.uleb128 0x1b
 451 0010 0E       		.uleb128 0xe
 452 0011 00       		.byte	0x0
 453 0012 00       		.byte	0x0
 454 0013 02       		.uleb128 0x2
 455 0014 16       		.uleb128 0x16
ARM GAS  /cygdrive/c/DOCUME~1/mkwapisz/LOCALS~1/Temp/ccL9Qa9d.s 			page 11


 456 0015 00       		.byte	0x0
 457 0016 03       		.uleb128 0x3
 458 0017 08       		.uleb128 0x8
 459 0018 3A       		.uleb128 0x3a
 460 0019 0B       		.uleb128 0xb
 461 001a 3B       		.uleb128 0x3b
 462 001b 0B       		.uleb128 0xb
 463 001c 49       		.uleb128 0x49
 464 001d 13       		.uleb128 0x13
 465 001e 00       		.byte	0x0
 466 001f 00       		.byte	0x0
 467 0020 03       		.uleb128 0x3
 468 0021 24       		.uleb128 0x24
 469 0022 00       		.byte	0x0
 470 0023 03       		.uleb128 0x3
 471 0024 0E       		.uleb128 0xe
 472 0025 0B       		.uleb128 0xb
 473 0026 0B       		.uleb128 0xb
 474 0027 3E       		.uleb128 0x3e
 475 0028 0B       		.uleb128 0xb
 476 0029 00       		.byte	0x0
 477 002a 00       		.byte	0x0
 478 002b 04       		.uleb128 0x4
 479 002c 16       		.uleb128 0x16
 480 002d 00       		.byte	0x0
 481 002e 03       		.uleb128 0x3
 482 002f 0E       		.uleb128 0xe
 483 0030 3A       		.uleb128 0x3a
 484 0031 0B       		.uleb128 0xb
 485 0032 3B       		.uleb128 0x3b
 486 0033 0B       		.uleb128 0xb
 487 0034 49       		.uleb128 0x49
 488 0035 13       		.uleb128 0x13
 489 0036 00       		.byte	0x0
 490 0037 00       		.byte	0x0
 491 0038 05       		.uleb128 0x5
 492 0039 24       		.uleb128 0x24
 493 003a 00       		.byte	0x0
 494 003b 03       		.uleb128 0x3
 495 003c 08       		.uleb128 0x8
 496 003d 0B       		.uleb128 0xb
 497 003e 0B       		.uleb128 0xb
 498 003f 3E       		.uleb128 0x3e
 499 0040 0B       		.uleb128 0xb
 500 0041 00       		.byte	0x0
 501 0042 00       		.byte	0x0
 502 0043 06       		.uleb128 0x6
 503 0044 2E       		.uleb128 0x2e
 504 0045 01       		.byte	0x1
 505 0046 01       		.uleb128 0x1
 506 0047 13       		.uleb128 0x13
 507 0048 3F       		.uleb128 0x3f
 508 0049 0C       		.uleb128 0xc
 509 004a 03       		.uleb128 0x3
 510 004b 0E       		.uleb128 0xe
 511 004c 3A       		.uleb128 0x3a
 512 004d 0B       		.uleb128 0xb
ARM GAS  /cygdrive/c/DOCUME~1/mkwapisz/LOCALS~1/Temp/ccL9Qa9d.s 			page 12


 513 004e 3B       		.uleb128 0x3b
 514 004f 0B       		.uleb128 0xb
 515 0050 27       		.uleb128 0x27
 516 0051 0C       		.uleb128 0xc
 517 0052 11       		.uleb128 0x11
 518 0053 01       		.uleb128 0x1
 519 0054 12       		.uleb128 0x12
 520 0055 01       		.uleb128 0x1
 521 0056 40       		.uleb128 0x40
 522 0057 06       		.uleb128 0x6
 523 0058 00       		.byte	0x0
 524 0059 00       		.byte	0x0
 525 005a 07       		.uleb128 0x7
 526 005b 34       		.uleb128 0x34
 527 005c 00       		.byte	0x0
 528 005d 03       		.uleb128 0x3
 529 005e 0E       		.uleb128 0xe
 530 005f 3A       		.uleb128 0x3a
 531 0060 0B       		.uleb128 0xb
 532 0061 3B       		.uleb128 0x3b
 533 0062 0B       		.uleb128 0xb
 534 0063 49       		.uleb128 0x49
 535 0064 13       		.uleb128 0x13
 536 0065 02       		.uleb128 0x2
 537 0066 06       		.uleb128 0x6
 538 0067 00       		.byte	0x0
 539 0068 00       		.byte	0x0
 540 0069 08       		.uleb128 0x8
 541 006a 34       		.uleb128 0x34
 542 006b 00       		.byte	0x0
 543 006c 03       		.uleb128 0x3
 544 006d 08       		.uleb128 0x8
 545 006e 3A       		.uleb128 0x3a
 546 006f 0B       		.uleb128 0xb
 547 0070 3B       		.uleb128 0x3b
 548 0071 0B       		.uleb128 0xb
 549 0072 49       		.uleb128 0x49
 550 0073 13       		.uleb128 0x13
 551 0074 02       		.uleb128 0x2
 552 0075 06       		.uleb128 0x6
 553 0076 00       		.byte	0x0
 554 0077 00       		.byte	0x0
 555 0078 09       		.uleb128 0x9
 556 0079 34       		.uleb128 0x34
 557 007a 00       		.byte	0x0
 558 007b 03       		.uleb128 0x3
 559 007c 0E       		.uleb128 0xe
 560 007d 3A       		.uleb128 0x3a
 561 007e 0B       		.uleb128 0xb
 562 007f 3B       		.uleb128 0x3b
 563 0080 0B       		.uleb128 0xb
 564 0081 49       		.uleb128 0x49
 565 0082 13       		.uleb128 0x13
 566 0083 3F       		.uleb128 0x3f
 567 0084 0C       		.uleb128 0xc
 568 0085 3C       		.uleb128 0x3c
 569 0086 0C       		.uleb128 0xc
ARM GAS  /cygdrive/c/DOCUME~1/mkwapisz/LOCALS~1/Temp/ccL9Qa9d.s 			page 13


 570 0087 00       		.byte	0x0
 571 0088 00       		.byte	0x0
 572 0089 00       		.byte	0x0
 573              		.section	.debug_pubnames,"",%progbits
 574 0000 1A000000 		.4byte	0x1a
 575 0004 0200     		.2byte	0x2
 576 0006 00000000 		.4byte	.Ldebug_info0
 577 000a D0000000 		.4byte	0xd0
 578 000e 6C000000 		.4byte	0x6c
 579 0012 74657374 		.ascii	"testRGB\000"
 579      52474200 
 580 001a 00000000 		.4byte	0x0
 581              		.section	.debug_aranges,"",%progbits
 582 0000 1C000000 		.4byte	0x1c
 583 0004 0200     		.2byte	0x2
 584 0006 00000000 		.4byte	.Ldebug_info0
 585 000a 04       		.byte	0x4
 586 000b 00       		.byte	0x0
 587 000c 0000     		.2byte	0x0
 588 000e 0000     		.2byte	0x0
 589 0010 00000000 		.4byte	.Ltext0
 590 0014 24010000 		.4byte	.Letext0-.Ltext0
 591 0018 00000000 		.4byte	0x0
 592 001c 00000000 		.4byte	0x0
 593              		.section	.debug_str,"MS",%progbits,1
 594              	.LASF10:
 595 0000 78626565 		.ascii	"xbeePresent\000"
 595      50726573 
 595      656E7400 
 596              	.LASF9:
 597 000c 64697265 		.ascii	"direction\000"
 597      6374696F 
 597      6E00
 598              	.LASF0:
 599 0016 756E7369 		.ascii	"unsigned char\000"
 599      676E6564 
 599      20636861 
 599      7200
 600              	.LASF6:
 601 0024 6C6F6E67 		.ascii	"long unsigned int\000"
 601      20756E73 
 601      69676E65 
 601      6420696E 
 601      7400
 602              	.LASF7:
 603 0036 636F6E74 		.ascii	"continueTest\000"
 603      696E7565 
 603      54657374 
 603      00
 604              	.LASF1:
 605 0043 73686F72 		.ascii	"short unsigned int\000"
 605      7420756E 
 605      7369676E 
 605      65642069 
 605      6E7400
 606              	.LASF8:
 607 0056 636F756E 		.ascii	"counter\000"
ARM GAS  /cygdrive/c/DOCUME~1/mkwapisz/LOCALS~1/Temp/ccL9Qa9d.s 			page 14


 607      74657200 
 608              	.LASF14:
 609 005e 74657374 		.ascii	"testRGB\000"
 609      52474200 
 610              	.LASF3:
 611 0066 756E7369 		.ascii	"unsigned int\000"
 611      676E6564 
 611      20696E74 
 611      00
 612              	.LASF11:
 613 0073 474E5520 		.ascii	"GNU C 4.1.1\000"
 613      4320342E 
 613      312E3100 
 614              	.LASF2:
 615 007f 74553332 		.ascii	"tU32\000"
 615      00
 616              	.LASF5:
 617 0084 73686F72 		.ascii	"short int\000"
 617      7420696E 
 617      7400
 618              	.LASF13:
 619 008e 2F637967 		.ascii	"/cygdrive/c/Documents and Settings/mkwapisz/Desktop"
 619      64726976 
 619      652F632F 
 619      446F6375 
 619      6D656E74 
 620 00c1 2F76332E 		.ascii	"/v3.0_without_filesys/testProgram_lpc2148_edu\000"
 620      305F7769 
 620      74686F75 
 620      745F6669 
 620      6C657379 
 621              	.LASF4:
 622 00ef 7369676E 		.ascii	"signed char\000"
 622      65642063 
 622      68617200 
 623              	.LASF12:
 624 00fb 74657374 		.ascii	"testRGB.c\000"
 624      5247422E 
 624      6300
 625              		.ident	"GCC: (GNU) 4.1.1"
ARM GAS  /cygdrive/c/DOCUME~1/mkwapisz/LOCALS~1/Temp/ccL9Qa9d.s 			page 15


DEFINED SYMBOLS
                            *ABS*:00000000 testRGB.c
/cygdrive/c/DOCUME~1/mkwapisz/LOCALS~1/Temp/ccL9Qa9d.s:1      .text:00000000 $t
/cygdrive/c/DOCUME~1/mkwapisz/LOCALS~1/Temp/ccL9Qa9d.s:16     .text:00000000 testRGB
/cygdrive/c/DOCUME~1/mkwapisz/LOCALS~1/Temp/ccL9Qa9d.s:224    .text:000000fc $d

UNDEFINED SYMBOLS
osSleep
xbeePresent
